(dp1
S'expid'
p2
S'e3-q4c'
p3
sS'ans_text_entities'
p4
(lp5
(lp6
S'sotalol'
p7
aa(lp8
S'procainamide'
p9
aa(lp10
S'<http://bio2rdf.org/drugbank:DB00908>'
p11
aa(lp12
S'lidocaine'
p13
aasS'qid'
p14
S'Q16#34'
p15
sS'qa_dist_fn'
p16
S'avg_med_qa_dist'
p17
sS'results'
p18
(lp19
(dp20
S'output'
p21
(cnumpy.core.multiarray
scalar
p22
(cnumpy
dtype
p23
(S'i8'
I0
I1
tRp24
(I3
S'<'
NNNI-1
I-1
I0
tbS'\x00\x00\x00\x00\x00\x00\x00\x00'
tRp25
cnumpy.core.multiarray
_reconstruct
p26
(cnumpy
ndarray
p27
(I0
tS'b'
tRp28
(I1
(I4
tg23
(S'f8'
I0
I1
tRp29
(I3
S'<'
NNNI-1
I-1
I0
tbI00
S'\xab\xab\xe3C|\xbe5@\x01\x97\xd4\x92$?6@\xe1\x8dCgz\xe46@\xaf\xbb\x02gHj6@'
tbtp30
sS'n'
I2
sS'q_len'
p31
I12
sS'q_entities'
p32
(lp33
S'<http://bio2rdf.org/drugbank:DB00571>'
p34
aS'<http://bio2rdf.org/drugbank_resource:420b301984644b9271c0f973597e2208>'
p35
aS'<http://bio2rdf.org/drugbank_resource:8cce2025a325cc6eb4c322b91c975ba4>'
p36
aS'<http://bio2rdf.org/drugbank_resource:3c899fddfe6cf73c34f7e8663b560148>'
p37
aS'<http://bio2rdf.org/drugbank_resource:18911a83eecb849edc7a5c74b1c6ccf7>'
p38
aS'<http://bio2rdf.org/drugbank_resource:3b4729506e67c07c6035b5674515e18c>'
p39
aS'<http://bio2rdf.org/drugbank_resource:DB00273_DB00880>'
p40
aS'<http://bio2rdf.org/drugbank_resource:DB00273_DB00880>'
p41
aS'<http://bio2rdf.org/drugbank_resource:626c7788bf1817fc2c79d0228127ee3f>'
p42
aS'<http://bio2rdf.org/drugbank_resource:d8948c3f491ce8e8657de40075d2102e>'
p43
aS'<http://bio2rdf.org/drugbank:DB04855>'
p44
aS'<http://bio2rdf.org/drugbank:DB01118>'
p45
asa(dp46
g21
(g22
(g24
S'\x00\x00\x00\x00\x00\x00\x00\x00'
tRp47
g26
(g27
(I0
tS'b'
tRp48
(I1
(I4
tg29
I00
S'6\x04\xa4\x94\x9c\xe06@~\x8a\xb5\xa7*\x077@\x86\x0bK\xeb\xb5\x9b7@E9\x80\xc4\x81+7@'
tbtp49
sS'n'
I5
sg31
I27
sg32
(lp50
g34
ag35
aS'<http://bio2rdf.org/drugbank_resource:e2dfc8181352c7f0bfa00af5e6c40026>'
p51
aS'<http://bio2rdf.org/drugbank_resource:1d690b77d2cd43ab46e57cbfb9a0e392>'
p52
aS'<http://bio2rdf.org/drugbank_resource:2363407ca43110a9b5db3e47b772975d>'
p53
ag36
ag37
aS'<http://bio2rdf.org/drugbank_resource:28941561f1399f3b7ec95f593391d6ee>'
p54
aS'<http://bio2rdf.org/drugbank_resource:e64fbc256aca2659db44b4c59a98e8cc>'
p55
aS'<http://bio2rdf.org/drugbank_resource:bd57559063a98b7505382df68ce485c3>'
p56
ag38
ag39
aS'<http://bio2rdf.org/drugbank_resource:534ccc3eb1af0059b91a4289be843bf1>'
p57
aS'<http://bio2rdf.org/drugbank:DB00715>'
p58
aS'<http://bio2rdf.org/drugbank:DB00215>'
p59
ag40
ag41
ag42
ag43
aS'<http://bio2rdf.org/drugbank_resource:32b1f6e9ea7eb393ad086241bd5dbd0b>'
p60
aS'<http://bio2rdf.org/drugbank_resource:DB00196_DB00540>'
p61
aS'<http://bio2rdf.org/drugbank_resource:DB00196_DB00458>'
p62
ag44
ag45
aS'<http://bio2rdf.org/drugbank_resource:10ddc1e1482b23b22c9a49c834de2370>'
p63
aS'<http://bio2rdf.org/drugbank_resource:f077e3ad61bd432983801ee9eaaedf61>'
p64
aS'<http://bio2rdf.org/drugbank_resource:4fec7ab4cb8ae61ee4a592473ae7bacf>'
p65
asa(dp66
g21
(g22
(g24
S'\x02\x00\x00\x00\x00\x00\x00\x00'
tRp67
g26
(g27
(I0
tS'b'
tRp68
(I1
(I4
tg29
I00
S'\x88\x05R\xbd\x90\x957@\\\xa0\xeeM\x1d\xe96@!o\xa8\xceYi6@\x0e\xa2!\x88\x98s7@'
tbtp69
sS'n'
I10
sg31
I52
sg32
(lp70
g34
ag35
ag51
ag52
ag53
aS'<http://bio2rdf.org/drugbank:DB00678>'
p71
aS'<http://bio2rdf.org/drugbank_resource:cf49f0d9fa451f599bee3fefb461100a>'
p72
aS'<http://bio2rdf.org/drugbank_resource:f5e17360599a5c08dd39d38be9bde32e>'
p73
aS'<http://bio2rdf.org/drugbank_resource:1d94608c38fa9ab6356b35192d66c4af>'
p74
aS'<http://bio2rdf.org/drugbank_resource:475ef43c1d42bec5ee3c0a0d7204bf9f>'
p75
ag36
ag37
ag54
ag55
ag56
aS'<http://bio2rdf.org/drugbank_resource:c26a4d11bd9c6f034985346903014e40>'
p76
aS'<http://bio2rdf.org/drugbank_resource:d3c340965bcc695f7b03462ea67d07f6>'
p77
aS'<http://bio2rdf.org/drugbank_resource:27fc185e756c18676e3b9a0d17cd619c>'
p78
aS'<http://bio2rdf.org/drugbank_resource:85a6cc4d3220ff37ddd45a2d26fb7e52>'
p79
aS'<http://bio2rdf.org/drugbank_resource:857f8bab39567293b8b6b46a2f42b3e5>'
p80
ag38
ag39
ag57
ag58
ag59
aS'<http://bio2rdf.org/drugbank_resource:bbe243bdcfe1a07ebcae9963007e2973>'
p81
aS'<http://bio2rdf.org/drugbank_resource:b943b3cfb3c08536fad6a77bc7296204>'
p82
aS'<http://bio2rdf.org/drugbank_resource:6ff0d71cfbf9a325f1dfda585bd00249>'
p83
aS'<http://bio2rdf.org/drugbank_resource:0862d14811b2e2bd1b70435fcb57c736>'
p84
aS'<http://bio2rdf.org/drugbank_resource:b24d03ddd3c2a26e86e0c4b74fc677bd>'
p85
ag40
ag41
ag42
ag43
ag60
ag61
ag62
aS'<http://bio2rdf.org/drugbank_resource:DB00196_DB00321>'
p86
aS'<http://bio2rdf.org/drugbank_resource:DB00321_DB00908>'
p87
aS'<http://bio2rdf.org/drugbank_resource:DB00344_DB00908>'
p88
aS'<http://bio2rdf.org/drugbank_resource:DB00458_DB00908>'
p89
aS'<http://bio2rdf.org/drugbank_resource:DB00540_DB00908>'
p90
ag44
ag45
ag63
ag64
ag65
aS'<http://bio2rdf.org/drugbank_resource:857f8bab39567293b8b6b46a2f42b3e5>'
p91
aS'<http://bio2rdf.org/drugbank_resource:ffb8bea004e47124337147eea0eecee5>'
p92
aS'<http://bio2rdf.org/drugbank_resource:5240879956a9587feaaccebe1c6e099d>'
p93
aS'<http://bio2rdf.org/drugbank_resource:e93b8f5466cf3e6ca7fe27a50d2dd0e3>'
p94
aS'<http://bio2rdf.org/drugbank_resource:c1e31b3d0cf99254432addfb1efd53cc>'
p95
asa(dp96
g21
(g22
(g24
S'\x02\x00\x00\x00\x00\x00\x00\x00'
tRp97
g26
(g27
(I0
tS'b'
tRp98
(I1
(I4
tg29
I00
S'\x00\xa9\xac\x93 \xcd7@\xd0\xd9\xb3\x85\xab\xd76@\x0f\xe0-\x90\xa0l6@L\xa8\t\x17Ar7@'
tbtp99
sS'n'
I15
sg31
I77
sg32
(lp100
g34
ag35
ag51
ag52
ag53
ag71
ag72
ag73
ag74
ag75
aS'<http://bio2rdf.org/drugbank_resource:6369e6aaa9c32dc1155b5924fd3d9cd8>'
p101
aS'<http://bio2rdf.org/drugbank_resource:f7bdf03e1795f82d85f0fc4bc3ca229a>'
p102
aS'<http://bio2rdf.org/drugbank_resource:93377b9ede2237a78b18bc1989d2de95>'
p103
aS'<http://bio2rdf.org/drugbank_resource:a8757fceadbb9d9431626a28c7b34bb9>'
p104
aS'<http://bio2rdf.org/drugbank_resource:b7d53acb8e800b1db7038764f4b8d1c9>'
p105
ag36
ag37
ag54
ag55
ag56
ag76
ag77
ag78
ag79
ag80
aS'<http://bio2rdf.org/drugbank_resource:3d068c46fb31ae51ea838b652b44677f>'
p106
aS'<http://bio2rdf.org/drugbank_resource:ea7381a1defd46d3989ce751a0296542>'
p107
aS'<http://bio2rdf.org/drugbank_resource:94ba43f67e06be0d8e77a2394538d653>'
p108
aS'<http://bio2rdf.org/drugbank_resource:f6a9507e18fc04eb66686af602be66f5>'
p109
aS'<http://bio2rdf.org/drugbank_resource:0ff9ac8c705117d0e6520b3104e633e5>'
p110
ag38
ag39
ag57
ag58
ag59
ag81
ag82
ag83
ag84
ag85
aS'<http://bio2rdf.org/drugbank_resource:62e7a835c7949e541d3e4404848a48dc>'
p111
aS'<http://bio2rdf.org/drugbank_resource:84faefffc45e4ceae0fa7661850bed80>'
p112
aS'<http://bio2rdf.org/drugbank_resource:9f2c4d236b469274dfa0e3b18e705364>'
p113
aS'<http://bio2rdf.org/drugbank_resource:09f3b7f7f42d0604dfd805440100a32f>'
p114
aS'<http://bio2rdf.org/drugbank_resource:8b8a12a2d35c66d3704b6759c852b795>'
p115
ag40
ag41
ag42
ag43
ag60
ag61
ag62
ag86
ag87
ag88
ag89
ag90
aS'<http://bio2rdf.org/drugbank_resource:DB00908_DB01242>'
p116
aS'<http://bio2rdf.org/drugbank_resource:DB00908_DB01151>'
p117
aS'<http://bio2rdf.org/drugbank_resource:DB00908_DB01142>'
p118
aS'<http://bio2rdf.org/drugbank_resource:DB00196_DB00321>'
p119
aS'<http://bio2rdf.org/drugbank_resource:DB00196_DB00540>'
p120
ag44
ag45
ag63
ag64
ag65
ag91
ag92
ag93
ag94
ag95
aS'<http://bio2rdf.org/drugbank_resource:cce9070cc6bdb06d2a26cb58f46d746f>'
p121
aS'<http://bio2rdf.org/drugbank_resource:0ff9ac8c705117d0e6520b3104e633e5>'
p122
aS'<http://bio2rdf.org/drugbank_resource:2132bdbaa4573be8af1fda886b56952d>'
p123
aS'<http://bio2rdf.org/drugbank_resource:ce70b30430888e3a78ce037e81004a33>'
p124
aS'<http://bio2rdf.org/drugbank_resource:8cc11771ae545baae4086fd898dce939>'
p125
asa(dp126
g21
(g22
(g24
S'\x02\x00\x00\x00\x00\x00\x00\x00'
tRp127
g26
(g27
(I0
tS'b'
tRp128
(I1
(I4
tg29
I00
S'9\x9e\x80;j\x947@v6\xeeU\x16\xeb6@H\xb1\xdc\xd2j\xdc6@.d\x8aS\x0bf7@'
tbtp129
sS'n'
I20
sg31
I102
sg32
(lp130
g34
ag35
ag51
ag52
ag53
ag71
ag72
ag73
ag74
ag75
ag101
ag102
ag103
ag104
ag105
aS'<http://bio2rdf.org/drugbank_resource:c0a2ffa1e56a1691a0624276f8314c10>'
p131
aS'<http://bio2rdf.org/drugbank:DB04929>'
p132
aS'<http://bio2rdf.org/drugbank_resource:bcd970fd0df9056582b775a3434b68d5>'
p133
aS'<http://bio2rdf.org/drugbank_resource:a31807b7c99dcaf845a5ef4d112b47e5>'
p134
aS'<http://bio2rdf.org/drugbank_resource:2d1f5d18a46acb849c35a1605acebaa2>'
p135
ag36
ag37
ag54
ag55
ag56
ag76
ag77
ag78
ag79
ag80
ag106
ag107
ag108
ag109
ag110
aS'<http://bio2rdf.org/drugbank:DB01158>'
p136
aS'<http://bio2rdf.org/drugbank_resource:191aa8a24556d86f401d1673dd1b7c5b>'
p137
aS'<http://bio2rdf.org/drugbank_resource:e52bc924f37fe6a62dd8fdbf7db77db7>'
p138
aS'<http://bio2rdf.org/drugbank_resource:f8257af4b21d606f156dde65385499af>'
p139
aS'<http://bio2rdf.org/drugbank_resource:295a1cf6dbff6f01d3d454a5382e0340>'
p140
ag38
ag39
ag57
ag58
ag59
ag81
ag82
ag83
ag84
ag85
ag111
ag112
ag113
ag114
ag115
aS'<http://bio2rdf.org/drugbank_resource:681f857c9fb725ad6d6b8193c7777098>'
p141
aS'<http://bio2rdf.org/drugbank_resource:45eff2c8ffab44262f546bc30ec6ec86>'
p142
aS'<http://bio2rdf.org/drugbank_resource:5ba0e98b8aad0c8f7784c5e26a0639d6>'
p143
aS'<http://bio2rdf.org/drugbank_resource:05a2eeb0247f8604829bd9c28bfc9dca>'
p144
aS'<http://bio2rdf.org/drugbank_resource:50a138500dbd05c396c2328a1ea691aa>'
p145
ag40
ag41
ag42
ag43
ag60
ag61
ag62
ag86
ag87
ag88
ag89
ag90
ag116
ag117
ag118
ag119
ag120
aS'<http://bio2rdf.org/drugbank_resource:DB00196_DB00458>'
p146
aS'<http://bio2rdf.org/drugbank_resource:DB00344_DB00908>'
p147
aS'<http://bio2rdf.org/drugbank_resource:DB00321_DB00908>'
p148
aS'<http://bio2rdf.org/drugbank_resource:DB00458_DB00908>'
p149
aS'<http://bio2rdf.org/drugbank_resource:DB00540_DB00908>'
p150
ag44
ag45
ag63
ag64
ag65
ag91
ag92
ag93
ag94
ag95
ag121
ag122
ag123
ag124
ag125
aS'<http://bio2rdf.org/drugbank:DB06727>'
p151
aS'<http://bio2rdf.org/drugbank_resource:5b2900cd338c3be40e655caa9786f6fb>'
p152
aS'<http://bio2rdf.org/drugbank_resource:ea5b5fe2bda42bbab97742a2f4d8e2c9>'
p153
aS'<http://bio2rdf.org/drugbank_resource:f7f9bed6ff35367e627212e0894ee6e5>'
p154
aS'<http://bio2rdf.org/drugbank_resource:7259d57d3372ca7de672545dacf34c01>'
p155
asa(dp156
g21
(g22
(g24
S'\x01\x00\x00\x00\x00\x00\x00\x00'
tRp157
g26
(g27
(I0
tS'b'
tRp158
(I1
(I4
tg29
I00
S'T_\x17\xf1j\x887@r\x926\xf8\xf4\r7@ ;\xc98P\x177@]\x8c\xfc\xbe\x93}7@'
tbtp159
sS'n'
I25
sg31
I125
sg32
(lp160
g34
ag35
ag51
ag52
ag53
ag71
ag72
ag73
ag74
ag75
ag101
ag102
ag103
ag104
ag105
ag131
ag132
ag133
ag134
ag135
aS'<http://bio2rdf.org/drugbank_resource:70efbe352464e8da8e1491ebc496c548>'
p161
aS'<http://bio2rdf.org/drugbank_resource:f815e460fb0f3e6ffb1badc70cda0e30>'
p162
aS'<http://bio2rdf.org/drugbank_resource:c191fafa64f392f76aded41c07c060c3>'
p163
aS'<http://bio2rdf.org/drugbank_resource:b6a58248e2d7fb0035e1c03f6f55def8>'
p164
aS'<http://bio2rdf.org/drugbank_resource:3068f6dae1b19d629d66afcbe9ab52e9>'
p165
ag36
ag37
ag54
ag55
ag56
ag76
ag77
ag78
ag79
ag80
ag106
ag107
ag108
ag109
ag110
ag136
ag137
ag138
ag139
ag140
aS'<http://bio2rdf.org/drugbank_resource:41d3a16b0291199b4a31eda333d2c277>'
p166
aS'<http://bio2rdf.org/drugbank_resource:23f8e1e2ba370c553e6fee9846201fff>'
p167
aS'<http://bio2rdf.org/drugbank_resource:2d35bd3eb72bf5a00af411e6cc8d6379>'
p168
aS'<http://bio2rdf.org/drugbank_resource:da949f9f56423c3457e0588463fafabf>'
p169
aS'<http://bio2rdf.org/drugbank_resource:DB00215_DB06414>'
p170
ag38
ag39
ag57
ag58
ag59
ag81
ag82
ag83
ag84
ag85
ag111
ag112
ag113
ag114
ag115
ag141
ag142
ag143
ag144
ag145
aS'<http://bio2rdf.org/drugbank_resource:ddfd652701b8da65022570cd4afd8908>'
p171
aS'<http://bio2rdf.org/drugbank_resource:8138ddaca8a920ea78236707141d3e48>'
p172
aS'<http://bio2rdf.org/drugbank_resource:65dcc740a34f7b16ee46788c18450984>'
p173
aS'<http://bio2rdf.org/drugbank_resource:29f0c575b36e293c8fae63958dbb6c9d>'
p174
aS'<http://bio2rdf.org/drugbank_resource:dd3aeccb97b5c53bf7c3bca16b7cd8fa>'
p175
ag40
ag41
ag42
ag43
ag60
ag61
ag62
ag86
ag87
ag88
ag89
ag90
ag116
ag117
ag118
ag119
ag120
ag146
ag147
ag148
ag149
ag150
aS'<http://bio2rdf.org/drugbank_resource:DB00908_DB01151>'
p176
aS'<http://bio2rdf.org/drugbank_resource:DB00908_DB01242>'
p177
aS'<http://bio2rdf.org/drugbank_resource:DB00908_DB01142>'
p178
ag44
ag45
ag63
ag64
ag65
ag91
ag92
ag93
ag94
ag95
ag121
ag122
ag123
ag124
ag125
ag151
ag152
ag153
ag154
ag155
aS'<http://bio2rdf.org/drugbank:DB00192>'
p179
aS'<http://bio2rdf.org/drugbank_resource:0d2a144b4e742ab6678723b6af908a07>'
p180
aS'<http://bio2rdf.org/drugbank_resource:9b1574c9c7a6e4a666fdd4b546d49f5a>'
p181
aS'<http://bio2rdf.org/drugbank_resource:d3c340965bcc695f7b03462ea67d07f6>'
p182
aS'<http://bio2rdf.org/drugbank_resource:10d976cc62c827dce11780fbb415a772>'
p183
asa(dp184
g21
(g22
(g24
S'\x01\x00\x00\x00\x00\x00\x00\x00'
tRp185
g26
(g27
(I0
tS'b'
tRp186
(I1
(I4
tg29
I00
S'\x92#\xb0\x9a\x15\x9a7@\xef8\xf3\x87V\x0c7@)\xa9\xb4\x1b\xa9p7@\xf8\x86\x9d\xcc$}7@'
tbtp187
sS'n'
I50
sg31
I201
sg32
(lp188
g34
ag35
ag51
ag52
ag53
ag71
ag72
ag73
ag74
ag75
ag101
ag102
ag103
ag104
ag105
ag131
ag132
ag133
ag134
ag135
ag161
ag162
ag163
ag164
ag165
aS'<http://bio2rdf.org/drugbank_resource:5b8791eaa364c4b7c2eef12d87b3eda6>'
p189
aS'<http://bio2rdf.org/drugbank_resource:40b7ab0b87927ebce551b17f24d4aa4b>'
p190
aS'<http://bio2rdf.org/drugbank_resource:9793646f0a24e9de0774475a0246631f>'
p191
aS'<http://bio2rdf.org/drugbank_resource:37c10ec2313d47fa5240233810f1ad0b>'
p192
aS'<http://bio2rdf.org/drugbank_resource:0906bfbd0b8d10a0be4d08588d9e4082>'
p193
aS'<http://bio2rdf.org/drugbank_resource:0e6898b9380d9a8c266a2069a8a0eea0>'
p194
aS'<http://bio2rdf.org/drugbank_resource:f4174b3262d7e4fe78778ff741c6af62>'
p195
aS'<http://bio2rdf.org/drugbank_resource:515d127f9121b700affa4fd0ae4fbd5b>'
p196
aS'<http://bio2rdf.org/drugbank:DB05692>'
p197
aS'<http://bio2rdf.org/drugbank_resource:148fa0904c0c63795057ac1dcfe061f1>'
p198
aS'<http://bio2rdf.org/drugbank_resource:b17d96ff7459e6f5301e904c2523345f>'
p199
aS'<http://bio2rdf.org/drugbank_resource:196d50599473ef62ad0ef12dd8cfbe8d>'
p200
aS'<http://bio2rdf.org/drugbank_resource:3d068c46fb31ae51ea838b652b44677f>'
p201
aS'<http://bio2rdf.org/drugbank_resource:c5aec6a226487dd98dfd8aed3d3c809d>'
p202
aS'<http://bio2rdf.org/drugbank_resource:5be8d2030ac9721a7ad51a5fbd28b229>'
p203
aS'<http://bio2rdf.org/drugbank_resource:1b9a401c050db629ab2ca8a9b5206fba>'
p204
aS'<http://bio2rdf.org/drugbank_resource:94ba43f67e06be0d8e77a2394538d653>'
p205
aS'<http://bio2rdf.org/drugbank_resource:973523bf1404f7cdbe88e8646c0c056c>'
p206
aS'<http://bio2rdf.org/drugbank_resource:789125f9287949be28ff77a6925e0d7c>'
p207
aS'<http://bio2rdf.org/drugbank_resource:b3da137ab8e57d75313a6fcc7f7ee3aa>'
p208
aS'<http://bio2rdf.org/drugbank_resource:acefab36590175fdce062772a6e8da2a>'
p209
aS'<http://bio2rdf.org/drugbank_resource:6448098f4d9d62f9ee959697dec28869>'
p210
aS'<http://bio2rdf.org/drugbank_resource:ba5538849302b8ab3e77f736371c0774>'
p211
aS'<http://bio2rdf.org/drugbank_resource:7a47cdd6fd162753ea2d26e4568304f4>'
p212
aS'<http://bio2rdf.org/drugbank_resource:1d0350a4a243f64af1ed13b9f8c6c1e8>'
p213
ag36
ag37
ag54
ag55
ag56
ag76
ag77
ag78
ag79
ag80
ag106
ag107
ag108
ag109
ag110
ag136
ag137
ag138
ag139
ag140
ag166
ag167
ag168
ag169
ag170
aS'<http://bio2rdf.org/drugbank_resource:DB00215_DB06414>'
p214
ag38
ag39
ag57
ag58
ag59
ag81
ag82
ag83
ag84
ag85
ag111
ag112
ag113
ag114
ag115
ag141
ag142
ag143
ag144
ag145
ag171
ag172
ag173
ag174
ag175
aS'<http://bio2rdf.org/drugbank_resource:88bd68203db9cbadd602da684cb51703>'
p215
aS'<http://bio2rdf.org/drugbank_resource:f8b91828e6f9bb5829083b57f822ad40>'
p216
aS'<http://bio2rdf.org/drugbank_resource:5a3853fd760a947fa853685af320afcd>'
p217
aS'<http://bio2rdf.org/drugbank_resource:03eb532ae32f9cd0b23efe32c1a745d2>'
p218
aS'<http://bio2rdf.org/drugbank_resource:fd93683e6c7d68fee864f9a70c1bfb52>'
p219
aS'<http://bio2rdf.org/drugbank_resource:5c4fc52f7ac928bcddf3c82225f11be1>'
p220
aS'<http://bio2rdf.org/drugbank_resource:62ed9703e7a8c1f98ef20a80989707af>'
p221
aS'<http://bio2rdf.org/drugbank_resource:1a680265e343958343c865ea213d319b>'
p222
aS'<http://bio2rdf.org/drugbank_resource:31940dc70c840e7536d3de394e98a04b>'
p223
aS'<http://bio2rdf.org/drugbank_resource:89aa613b53b15c3c1dd452d5b8a3e259>'
p224
aS'<http://bio2rdf.org/drugbank_resource:d384ca9b917778b91666dac7723d7086>'
p225
aS'<http://bio2rdf.org/drugbank_resource:db09fffeee342810f3657ea957bfdfdd>'
p226
aS'<http://bio2rdf.org/drugbank_resource:21a7fdfb6f27a853d8d2778381e6e690>'
p227
aS'<http://bio2rdf.org/drugbank_resource:ffe1b5540ba08d66612cfd599557affa>'
p228
aS'<http://bio2rdf.org/drugbank_resource:19d92645ece517805643683623ee4692>'
p229
aS'<http://bio2rdf.org/drugbank_resource:5cf44c5aeea3d6a3268d7038848b24ed>'
p230
aS'<http://bio2rdf.org/drugbank_resource:9b687cf569f711282fa2fcf841d84728>'
p231
aS'<http://bio2rdf.org/drugbank_resource:a10567089832c925ba44dd829a9be8c5>'
p232
aS'<http://bio2rdf.org/drugbank_resource:2319b6911a15591fc21bf3c4482f923d>'
p233
aS'<http://bio2rdf.org/drugbank_resource:3d51c81a83b4ceca2b1706d53032cb3d>'
p234
aS'<http://bio2rdf.org/drugbank_resource:15a0000ead1045b63395c18633b7400b>'
p235
aS'<http://bio2rdf.org/drugbank_resource:f9c3e84d13a65461ac35a91b3c98e3ac>'
p236
aS'<http://bio2rdf.org/drugbank_resource:cb6bb073fcdab0c7794ac3734bd21e99>'
p237
aS'<http://bio2rdf.org/drugbank_resource:cfe9abb7179138f3722d0dbe39fce291>'
p238
aS'<http://bio2rdf.org/drugbank_resource:01401e059c6e211503ab8aa1b90006c3>'
p239
ag40
ag41
ag42
ag43
ag60
ag61
ag62
ag86
ag87
ag88
ag89
ag90
ag116
ag117
ag118
ag119
ag120
ag146
ag147
ag148
ag149
ag150
ag176
ag177
ag178
ag44
ag45
ag63
ag64
ag65
ag91
ag92
ag93
ag94
ag95
ag121
ag122
ag123
ag124
ag125
ag151
ag152
ag153
ag154
ag155
ag179
ag180
ag181
ag182
ag183
aS'<http://bio2rdf.org/drugbank_resource:b325f787c37773af9aab4f1bd6fdaeec>'
p240
aS'<http://bio2rdf.org/drugbank_resource:994421360baa37d1b0f5b1d27cc4daeb>'
p241
aS'<http://bio2rdf.org/drugbank_resource:9b21f2d2f01a27bbb89027ea7f626e24>'
p242
aS'<http://bio2rdf.org/drugbank_resource:2fb4022b5c1c37f972e43ba1694fdde2>'
p243
aS'<http://bio2rdf.org/drugbank_resource:ed8c3c5656b8a0d2f872ba4007b54737>'
p244
aS'<http://bio2rdf.org/drugbank_resource:8ea0b7e96171a6aa001b0a433f9e6003>'
p245
aS'<http://bio2rdf.org/drugbank_resource:caae80877b1b71f8ef900e85a0d7e696>'
p246
aS'<http://bio2rdf.org/drugbank_resource:d4fa9f00e7d9091421e81e16d48dca61>'
p247
aS'<http://bio2rdf.org/drugbank_resource:f6a9507e18fc04eb66686af602be66f5>'
p248
aS'<http://bio2rdf.org/drugbank_resource:a22d342b3b560689dc7fd0de61b0856d>'
p249
aS'<http://bio2rdf.org/drugbank_resource:11608f65fb7bbb9e83d6cc8cf4c577c4>'
p250
aS'<http://bio2rdf.org/drugbank_resource:3d068c46fb31ae51ea838b652b44677f>'
p251
aS'<http://bio2rdf.org/drugbank_resource:87860ebf9a7e9f9d655b081919298cb2>'
p252
aS'<http://bio2rdf.org/drugbank_resource:94ba43f67e06be0d8e77a2394538d653>'
p253
aS'<http://bio2rdf.org/drugbank_resource:4a7cce405427abf4807e5ea12b3a64e7>'
p254
aS'<http://bio2rdf.org/drugbank_resource:3eca3417eeaeca6a45ad3195b46a009a>'
p255
aS'<http://bio2rdf.org/drugbank:DB00379>'
p256
aS'<http://bio2rdf.org/drugbank:DB00308>'
p257
aS'<http://bio2rdf.org/drugbank:DB00332>'
p258
aS'<http://bio2rdf.org/drugbank:DB00373>'
p259
aS'<http://bio2rdf.org/drugbank:DB00204>'
p260
aS'<http://bio2rdf.org/drugbank:DB01056>'
p261
aS'<http://bio2rdf.org/drugbank:DB01426>'
p262
aS'<http://bio2rdf.org/drugbank_resource:DB00594_DB01346>'
p263
aS'<http://bio2rdf.org/drugbank_resource:DB00594_DB01341>'
p264
asa(dp265
g21
(g22
(g24
S'\x01\x00\x00\x00\x00\x00\x00\x00'
tRp266
g26
(g27
(I0
tS'b'
tRp267
(I1
(I4
tg29
I00
S"~*\x03E\x01^7@&'\xc0\xe7\x84\xf86@\x02\x06H\x99&\xbd7@l\x94\x98\x8e}V7@"
tbtp268
sS'n'
I75
sg31
I250
sg32
(lp269
g34
ag35
ag51
ag52
ag53
ag71
ag72
ag73
ag74
ag75
ag101
ag102
ag103
ag104
ag105
ag131
ag132
ag133
ag134
ag135
ag161
ag162
ag163
ag164
ag165
ag189
ag190
ag191
ag192
ag193
ag194
ag195
ag196
ag197
ag198
ag199
ag200
ag201
ag202
ag203
ag204
ag205
ag206
ag207
ag208
ag209
ag210
ag211
ag212
ag213
aS'<http://bio2rdf.org/drugbank_resource:92deab7bd9e8a05d18d51570b46dc526>'
p270
aS'<http://bio2rdf.org/drugbank_resource:908d14c2da5c5474c735029398642cae>'
p271
aS'<http://bio2rdf.org/drugbank_resource:ab6327b7e6bcd2b762b518bf9adff283>'
p272
aS'<http://bio2rdf.org/drugbank_resource:732594c832d086203c79d3a1ca3b7903>'
p273
aS'<http://bio2rdf.org/drugbank_resource:ee22de4cf54fd052e6e95435402af38d>'
p274
aS'<http://bio2rdf.org/drugbank:DB00264>'
p275
aS'<http://bio2rdf.org/drugbank:DB00790>'
p276
aS'<http://bio2rdf.org/drugbank:DB00796>'
p277
aS'<http://bio2rdf.org/drugbank:DB00722>'
p278
aS'<http://bio2rdf.org/drugbank:DB00178>'
p279
aS'<http://bio2rdf.org/drugbank:DB00519>'
p280
aS'<http://bio2rdf.org/drugbank:DB00177>'
p281
aS'<http://bio2rdf.org/drugbank:DB00612>'
p282
aS'<http://bio2rdf.org/drugbank:DB00841>'
p283
aS'<http://bio2rdf.org/drugbank_resource:eb638b603e7d545a8cbf3c1ac9702c42>'
p284
aS'<http://bio2rdf.org/drugbank_resource:92ca0bbbc173dd6241b546dfd07824a5>'
p285
aS'<http://bio2rdf.org/drugbank_resource:74e52ff0d1fbad8f326f4daecdb9d1c4>'
p286
aS'<http://bio2rdf.org/drugbank:DB01207>'
p287
aS'<http://bio2rdf.org/drugbank_resource:9e96a7a0bf7c9b925a6faddf363c1016>'
p288
aS'<http://bio2rdf.org/drugbank:DB00569>'
p289
aS'<http://bio2rdf.org/drugbank:DB05914>'
p290
ag36
ag37
ag54
ag55
ag56
ag76
ag77
ag78
ag79
ag80
ag106
ag107
ag108
ag109
ag110
ag136
ag137
ag138
ag139
ag140
ag166
ag167
ag168
ag169
ag170
ag214
ag38
ag39
ag57
ag58
ag59
ag81
ag82
ag83
ag84
ag85
ag111
ag112
ag113
ag114
ag115
ag141
ag142
ag143
ag144
ag145
ag171
ag172
ag173
ag174
ag175
ag215
ag216
ag217
ag218
ag219
ag220
ag221
ag222
ag223
ag224
ag225
ag226
ag227
ag228
ag229
ag230
ag231
ag232
ag233
ag234
ag235
ag236
ag237
ag238
ag239
aS'<http://bio2rdf.org/drugbank_resource:96acca8d784ecf87d6690a404041a6f3>'
p291
aS'<http://bio2rdf.org/drugbank_resource:db6075c8ba42d7a25a8cf18e251fd483>'
p292
aS'<http://bio2rdf.org/drugbank_resource:7c1aae0f57e667ab4f6a542a92e9e95a>'
p293
aS'<http://bio2rdf.org/drugbank_resource:7cdd5ee474205e45cc15485d24d515b2>'
p294
aS'<http://bio2rdf.org/drugbank_resource:04ffd9f1084c0b0c3861e6f816bb79c0>'
p295
aS'<http://bio2rdf.org/drugbank_resource:bc3c0acb52bda904e3595793cef14b51>'
p296
aS'<http://bio2rdf.org/drugbank_resource:846243ce8a64ca2fedecbe6acbecf3e2>'
p297
aS'<http://bio2rdf.org/drugbank_resource:f6022b566b5dde200d342f6fb4e5d965>'
p298
aS'<http://bio2rdf.org/drugbank_resource:23f8e1e2ba370c553e6fee9846201fff>'
p299
aS'<http://bio2rdf.org/drugbank_resource:a50c0370defc10d87175c9f118726eb7>'
p300
aS'<http://bio2rdf.org/drugbank_resource:63b5ef632cc304180a8f362cfd5aa8a7>'
p301
aS'<http://bio2rdf.org/drugbank_resource:1bb1ba22a2df97002b367c49e426aa86>'
p302
aS'<http://bio2rdf.org/drugbank_resource:d8df8f22dbf1df8d9278e80d28ee259b>'
p303
aS'<http://bio2rdf.org/drugbank_resource:e0cea38e21dd4da37f60e0d3abf7f620>'
p304
aS'<http://bio2rdf.org/drugbank_resource:574fbf7ce897bb08ac67df4b785fc860>'
p305
aS'<http://bio2rdf.org/drugbank_resource:c0a4c546cfcf3b01bce7d9ee1560c2fd>'
p306
aS'<http://bio2rdf.org/drugbank_resource:bdbe33beb503409f440fd7c5c154b9f9>'
p307
aS'<http://bio2rdf.org/drugbank_resource:da10ee7b85fecbca1e89c9639e8a0588>'
p308
aS'<http://bio2rdf.org/drugbank_resource:2bf62c45c9057e23521336cfce4a2746>'
p309
aS'<http://bio2rdf.org/drugbank_resource:c4f949d3f69d0837aa4378026851a49d>'
p310
aS'<http://bio2rdf.org/drugbank_resource:e8ed810c86358e8c0808d867e32c87f1>'
p311
aS'<http://bio2rdf.org/drugbank_resource:cb23519cef8debc3483818bdcfaf62bf>'
p312
aS'<http://bio2rdf.org/drugbank_resource:894bb6e1b75988a2c4eb4c0e0d12f1fb>'
p313
aS'<http://bio2rdf.org/drugbank_resource:131509603eb2fa173fc7969e6b12e09f>'
p314
aS'<http://bio2rdf.org/drugbank_resource:d172c7de1442ab07173b637bad4529f6>'
p315
ag40
ag41
ag42
ag43
ag60
ag61
ag62
ag86
ag87
ag88
ag89
ag90
ag116
ag117
ag118
ag119
ag120
ag146
ag147
ag148
ag149
ag150
ag176
ag177
ag178
ag44
ag45
ag63
ag64
ag65
ag91
ag92
ag93
ag94
ag95
ag121
ag122
ag123
ag124
ag125
ag151
ag152
ag153
ag154
ag155
ag179
ag180
ag181
ag182
ag183
ag240
ag241
ag242
ag243
ag244
ag245
ag246
ag247
ag248
ag249
ag250
ag251
ag252
ag253
ag254
ag255
ag256
ag257
ag258
ag259
ag260
ag261
ag262
ag263
ag264
aS'<http://bio2rdf.org/drugbank_resource:DB00594_DB01341>'
p316
aS'<http://bio2rdf.org/drugbank_resource:DB00594_DB01346>'
p317
aS'<http://bio2rdf.org/drugbank:DB01214>'
p318
asa(dp319
g21
(g22
(g24
S'\x01\x00\x00\x00\x00\x00\x00\x00'
tRp320
g26
(g27
(I0
tS'b'
tRp321
(I1
(I4
tg29
I00
S'\xa34*b1b7@\x82N\xa58\x9f\x027@\x0fO\xad\xda\xbc\x058@\x96\xb4\x97L[e7@'
tbtp322
sS'n'
I100
sg31
I275
sg32
(lp323
g34
ag35
ag51
ag52
ag53
ag71
ag72
ag73
ag74
ag75
ag101
ag102
ag103
ag104
ag105
ag131
ag132
ag133
ag134
ag135
ag161
ag162
ag163
ag164
ag165
ag189
ag190
ag191
ag192
ag193
ag194
ag195
ag196
ag197
ag198
ag199
ag200
ag201
ag202
ag203
ag204
ag205
ag206
ag207
ag208
ag209
ag210
ag211
ag212
ag213
ag270
ag271
ag272
ag273
ag274
ag275
ag276
ag277
ag278
ag279
ag280
ag281
ag282
ag283
ag284
ag285
ag286
ag287
ag288
ag289
ag290
ag36
ag37
ag54
ag55
ag56
ag76
ag77
ag78
ag79
ag80
ag106
ag107
ag108
ag109
ag110
ag136
ag137
ag138
ag139
ag140
ag166
ag167
ag168
ag169
ag170
ag214
ag38
ag39
ag57
ag58
ag59
ag81
ag82
ag83
ag84
ag85
ag111
ag112
ag113
ag114
ag115
ag141
ag142
ag143
ag144
ag145
ag171
ag172
ag173
ag174
ag175
ag215
ag216
ag217
ag218
ag219
ag220
ag221
ag222
ag223
ag224
ag225
ag226
ag227
ag228
ag229
ag230
ag231
ag232
ag233
ag234
ag235
ag236
ag237
ag238
ag239
ag291
ag292
ag293
ag294
ag295
ag296
ag297
ag298
ag299
ag300
ag301
ag302
ag303
ag304
ag305
ag306
ag307
ag308
ag309
ag310
ag311
ag312
ag313
ag314
ag315
aS'<http://bio2rdf.org/drugbank_resource:38c6b659a74dc7731ec61e94153e91fa>'
p324
aS'<http://bio2rdf.org/drugbank_resource:bc227d571ddf4d3b32b7e4a8e3a4a12f>'
p325
aS'<http://bio2rdf.org/drugbank_resource:08b30a9e1fdbb4e6335193a572b1cde3>'
p326
aS'<http://bio2rdf.org/drugbank_resource:aa84e66443ed1a67d4913bdd3c41c3f6>'
p327
aS'<http://bio2rdf.org/drugbank_resource:3d4c857e753e1657b3f69edf661ba71f>'
p328
aS'<http://bio2rdf.org/drugbank_resource:b81ece2325d87328ca90b581ff693215>'
p329
aS'<http://bio2rdf.org/drugbank_resource:43769af1f31c6c7205f869c75bf62d4e>'
p330
aS'<http://bio2rdf.org/drugbank_resource:4317603daa0bbe1ddd41c1cd191fda6c>'
p331
aS'<http://bio2rdf.org/drugbank_resource:a570b3fbf789e3edb4d410e92530b8ff>'
p332
aS'<http://bio2rdf.org/drugbank_resource:0cdb15b073f6a6038f11fc0b011abdfd>'
p333
aS'<http://bio2rdf.org/drugbank_resource:b0e9a3d58488dc0ce4c79b2aad89d34c>'
p334
aS'<http://bio2rdf.org/drugbank_resource:5618a93869e9298e1be36acc89c81ccb>'
p335
aS'<http://bio2rdf.org/drugbank_resource:2131235c3b1e40eef9d429167933d7f6>'
p336
aS'<http://bio2rdf.org/drugbank_resource:5bfa2ba85533d5e6be9ce22bf7124519>'
p337
aS'<http://bio2rdf.org/drugbank_resource:5082edc7b6387ee7c12836dc22fb8fec>'
p338
aS'<http://bio2rdf.org/drugbank_resource:e23f07c86866844ad50144579d305ac4>'
p339
aS'<http://bio2rdf.org/drugbank_resource:9b38a6b8adec197dec120833de98fa6d>'
p340
aS'<http://bio2rdf.org/drugbank_resource:5a110803d0ed12f5d1d3e448ce93c375>'
p341
aS'<http://bio2rdf.org/drugbank_resource:c6c638b6501c8d98b50b9e26e259a875>'
p342
aS'<http://bio2rdf.org/drugbank_resource:e3a3ca1ef987d99823a3de08a3ec5095>'
p343
aS'<http://bio2rdf.org/drugbank_resource:199e3a1e33be005c271d6ffffb169b07>'
p344
aS'<http://bio2rdf.org/drugbank_resource:bb4823ffa8b7519b4b3161730015c24e>'
p345
aS'<http://bio2rdf.org/drugbank_resource:45fb51188031139577a66e32ce2bda5f>'
p346
aS'<http://bio2rdf.org/drugbank_resource:0c9bb8afd6cbc0c775e6b0062142d1f4>'
p347
aS'<http://bio2rdf.org/drugbank_resource:1880f97fedf3967cb5b07844cb259f49>'
p348
ag40
ag41
ag42
ag43
ag60
ag61
ag62
ag86
ag87
ag88
ag89
ag90
ag116
ag117
ag118
ag119
ag120
ag146
ag147
ag148
ag149
ag150
ag176
ag177
ag178
ag44
ag45
ag63
ag64
ag65
ag91
ag92
ag93
ag94
ag95
ag121
ag122
ag123
ag124
ag125
ag151
ag152
ag153
ag154
ag155
ag179
ag180
ag181
ag182
ag183
ag240
ag241
ag242
ag243
ag244
ag245
ag246
ag247
ag248
ag249
ag250
ag251
ag252
ag253
ag254
ag255
ag256
ag257
ag258
ag259
ag260
ag261
ag262
ag263
ag264
ag316
ag317
ag318
asa(dp349
g21
(g22
(g24
S'\x01\x00\x00\x00\x00\x00\x00\x00'
tRp350
g26
(g27
(I0
tS'b'
tRp351
(I1
(I4
tg29
I00
S'\n\x194\x1b\x16V7@\xa0ha\x01\xaf\x0c7@\xd9\xb3\x03\x17lV8@`\xf1{\xb5\x82{7@'
tbtp352
sS'n'
I200
sg31
I355
sg32
(lp353
g34
ag35
ag51
ag52
ag53
ag71
ag72
ag73
ag74
ag75
ag101
ag102
ag103
ag104
ag105
ag131
ag132
ag133
ag134
ag135
ag161
ag162
ag163
ag164
ag165
ag189
ag190
ag191
ag192
ag193
ag194
ag195
ag196
ag197
ag198
ag199
ag200
ag201
ag202
ag203
ag204
ag205
ag206
ag207
ag208
ag209
ag210
ag211
ag212
ag213
ag270
ag271
ag272
ag273
ag274
ag275
ag276
ag277
ag278
ag279
ag280
ag281
ag282
ag283
ag284
ag285
ag286
ag287
ag288
ag289
ag290
ag36
ag37
ag54
ag55
ag56
ag76
ag77
ag78
ag79
ag80
ag106
ag107
ag108
ag109
ag110
ag136
ag137
ag138
ag139
ag140
ag166
ag167
ag168
ag169
ag170
ag214
ag38
ag39
ag57
ag58
ag59
ag81
ag82
ag83
ag84
ag85
ag111
ag112
ag113
ag114
ag115
ag141
ag142
ag143
ag144
ag145
ag171
ag172
ag173
ag174
ag175
ag215
ag216
ag217
ag218
ag219
ag220
ag221
ag222
ag223
ag224
ag225
ag226
ag227
ag228
ag229
ag230
ag231
ag232
ag233
ag234
ag235
ag236
ag237
ag238
ag239
ag291
ag292
ag293
ag294
ag295
ag296
ag297
ag298
ag299
ag300
ag301
ag302
ag303
ag304
ag305
ag306
ag307
ag308
ag309
ag310
ag311
ag312
ag313
ag314
ag315
ag324
ag325
ag326
ag327
ag328
ag329
ag330
ag331
ag332
ag333
ag334
ag335
ag336
ag337
ag338
ag339
ag340
ag341
ag342
ag343
ag344
ag345
ag346
ag347
ag348
aS'<http://bio2rdf.org/drugbank_resource:ec7fdf0883ac3440f8af7e7ea9b35504>'
p354
aS'<http://bio2rdf.org/drugbank_resource:c2a429fe9a17ab1a8e6e3bd8340f7de1>'
p355
aS'<http://bio2rdf.org/drugbank_resource:001af13a5023c9b3548e610f8f76e244>'
p356
aS'<http://bio2rdf.org/drugbank_resource:18e62f783a0d5229fb72f32bb14e655a>'
p357
aS'<http://bio2rdf.org/drugbank_resource:6e294124a9c061ba5867817f65b3dbea>'
p358
aS'<http://bio2rdf.org/drugbank_resource:adfbc329fb9424d4e9c1b4bbfcb3eca8>'
p359
aS'<http://bio2rdf.org/drugbank_resource:d5d14854105c4d79a8508855494e936b>'
p360
aS'<http://bio2rdf.org/drugbank_resource:ff0248fe9c419e0c883087dddd1e0c59>'
p361
aS'<http://bio2rdf.org/drugbank_resource:a5320c4b5f4316a5153bcbc8dcb25f82>'
p362
aS'<http://bio2rdf.org/drugbank_resource:e5efdafdc63d8fb3a8508bf645eb86f5>'
p363
aS'<http://bio2rdf.org/drugbank_resource:8661fc309785f5657ab5291bcf9a7492>'
p364
aS'<http://bio2rdf.org/drugbank_resource:1fbfc242ea60e41d5b14c94b2d4bf184>'
p365
aS'<http://bio2rdf.org/drugbank_resource:c7a61c35f0d82615bf4e2694bdf020a5>'
p366
aS'<http://bio2rdf.org/drugbank_resource:9e968b46391ddd0e37a0471df903c22f>'
p367
aS'<http://bio2rdf.org/drugbank_resource:5d9ea392a8348054b71f2ac8e2f8ec08>'
p368
aS'<http://bio2rdf.org/drugbank_resource:5f5bc8d273b20cdd98ff7bdd9e8de2d4>'
p369
aS'<http://bio2rdf.org/drugbank_resource:9aea030e7a73f4af58b382b93286dcc7>'
p370
aS'<http://bio2rdf.org/drugbank_resource:415d2074856814af5440d64b36458284>'
p371
aS'<http://bio2rdf.org/drugbank_resource:258cc60df2781b5ff5374ce5b993c83c>'
p372
aS'<http://bio2rdf.org/drugbank_resource:14c399ef25354bd1dee739b2686e3bef>'
p373
aS'<http://bio2rdf.org/drugbank_resource:a8822bbbce5ab759773ae996318f81db>'
p374
aS'<http://bio2rdf.org/drugbank_resource:123b4d7b9f0c7184cf9285fec3e385fa>'
p375
aS'<http://bio2rdf.org/drugbank_resource:43f5dbc703569af55520a7cc19dfea4d>'
p376
aS'<http://bio2rdf.org/drugbank_resource:6e8123d7a6d0d3731c8dc3bff750ec3f>'
p377
aS'<http://bio2rdf.org/drugbank_resource:c988829395af50dc671808f84cdfd66e>'
p378
aS'<http://bio2rdf.org/drugbank_resource:f5f6843eb02be13ccd96ae7466475709>'
p379
aS'<http://bio2rdf.org/drugbank_resource:cce735f24fe2149fc447c9b210a598d9>'
p380
aS'<http://bio2rdf.org/drugbank_resource:bb96ac25b503246757e97fd372b7480f>'
p381
aS'<http://bio2rdf.org/drugbank_resource:85fe2cd81fe861ee5339bf51c8092b7e>'
p382
aS'<http://bio2rdf.org/drugbank_resource:2c7ea51935cc2e35c9d90096aea6fd6b>'
p383
aS'<http://bio2rdf.org/drugbank_resource:c4a6245bd7e411e66e81f27914ed4a82>'
p384
aS'<http://bio2rdf.org/drugbank_resource:dea19cec3dd8b64ce55e9e272a0ff332>'
p385
aS'<http://bio2rdf.org/drugbank_resource:58c892d482acbde8ec5afdc9ccc654ef>'
p386
aS'<http://bio2rdf.org/drugbank_resource:36789899a6ec5174b91a8abea54922c6>'
p387
aS'<http://bio2rdf.org/drugbank_resource:75fda6500127f450ac7775e5b5324a20>'
p388
aS'<http://bio2rdf.org/drugbank_resource:7c5d9c4ab279c1964daa3c0fc4718cf6>'
p389
aS'<http://bio2rdf.org/drugbank_resource:adc853459fd3352faebeadef03b02608>'
p390
aS'<http://bio2rdf.org/drugbank_resource:7f472eacbcc2b184045f6248d5f38d8e>'
p391
aS'<http://bio2rdf.org/drugbank_resource:27dca7b049eb8ce4a9ddec050052e1c3>'
p392
aS'<http://bio2rdf.org/drugbank_resource:08c9e47245af692018a550443e9fd083>'
p393
aS'<http://bio2rdf.org/drugbank_resource:41d8a8cc85c6376bf4c76ef0e7809688>'
p394
aS'<http://bio2rdf.org/drugbank_resource:1583eb2931473ddb0bccbbb8bc68d290>'
p395
aS'<http://bio2rdf.org/drugbank_resource:17e9d079ba387d99b12af07e98f4f7a3>'
p396
aS'<http://bio2rdf.org/drugbank_resource:e6382f4d83246dd7574f9932b0f6a441>'
p397
aS'<http://bio2rdf.org/drugbank_resource:de7627b409523f708a9bb74d4b865dc4>'
p398
aS'<http://bio2rdf.org/drugbank_resource:70efbe352464e8da8e1491ebc496c548>'
p399
aS'<http://bio2rdf.org/drugbank_resource:eba6b392f01f46a44d27a2a98318837a>'
p400
aS'<http://bio2rdf.org/drugbank_resource:e5656d9f30d4ac45f8c98ed8eb03e124>'
p401
aS'<http://bio2rdf.org/drugbank_resource:feda847e9d5b7e54ec521b21da5138b4>'
p402
aS'<http://bio2rdf.org/drugbank_resource:327020907e4a3b2bea6f07bc18dc72e7>'
p403
aS'<http://bio2rdf.org/drugbank_resource:9b6010d3fe393fdf4ad0ac08eb77737a>'
p404
aS'<http://bio2rdf.org/drugbank_resource:37c10ec2313d47fa5240233810f1ad0b>'
p405
aS'<http://bio2rdf.org/drugbank_resource:af10329c88ed40a085c3bb76a4d2ff0a>'
p406
aS'<http://bio2rdf.org/drugbank_resource:d02b2c22fb2d050229810b95071e8971>'
p407
aS'<http://bio2rdf.org/drugbank_resource:596160d3b4c0d95c8a96d51c29e25006>'
p408
aS'<http://bio2rdf.org/drugbank_resource:d2dced7c1e8ad2316576b5b240126e69>'
p409
aS'<http://bio2rdf.org/drugbank_resource:b81b75eec2ccd4473e29765f462998ba>'
p410
aS'<http://bio2rdf.org/drugbank:DB01325>'
p411
aS'<http://bio2rdf.org/drugbank:DB01175>'
p412
aS'<http://bio2rdf.org/drugbank:DB01104>'
p413
aS'<http://bio2rdf.org/drugbank:DB00472>'
p414
aS'<http://bio2rdf.org/drugbank_resource:2d2b82beb5a54aa395772ad4e0e99a1f>'
p415
aS'<http://bio2rdf.org/drugbank_resource:10d352b22702f786ce1f9b228a98f42e>'
p416
aS'<http://bio2rdf.org/drugbank_resource:3ce6af40c439f5e35fc8a90608618ec6>'
p417
aS'<http://bio2rdf.org/drugbank_resource:a4591a5a1ce56b4f746739efd7b0dab1>'
p418
aS'<http://bio2rdf.org/drugbank_resource:4c4da92cc0daedb83e401e97c46a91b4>'
p419
aS'<http://bio2rdf.org/drugbank_resource:2834b81810e809e71c86b086bfdc904c>'
p420
aS'<http://bio2rdf.org/drugbank_resource:DB00215_DB06414>'
p421
aS'<http://bio2rdf.org/drugbank_resource:DB00254_DB00307>'
p422
aS'<http://bio2rdf.org/drugbank_resource:DB00307_DB01017>'
p423
aS'<http://bio2rdf.org/drugbank_resource:DB00307_DB00618>'
p424
aS'<http://bio2rdf.org/drugbank_resource:DB00307_DB00759>'
p425
aS'<http://bio2rdf.org/drugbank_resource:DB00215_DB06414>'
p426
aS'<http://bio2rdf.org/drugbank_resource:DB00254_DB00307>'
p427
aS'<http://bio2rdf.org/drugbank_resource:DB00307_DB00618>'
p428
aS'<http://bio2rdf.org/drugbank_resource:DB00307_DB01017>'
p429
aS'<http://bio2rdf.org/drugbank_resource:DB00307_DB00759>'
p430
aS'<http://bio2rdf.org/drugbank_resource:571dd2301c6b955f89b8899bba957372>'
p431
aS'<http://bio2rdf.org/drugbank:DB01020>'
p432
aS'<http://bio2rdf.org/drugbank:DB00660>'
p433
ag40
ag41
ag42
ag43
ag60
ag61
ag62
ag86
ag87
ag88
ag89
ag90
ag116
ag117
ag118
ag119
ag120
ag146
ag147
ag148
ag149
ag150
ag176
ag177
ag178
ag44
ag45
ag63
ag64
ag65
ag91
ag92
ag93
ag94
ag95
ag121
ag122
ag123
ag124
ag125
ag151
ag152
ag153
ag154
ag155
ag179
ag180
ag181
ag182
ag183
ag240
ag241
ag242
ag243
ag244
ag245
ag246
ag247
ag248
ag249
ag250
ag251
ag252
ag253
ag254
ag255
ag256
ag257
ag258
ag259
ag260
ag261
ag262
ag263
ag264
ag316
ag317
ag318
asa(dp434
g21
(g22
(g24
S'\x01\x00\x00\x00\x00\x00\x00\x00'
tRp435
g26
(g27
(I0
tS'b'
tRp436
(I1
(I4
tg29
I00
S'\n\x194\x1b\x16V7@\xa0ha\x01\xaf\x0c7@\xd9\xb3\x03\x17lV8@`\xf1{\xb5\x82{7@'
tbtp437
sS'n'
I400
sg31
I355
sg32
(lp438
g34
ag35
ag51
ag52
ag53
ag71
ag72
ag73
ag74
ag75
ag101
ag102
ag103
ag104
ag105
ag131
ag132
ag133
ag134
ag135
ag161
ag162
ag163
ag164
ag165
ag189
ag190
ag191
ag192
ag193
ag194
ag195
ag196
ag197
ag198
ag199
ag200
ag201
ag202
ag203
ag204
ag205
ag206
ag207
ag208
ag209
ag210
ag211
ag212
ag213
ag270
ag271
ag272
ag273
ag274
ag275
ag276
ag277
ag278
ag279
ag280
ag281
ag282
ag283
ag284
ag285
ag286
ag287
ag288
ag289
ag290
ag36
ag37
ag54
ag55
ag56
ag76
ag77
ag78
ag79
ag80
ag106
ag107
ag108
ag109
ag110
ag136
ag137
ag138
ag139
ag140
ag166
ag167
ag168
ag169
ag170
ag214
ag38
ag39
ag57
ag58
ag59
ag81
ag82
ag83
ag84
ag85
ag111
ag112
ag113
ag114
ag115
ag141
ag142
ag143
ag144
ag145
ag171
ag172
ag173
ag174
ag175
ag215
ag216
ag217
ag218
ag219
ag220
ag221
ag222
ag223
ag224
ag225
ag226
ag227
ag228
ag229
ag230
ag231
ag232
ag233
ag234
ag235
ag236
ag237
ag238
ag239
ag291
ag292
ag293
ag294
ag295
ag296
ag297
ag298
ag299
ag300
ag301
ag302
ag303
ag304
ag305
ag306
ag307
ag308
ag309
ag310
ag311
ag312
ag313
ag314
ag315
ag324
ag325
ag326
ag327
ag328
ag329
ag330
ag331
ag332
ag333
ag334
ag335
ag336
ag337
ag338
ag339
ag340
ag341
ag342
ag343
ag344
ag345
ag346
ag347
ag348
ag354
ag355
ag356
ag357
ag358
ag359
ag360
ag361
ag362
ag363
ag364
ag365
ag366
ag367
ag368
ag369
ag370
ag371
ag372
ag373
ag374
ag375
ag376
ag377
ag378
ag379
ag380
ag381
ag382
ag383
ag384
ag385
ag386
ag387
ag388
ag389
ag390
ag391
ag392
ag393
ag394
ag395
ag396
ag397
ag398
ag399
ag400
ag401
ag402
ag403
ag404
ag405
ag406
ag407
ag408
ag409
ag410
ag411
ag412
ag413
ag414
ag415
ag416
ag417
ag418
ag419
ag420
ag421
ag422
ag423
ag424
ag425
ag426
ag427
ag428
ag429
ag430
ag431
ag432
ag433
ag40
ag41
ag42
ag43
ag60
ag61
ag62
ag86
ag87
ag88
ag89
ag90
ag116
ag117
ag118
ag119
ag120
ag146
ag147
ag148
ag149
ag150
ag176
ag177
ag178
ag44
ag45
ag63
ag64
ag65
ag91
ag92
ag93
ag94
ag95
ag121
ag122
ag123
ag124
ag125
ag151
ag152
ag153
ag154
ag155
ag179
ag180
ag181
ag182
ag183
ag240
ag241
ag242
ag243
ag244
ag245
ag246
ag247
ag248
ag249
ag250
ag251
ag252
ag253
ag254
ag255
ag256
ag257
ag258
ag259
ag260
ag261
ag262
ag263
ag264
ag316
ag317
ag318
asa(dp439
g21
(g22
(g24
S'\x01\x00\x00\x00\x00\x00\x00\x00'
tRp440
g26
(g27
(I0
tS'b'
tRp441
(I1
(I4
tg29
I00
S'\n\x194\x1b\x16V7@\xa0ha\x01\xaf\x0c7@\xd9\xb3\x03\x17lV8@`\xf1{\xb5\x82{7@'
tbtp442
sS'n'
I700
sg31
I355
sg32
(lp443
g34
ag35
ag51
ag52
ag53
ag71
ag72
ag73
ag74
ag75
ag101
ag102
ag103
ag104
ag105
ag131
ag132
ag133
ag134
ag135
ag161
ag162
ag163
ag164
ag165
ag189
ag190
ag191
ag192
ag193
ag194
ag195
ag196
ag197
ag198
ag199
ag200
ag201
ag202
ag203
ag204
ag205
ag206
ag207
ag208
ag209
ag210
ag211
ag212
ag213
ag270
ag271
ag272
ag273
ag274
ag275
ag276
ag277
ag278
ag279
ag280
ag281
ag282
ag283
ag284
ag285
ag286
ag287
ag288
ag289
ag290
ag36
ag37
ag54
ag55
ag56
ag76
ag77
ag78
ag79
ag80
ag106
ag107
ag108
ag109
ag110
ag136
ag137
ag138
ag139
ag140
ag166
ag167
ag168
ag169
ag170
ag214
ag38
ag39
ag57
ag58
ag59
ag81
ag82
ag83
ag84
ag85
ag111
ag112
ag113
ag114
ag115
ag141
ag142
ag143
ag144
ag145
ag171
ag172
ag173
ag174
ag175
ag215
ag216
ag217
ag218
ag219
ag220
ag221
ag222
ag223
ag224
ag225
ag226
ag227
ag228
ag229
ag230
ag231
ag232
ag233
ag234
ag235
ag236
ag237
ag238
ag239
ag291
ag292
ag293
ag294
ag295
ag296
ag297
ag298
ag299
ag300
ag301
ag302
ag303
ag304
ag305
ag306
ag307
ag308
ag309
ag310
ag311
ag312
ag313
ag314
ag315
ag324
ag325
ag326
ag327
ag328
ag329
ag330
ag331
ag332
ag333
ag334
ag335
ag336
ag337
ag338
ag339
ag340
ag341
ag342
ag343
ag344
ag345
ag346
ag347
ag348
ag354
ag355
ag356
ag357
ag358
ag359
ag360
ag361
ag362
ag363
ag364
ag365
ag366
ag367
ag368
ag369
ag370
ag371
ag372
ag373
ag374
ag375
ag376
ag377
ag378
ag379
ag380
ag381
ag382
ag383
ag384
ag385
ag386
ag387
ag388
ag389
ag390
ag391
ag392
ag393
ag394
ag395
ag396
ag397
ag398
ag399
ag400
ag401
ag402
ag403
ag404
ag405
ag406
ag407
ag408
ag409
ag410
ag411
ag412
ag413
ag414
ag415
ag416
ag417
ag418
ag419
ag420
ag421
ag422
ag423
ag424
ag425
ag426
ag427
ag428
ag429
ag430
ag431
ag432
ag433
ag40
ag41
ag42
ag43
ag60
ag61
ag62
ag86
ag87
ag88
ag89
ag90
ag116
ag117
ag118
ag119
ag120
ag146
ag147
ag148
ag149
ag150
ag176
ag177
ag178
ag44
ag45
ag63
ag64
ag65
ag91
ag92
ag93
ag94
ag95
ag121
ag122
ag123
ag124
ag125
ag151
ag152
ag153
ag154
ag155
ag179
ag180
ag181
ag182
ag183
ag240
ag241
ag242
ag243
ag244
ag245
ag246
ag247
ag248
ag249
ag250
ag251
ag252
ag253
ag254
ag255
ag256
ag257
ag258
ag259
ag260
ag261
ag262
ag263
ag264
ag316
ag317
ag318
asa(dp444
g21
(g22
(g24
S'\x01\x00\x00\x00\x00\x00\x00\x00'
tRp445
g26
(g27
(I0
tS'b'
tRp446
(I1
(I4
tg29
I00
S'\n\x194\x1b\x16V7@\xa0ha\x01\xaf\x0c7@\xd9\xb3\x03\x17lV8@`\xf1{\xb5\x82{7@'
tbtp447
sS'n'
I1000
sg31
I355
sg32
(lp448
g34
ag35
ag51
ag52
ag53
ag71
ag72
ag73
ag74
ag75
ag101
ag102
ag103
ag104
ag105
ag131
ag132
ag133
ag134
ag135
ag161
ag162
ag163
ag164
ag165
ag189
ag190
ag191
ag192
ag193
ag194
ag195
ag196
ag197
ag198
ag199
ag200
ag201
ag202
ag203
ag204
ag205
ag206
ag207
ag208
ag209
ag210
ag211
ag212
ag213
ag270
ag271
ag272
ag273
ag274
ag275
ag276
ag277
ag278
ag279
ag280
ag281
ag282
ag283
ag284
ag285
ag286
ag287
ag288
ag289
ag290
ag36
ag37
ag54
ag55
ag56
ag76
ag77
ag78
ag79
ag80
ag106
ag107
ag108
ag109
ag110
ag136
ag137
ag138
ag139
ag140
ag166
ag167
ag168
ag169
ag170
ag214
ag38
ag39
ag57
ag58
ag59
ag81
ag82
ag83
ag84
ag85
ag111
ag112
ag113
ag114
ag115
ag141
ag142
ag143
ag144
ag145
ag171
ag172
ag173
ag174
ag175
ag215
ag216
ag217
ag218
ag219
ag220
ag221
ag222
ag223
ag224
ag225
ag226
ag227
ag228
ag229
ag230
ag231
ag232
ag233
ag234
ag235
ag236
ag237
ag238
ag239
ag291
ag292
ag293
ag294
ag295
ag296
ag297
ag298
ag299
ag300
ag301
ag302
ag303
ag304
ag305
ag306
ag307
ag308
ag309
ag310
ag311
ag312
ag313
ag314
ag315
ag324
ag325
ag326
ag327
ag328
ag329
ag330
ag331
ag332
ag333
ag334
ag335
ag336
ag337
ag338
ag339
ag340
ag341
ag342
ag343
ag344
ag345
ag346
ag347
ag348
ag354
ag355
ag356
ag357
ag358
ag359
ag360
ag361
ag362
ag363
ag364
ag365
ag366
ag367
ag368
ag369
ag370
ag371
ag372
ag373
ag374
ag375
ag376
ag377
ag378
ag379
ag380
ag381
ag382
ag383
ag384
ag385
ag386
ag387
ag388
ag389
ag390
ag391
ag392
ag393
ag394
ag395
ag396
ag397
ag398
ag399
ag400
ag401
ag402
ag403
ag404
ag405
ag406
ag407
ag408
ag409
ag410
ag411
ag412
ag413
ag414
ag415
ag416
ag417
ag418
ag419
ag420
ag421
ag422
ag423
ag424
ag425
ag426
ag427
ag428
ag429
ag430
ag431
ag432
ag433
ag40
ag41
ag42
ag43
ag60
ag61
ag62
ag86
ag87
ag88
ag89
ag90
ag116
ag117
ag118
ag119
ag120
ag146
ag147
ag148
ag149
ag150
ag176
ag177
ag178
ag44
ag45
ag63
ag64
ag65
ag91
ag92
ag93
ag94
ag95
ag121
ag122
ag123
ag124
ag125
ag151
ag152
ag153
ag154
ag155
ag179
ag180
ag181
ag182
ag183
ag240
ag241
ag242
ag243
ag244
ag245
ag246
ag247
ag248
ag249
ag250
ag251
ag252
ag253
ag254
ag255
ag256
ag257
ag258
ag259
ag260
ag261
ag262
ag263
ag264
ag316
ag317
ag318
asa(dp449
g21
(g22
(g24
S'\x01\x00\x00\x00\x00\x00\x00\x00'
tRp450
g26
(g27
(I0
tS'b'
tRp451
(I1
(I4
tg29
I00
S'\n\x194\x1b\x16V7@\xa0ha\x01\xaf\x0c7@\xd9\xb3\x03\x17lV8@`\xf1{\xb5\x82{7@'
tbtp452
sS'n'
I1500
sg31
I355
sg32
(lp453
g34
ag35
ag51
ag52
ag53
ag71
ag72
ag73
ag74
ag75
ag101
ag102
ag103
ag104
ag105
ag131
ag132
ag133
ag134
ag135
ag161
ag162
ag163
ag164
ag165
ag189
ag190
ag191
ag192
ag193
ag194
ag195
ag196
ag197
ag198
ag199
ag200
ag201
ag202
ag203
ag204
ag205
ag206
ag207
ag208
ag209
ag210
ag211
ag212
ag213
ag270
ag271
ag272
ag273
ag274
ag275
ag276
ag277
ag278
ag279
ag280
ag281
ag282
ag283
ag284
ag285
ag286
ag287
ag288
ag289
ag290
ag36
ag37
ag54
ag55
ag56
ag76
ag77
ag78
ag79
ag80
ag106
ag107
ag108
ag109
ag110
ag136
ag137
ag138
ag139
ag140
ag166
ag167
ag168
ag169
ag170
ag214
ag38
ag39
ag57
ag58
ag59
ag81
ag82
ag83
ag84
ag85
ag111
ag112
ag113
ag114
ag115
ag141
ag142
ag143
ag144
ag145
ag171
ag172
ag173
ag174
ag175
ag215
ag216
ag217
ag218
ag219
ag220
ag221
ag222
ag223
ag224
ag225
ag226
ag227
ag228
ag229
ag230
ag231
ag232
ag233
ag234
ag235
ag236
ag237
ag238
ag239
ag291
ag292
ag293
ag294
ag295
ag296
ag297
ag298
ag299
ag300
ag301
ag302
ag303
ag304
ag305
ag306
ag307
ag308
ag309
ag310
ag311
ag312
ag313
ag314
ag315
ag324
ag325
ag326
ag327
ag328
ag329
ag330
ag331
ag332
ag333
ag334
ag335
ag336
ag337
ag338
ag339
ag340
ag341
ag342
ag343
ag344
ag345
ag346
ag347
ag348
ag354
ag355
ag356
ag357
ag358
ag359
ag360
ag361
ag362
ag363
ag364
ag365
ag366
ag367
ag368
ag369
ag370
ag371
ag372
ag373
ag374
ag375
ag376
ag377
ag378
ag379
ag380
ag381
ag382
ag383
ag384
ag385
ag386
ag387
ag388
ag389
ag390
ag391
ag392
ag393
ag394
ag395
ag396
ag397
ag398
ag399
ag400
ag401
ag402
ag403
ag404
ag405
ag406
ag407
ag408
ag409
ag410
ag411
ag412
ag413
ag414
ag415
ag416
ag417
ag418
ag419
ag420
ag421
ag422
ag423
ag424
ag425
ag426
ag427
ag428
ag429
ag430
ag431
ag432
ag433
ag40
ag41
ag42
ag43
ag60
ag61
ag62
ag86
ag87
ag88
ag89
ag90
ag116
ag117
ag118
ag119
ag120
ag146
ag147
ag148
ag149
ag150
ag176
ag177
ag178
ag44
ag45
ag63
ag64
ag65
ag91
ag92
ag93
ag94
ag95
ag121
ag122
ag123
ag124
ag125
ag151
ag152
ag153
ag154
ag155
ag179
ag180
ag181
ag182
ag183
ag240
ag241
ag242
ag243
ag244
ag245
ag246
ag247
ag248
ag249
ag250
ag251
ag252
ag253
ag254
ag255
ag256
ag257
ag258
ag259
ag260
ag261
ag262
ag263
ag264
ag316
ag317
ag318
asasS'comments'
p454
S'\n        Uses a different representation of answer 3 then in experiment3-q4\n        and experiment3-q4b. Here only quinedine is activated.\n    '
p455
sS'summary'
p456
S'Degree-based weights and average-median qa weights'
p457
sS'trials'
p458
(lp459
I2
aI5
aI10
aI15
aI20
aI25
aI50
aI75
aI100
aI200
aI400
aI700
aI1000
aI1500
asS'q_text_entities'
p460
(lp461
S'myocardial infarction'
p462
aS'ventricular tachycardia'
p463
aS'dizziness'
p464
aS'consciousnes'
p465
aS'hypokalemic'
p466
aS'Torsades de Pointes'
p467
aS'antiarrhythmic'
p468
asS'weights'
p469
S'deg_weight'
p470
sS'graph'
p471
S'drugbank-ext-v2.graphml'
p472
sS'date'
p473
S'2014/07/16 02:34'
p474
sS'correct'
p475
I2
sS'description'
p476
S"\n        The four multiple choice answers are all medicines that are all present in Drugbank. \n        They can be found using `qa.find_drugbank_entity`. \n        The question text, on the other hand, does not contain entities in Drugbank. \n        However, some entities might have entities from the question text in their description. \n        So we try to identify relevant drugbank entities by doing a full-text search over drugbank \n        (using Virtuoso's built-in Precision Search). \n        Clearly, this representation is not perfect: if we select only a few entities, \n        which are actually unrelated, a good result seems implausible. \n        So we examine this: **what is the (very rough) effect of the number of \n        entities we pick from the ranked full-text search results?**\n        "
p477
s.