(dp1
S'expid'
p2
S'e3-q2'
p3
sS'description'
p4
S"\n        The four multiple choice answers are all medicines that are all present in Drugbank. \n        They can be found using `qa.find_drugbank_entity`. \n        The question text, on the other hand, does not contain entities in Drugbank. \n        However, some entities might have entities from the question text in their description. \n        So we try to identify relevant drugbank entities by doing a full-text search over drugbank \n        (using Virtuoso's built-in Precision Search). \n        Clearly, this representation is not perfect: if we select only a few entities, \n        which are actually unrelated, a good result seems implausible. \n        So we examine this: **what is the (very rough) effect of the number of \n        entities we pick from the ranked full-text search results?**\n        "
p5
sS'qid'
p6
S'Q119#2'
p7
sS'qa_dist_fn'
p8
S'avg_med_qa_dist'
p9
sS'results'
p10
(lp11
(dp12
S'output'
p13
(cnumpy.core.multiarray
scalar
p14
(cnumpy
dtype
p15
(S'i8'
I0
I1
tRp16
(I3
S'<'
NNNI-1
I-1
I0
tbS'\x00\x00\x00\x00\x00\x00\x00\x00'
tRp17
cnumpy.core.multiarray
_reconstruct
p18
(cnumpy
ndarray
p19
(I0
tS'b'
tRp20
(I1
(I4
tg15
(S'f8'
I0
I1
tRp21
(I3
S'<'
NNNI-1
I-1
I0
tbI00
S'K=\xce\xf3%\x835@\xcb\x8b\x8d\xfb\x93\xa56@\xd3l_\xc2\xa5\x146@Z\xd9\x01\x96\xda\x8e6@'
tbtp22
sS'n'
I2
sS'q_len'
p23
I14
sS'q_entities'
p24
(lp25
S'<http://bio2rdf.org/drugbank:DB02573>'
p26
aS'<http://bio2rdf.org/drugbank:DB02947>'
p27
aS'<http://bio2rdf.org/drugbank:BE0001218>'
p28
aS'<http://bio2rdf.org/drugbank_resource:dd1f46b3f814ae19967e3aa941116f21>'
p29
aS'<http://bio2rdf.org/drugbank:DB00495>'
p30
aS'<http://bio2rdf.org/drugbank:BE0001667>'
p31
aS'<http://bio2rdf.org/drugbank:DB00709>'
p32
aS'<http://bio2rdf.org/drugbank_resource:5524af5a69a8a56dfce67eed71af8d43>'
p33
aS'<http://bio2rdf.org/drugbank:DB00943>'
p34
aS'<http://bio2rdf.org/drugbank_resource:51a493652a13f9f15bfa7880693fc8f4>'
p35
aS'<http://bio2rdf.org/drugbank_resource:calculated-properties-DB00495-10>'
p36
aS'<http://bio2rdf.org/drugbank_resource:4ae6628acf456f373bb1241494313680>'
p37
aS'<http://bio2rdf.org/drugbank_resource:8069e8c4ef1d26165be249ff29aa06d8>'
p38
aS'<http://bio2rdf.org/drugbank_resource:febcec2ab95e291795b5d3aab5c19806>'
p39
asa(dp40
g13
(g14
(g16
S'\x00\x00\x00\x00\x00\x00\x00\x00'
tRp41
g18
(g19
(I0
tS'b'
tRp42
(I1
(I4
tg21
I00
S'c\x7f\xd9=\xf9\xd75@]\xe1].\xa2\x816@*\x8c-\x04\xf9\x056@\x8cl\xe7\xfbi\x8b6@'
tbtp43
sS'n'
I5
sg23
I35
sg24
(lp44
g26
ag27
aS"<http://bio2rdf.org/drugbank_vocabulary:5'-[N-[(3s)-3-Amino-3-Carboxypropyl]-N-Methylamino]-5'-Deoxyadenosine>"
p45
aS'<http://bio2rdf.org/drugbank:DB03716>'
p46
aS'<http://bio2rdf.org/drugbank:DB02573>'
p47
ag28
ag29
aS'<http://bio2rdf.org/drugbank_resource:41f41e4111532cb6ffe23996850852a5>'
p48
aS'<http://bio2rdf.org/drugbank_resource:d25a1498a6928f4ec245f730e1c7361d>'
p49
aS'<http://bio2rdf.org/drugbank_resource:76c04f36b8437521d0973352f80eff02>'
p50
ag30
ag31
aS'<http://bio2rdf.org/drugbank_resource:b6058c7beb94d0fd5ce55f119743ca63>'
p51
aS'<http://bio2rdf.org/drugbank:DB00943>'
p52
aS'<http://bio2rdf.org/drugbank_resource:d6662f94aaf0247859cf44477cc46d19>'
p53
ag32
ag33
aS'<http://bio2rdf.org/drugbank_resource:5d9496db3a3b2b800487fb51c7162950>'
p54
aS'<http://bio2rdf.org/drugbank:DB05228>'
p55
aS'<http://bio2rdf.org/drugbank_resource:d6420ab6f3cf89ce3fe8c5831402371e>'
p56
ag34
ag35
aS'<http://bio2rdf.org/drugbank_resource:cf68dbe2ccc938c0c1d778610549ef55>'
p57
aS'<http://bio2rdf.org/drugbank_resource:b6058c7beb94d0fd5ce55f119743ca63>'
p58
aS'<http://bio2rdf.org/drugbank_resource:7a0084de517fc32ebc79fa1cdce0dd34>'
p59
ag36
ag37
aS'<http://bio2rdf.org/wikipedia:Zidovudine>'
p60
aS'<http://bio2rdf.org/drugbank_resource:Combid>'
p61
aS'<http://bio2rdf.org/drugbank_resource:Avocomb>'
p62
ag38
ag39
aS'<http://bio2rdf.org/drugbank_resource:35ae2f32598bfc4e5d071ca6b55eb635>'
p63
aS'<http://bio2rdf.org/drugbank_resource:5f1019892af904259e3533b9b9f9cef3>'
p64
aS'<http://bio2rdf.org/drugbank_resource:5b58142878345818d14535ffff60e7dc>'
p65
asa(dp66
g13
(g14
(g16
S'\x02\x00\x00\x00\x00\x00\x00\x00'
tRp67
g18
(g19
(I0
tS'b'
tRp68
(I1
(I4
tg21
I00
S'\xb5u>\xa1\x07\xcb5@\x8f\xfa\x82\xe1(\xdc6@\xab\xb3\x8d\rBi5@BZ.\xe7QZ6@'
tbtp69
sS'n'
I10
sg23
I70
sg24
(lp70
g26
ag27
ag45
ag46
ag47
aS'<http://bio2rdf.org/drugbank:DB02947>'
p71
aS'<http://bio2rdf.org/drugbank:DB03716>'
p72
aS"<http://bio2rdf.org/drugbank_vocabulary:5'-[N-[(3s)-3-Amino-3-Carboxypropyl]-N-Methylamino]-5'-Deoxyadenosine>"
p73
aS'<http://bio2rdf.org/drugbank_resource:0af7b52de7c231d2b18103eedd8afac6>'
p74
aS"<http://bio2rdf.org/drugbank_vocabulary:5'-[N-[(3s)-3-Amino-3-Carboxypropyl]-N-Methylamino]-5'-Deoxyadenosine>"
p75
ag28
ag29
ag48
ag49
ag50
aS'<http://bio2rdf.org/drugbank_resource:51f4ea955e20199e39200ae8f2717b5d>'
p76
aS'<http://bio2rdf.org/drugbank_resource:e8679877bff5eea2db3bc0017366cf02>'
p77
aS'<http://bio2rdf.org/drugbank_resource:11168e1047169f5c5034d23b19c09ead>'
p78
aS'<http://bio2rdf.org/drugbank_resource:7a0084de517fc32ebc79fa1cdce0dd34>'
p79
aS'<http://bio2rdf.org/drugbank_resource:d34ae46da31b9764c2bc974e02b21a71>'
p80
ag30
ag31
ag51
ag52
ag53
aS'<http://bio2rdf.org/drugbank_resource:8739b9a4b6e21dbd59226dd1a794cf31>'
p81
aS'<http://bio2rdf.org/drugbank_resource:7e726c96468b7f5aec8355d21c38ad50>'
p82
aS'<http://bio2rdf.org/drugbank_resource:7ba164a8211d3349080d3bdae8fab1f7>'
p83
aS'<http://bio2rdf.org/drugbank_resource:e1322c4847b4c6b1c54575991a554ac4>'
p84
aS'<http://bio2rdf.org/drugbank_resource:da4f1790e97e9296162f48811061cb9d>'
p85
ag32
ag33
ag54
ag55
ag56
aS'<http://bio2rdf.org/drugbank_resource:4ae6628acf456f373bb1241494313680>'
p86
aS'<http://bio2rdf.org/drugbank_resource:fd39b01f96e3a80b0899e380c7507c79>'
p87
aS'<http://bio2rdf.org/drugbank:DB00300>'
p88
aS'<http://bio2rdf.org/drugbank_resource:08d0fa54553c69d124a356172a2da104>'
p89
aS'<http://bio2rdf.org/drugbank_resource:dd1f46b3f814ae19967e3aa941116f21>'
p90
ag34
ag35
ag57
ag58
ag59
aS'<http://bio2rdf.org/drugbank_resource:76c04f36b8437521d0973352f80eff02>'
p91
aS'<http://bio2rdf.org/drugbank_resource:51f4ea955e20199e39200ae8f2717b5d>'
p92
aS'<http://bio2rdf.org/drugbank_resource:c8a52bb6529b48b77f58f467ac6f50a1>'
p93
aS'<http://bio2rdf.org/drugbank_resource:f246c72c7439c8777583162763440757>'
p94
aS'<http://bio2rdf.org/drugbank_resource:e98047130e40dc991c8215e0210294ad>'
p95
ag36
ag37
ag60
ag61
ag62
aS'<http://bio2rdf.org/drugbank_resource:Avudin>'
p96
aS'<http://bio2rdf.org/drugbank_resource:Biovir>'
p97
aS'<http://bio2rdf.org/drugbank_resource:Cipla-Duovir>'
p98
aS'<http://bio2rdf.org/drugbank_resource:Cytocom>'
p99
aS'<http://bio2rdf.org/drugbank_resource:Ganvirel-Duo>'
p100
ag38
ag39
ag63
ag64
ag65
aS'<http://bio2rdf.org/drugbank_resource:c924f5533e36f0c96f9df2dcb5a51070>'
p101
aS'<http://bio2rdf.org/drugbank_resource:b8aa593aa534794a6c1230548cf41e08>'
p102
aS'<http://bio2rdf.org/drugbank_resource:7cd9314a589894288607e3f69cf82aa9>'
p103
aS'<http://bio2rdf.org/drugbank_resource:695dae7eee65c1184ebbacf21a52da36>'
p104
aS'<http://bio2rdf.org/drugbank_resource:bc3c0498349c8454c719b777feb87df0>'
p105
asa(dp106
g13
(g14
(g16
S'\x02\x00\x00\x00\x00\x00\x00\x00'
tRp107
g18
(g19
(I0
tS'b'
tRp108
(I1
(I4
tg21
I00
S'#\x00j\xa6\xa0\xe85@\xe3\xc8\xbe\xd4\x9e\x057@m\xfaF\xca\x90\xa35@\x02\x1f8\x8d\x99\x886@'
tbtp109
sS'n'
I15
sg23
I104
sg24
(lp110
g26
ag27
ag45
ag46
ag47
ag71
ag72
ag73
ag74
ag75
aS'<http://bio2rdf.org/drugbank_resource:1381a171a212990181a6aad111bcb533>'
p111
aS'<http://bio2rdf.org/drugbank_resource:8e1dcb5ec448d70b95b4e8de581db1f0>'
p112
aS'<http://bio2rdf.org/drugbank_resource:f246c72c7439c8777583162763440757>'
p113
aS"<http://bio2rdf.org/drugbank_vocabulary:5'-[N-[(3s)-3-Amino-3-Carboxypropyl]-N-Methylamino]-5'-Deoxyadenosine>"
p114
aS"<http://bio2rdf.org/drugbank_vocabulary:5'-[N-[(3s)-3-Amino-3-Carboxypropyl]-N-Methylamino]-5'-Deoxyadenosine>"
p115
ag28
ag29
ag48
ag49
ag50
ag76
ag77
ag78
ag79
ag80
aS'<http://bio2rdf.org/drugbank_resource:8cab8ce4d252226be193312fc01c4615>'
p116
aS'<http://bio2rdf.org/drugbank_resource:778d26a251be340dea392b7179181db4>'
p117
aS'<http://bio2rdf.org/drugbank_resource:44145bd60d187ae53e10d42aa1d126e0>'
p118
aS'<http://bio2rdf.org/drugbank_resource:ccdebb4e140093739925bc9052d4575d>'
p119
aS'<http://bio2rdf.org/drugbank_resource:0978f2a4793088a06752ef94bcb2a41f>'
p120
ag30
ag31
ag51
ag52
ag53
ag81
ag82
ag83
ag84
ag85
aS'<http://bio2rdf.org/drugbank_resource:1e69b2728fb47129630d7b13b6565dc5>'
p121
aS'<http://bio2rdf.org/drugbank_resource:51a493652a13f9f15bfa7880693fc8f4>'
p122
aS'<http://bio2rdf.org/drugbank_resource:b32da34f868abf10f48ac93c0289803c>'
p123
aS'<http://bio2rdf.org/drugbank_resource:886a56c32aa326ce14ee5fddd4e88a7c>'
p124
aS'<http://bio2rdf.org/drugbank_resource:76c04f36b8437521d0973352f80eff02>'
p125
ag32
ag33
ag54
ag55
ag56
ag86
ag87
ag88
ag89
ag90
aS'<http://bio2rdf.org/drugbank_resource:85e317b55999b7a27430a9790de26a66>'
p126
aS'<http://bio2rdf.org/drugbank_resource:b157f64ab8a4f457df8bb878a1492a10>'
p127
aS'<http://bio2rdf.org/drugbank_resource:ea15c95120f73c93ca28ec1a15b48536>'
p128
aS'<http://bio2rdf.org/drugbank:DB00943>'
p129
aS'<http://bio2rdf.org/drugbank_resource:8e273d05ae5d1365a3420e051a7739c4>'
p130
ag34
ag35
ag57
ag58
ag59
ag91
ag92
ag93
ag94
ag95
aS'<http://bio2rdf.org/drugbank_resource:b157f64ab8a4f457df8bb878a1492a10>'
p131
aS'<http://bio2rdf.org/drugbank_resource:8e273d05ae5d1365a3420e051a7739c4>'
p132
aS'<http://bio2rdf.org/drugbank_resource:1f9520cfa5e06b9a5e77f2508c2d6e87>'
p133
aS'<http://bio2rdf.org/drugbank:DB00970>'
p134
ag36
ag37
ag60
ag61
ag62
ag96
ag97
ag98
ag99
ag100
aS'<http://bio2rdf.org/drugbank_resource:Lamda-Z>'
p135
aS'<http://bio2rdf.org/drugbank_resource:Cytocom-N>'
p136
aS'<http://bio2rdf.org/drugbank_resource:calculated-properties-DB00495-10>'
p137
aS'<http://bio2rdf.org/drugbank_resource:16f596f16a2f57a6500d7e8a98ac9404>'
p138
aS'<http://bio2rdf.org/drugbank_resource:d1cb83e9bff15515880f9e15f8bdc957>'
p139
ag38
ag39
ag63
ag64
ag65
ag101
ag102
ag103
ag104
ag105
aS'<http://bio2rdf.org/drugbank_resource:1ace0b3c033dd9c0e8f921de569f17d3>'
p140
aS'<http://bio2rdf.org/drugbank_resource:703a58bd543ce6e87c5eb22579024be0>'
p141
aS'<http://bio2rdf.org/drugbank_resource:23f291d257cf1dd41ff7d36c4a8e0014>'
p142
aS'<http://bio2rdf.org/drugbank_resource:37cdf0a17b41427ffefc8c66976a9894>'
p143
aS'<http://bio2rdf.org/drugbank_resource:7612c80c4b85cde88e984138cff9fda3>'
p144
asa(dp145
g13
(g14
(g16
S'\x02\x00\x00\x00\x00\x00\x00\x00'
tRp146
g18
(g19
(I0
tS'b'
tRp147
(I1
(I4
tg21
I00
S'\xa1/\xc4\xf9\x08%6@\x8c\xe7\x99lZ67@\xe4\x97\xfd\xfc2\xe05@\xab\xcd\x1c\x1d\x15\xb06@'
tbtp148
sS'n'
I20
sg23
I134
sg24
(lp149
g26
ag27
ag45
ag46
ag47
ag71
ag72
ag73
ag74
ag75
ag111
ag112
ag113
ag114
ag115
aS'<http://bio2rdf.org/drugbank_resource:4b7b6b33e952268669c6bcc19f0e9a47>'
p150
aS'<http://bio2rdf.org/drugbank_resource:6f49e1143ca22c3d5731154239b6fa82>'
p151
aS'<http://bio2rdf.org/drugbank_resource:d69d4c8b4006a14887402a3db12a5618>'
p152
aS'<http://bio2rdf.org/drugbank_resource:e98047130e40dc991c8215e0210294ad>'
p153
aS'<http://bio2rdf.org/drugbank_resource:9a31158364606e8c2f84582f61bd993e>'
p154
ag28
ag29
ag48
ag49
ag50
ag76
ag77
ag78
ag79
ag80
ag116
ag117
ag118
ag119
ag120
aS'<http://bio2rdf.org/drugbank_resource:4c5a18f63601fc79a778956507b27124>'
p155
aS'<http://bio2rdf.org/drugbank_resource:e077cef3b00c70353e4b40350d0b9dc5>'
p156
aS'<http://bio2rdf.org/drugbank_resource:4e116831377945974844123477c94d11>'
p157
aS'<http://bio2rdf.org/drugbank_resource:8e273d05ae5d1365a3420e051a7739c4>'
p158
aS'<http://bio2rdf.org/drugbank_resource:f1c1c0243af97612a3cd132afbce25be>'
p159
ag30
ag31
ag51
ag52
ag53
ag81
ag82
ag83
ag84
ag85
ag121
ag122
ag123
ag124
ag125
aS'<http://bio2rdf.org/drugbank_resource:38cbb5517a4fce5f50e741e5c8deeeb2>'
p160
aS'<http://bio2rdf.org/drugbank_resource:d9ea663823ba777b61d6178c216ba28d>'
p161
aS'<http://bio2rdf.org/drugbank_resource:1722eb920ad0bbe1db51ac1d1a159d28>'
p162
aS'<http://bio2rdf.org/drugbank_resource:e575717ae39517db8b48e9da5d25e30c>'
p163
aS'<http://bio2rdf.org/drugbank_resource:8b58c2bbdb6fc525f9a11f116d5d2d78>'
p164
ag32
ag33
ag54
ag55
ag56
ag86
ag87
ag88
ag89
ag90
ag126
ag127
ag128
ag129
ag130
aS'<http://bio2rdf.org/drugbank_resource:d1cb83e9bff15515880f9e15f8bdc957>'
p165
aS'<http://bio2rdf.org/drugbank_resource:425518c4ac4b087126b14b9ce0e7fe1b>'
p166
aS'<http://bio2rdf.org/drugbank_resource:40399ad2d2482e70ad847052042cba9f>'
p167
aS'<http://bio2rdf.org/drugbank_resource:d34ae46da31b9764c2bc974e02b21a71>'
p168
aS'<http://bio2rdf.org/drugbank_resource:fa4334e48e40e8d5ac4eb24171c364fa>'
p169
ag34
ag35
ag57
ag58
ag59
ag91
ag92
ag93
ag94
ag95
ag131
ag132
ag133
ag134
ag36
ag37
ag60
ag61
ag62
ag96
ag97
ag98
ag99
ag100
ag135
ag136
ag137
ag138
ag139
aS'<http://bio2rdf.org/drugbank_resource:Lamivudine-and-Zidovudine>'
p170
aS'<http://bio2rdf.org/drugbank_resource:Lamivudine-and-Zidovudine>'
p171
aS'<http://bio2rdf.org/drugbank_resource:Lamivudine-and-Zidovudine>'
p172
aS'<http://bio2rdf.org/drugbank_resource:Trizivir>'
p173
aS'<http://bio2rdf.org/drugbank_resource:Trizivir>'
p174
ag38
ag39
ag63
ag64
ag65
ag101
ag102
ag103
ag104
ag105
ag140
ag141
ag142
ag143
ag144
aS'<http://bio2rdf.org/drugbank_resource:199ce6ec43abf8b17c36780b32c10b2e>'
p175
aS'<http://bio2rdf.org/drugbank_resource:c51d4caf224a13eba60feab4e86958c3>'
p176
aS'<http://bio2rdf.org/drugbank_resource:7921794a9b077dd3150073303a3cb962>'
p177
aS'<http://bio2rdf.org/drugbank_resource:138b47706025a903063bca30bbcbdcf2>'
p178
aS'<http://bio2rdf.org/drugbank_resource:72c7b64a0278833f006cc8f9ebd58efa>'
p179
asa(dp180
g13
(g14
(g16
S'\x02\x00\x00\x00\x00\x00\x00\x00'
tRp181
g18
(g19
(I0
tS'b'
tRp182
(I1
(I4
tg21
I00
S'\xd4\xe9\x94\x9dSJ6@!=\\\x83R27@\t<\x8di\xaf\xf55@\xcf\xb5\xdf\x82\x18\xc26@'
tbtp183
sS'n'
I25
sg23
I164
sg24
(lp184
g26
ag27
ag45
ag46
ag47
ag71
ag72
ag73
ag74
ag75
ag111
ag112
ag113
ag114
ag115
ag150
ag151
ag152
ag153
ag154
aS'<http://bio2rdf.org/drugbank_resource:41f41e4111532cb6ffe23996850852a5>'
p185
aS'<http://bio2rdf.org/drugbank:DB03222>'
p186
aS'<http://bio2rdf.org/drugbank:DB03222>'
p187
aS'<http://bio2rdf.org/drugbank:DB04485>'
p188
aS'<http://bio2rdf.org/drugbank:BE0001731>'
p189
ag28
ag29
ag48
ag49
ag50
ag76
ag77
ag78
ag79
ag80
ag116
ag117
ag118
ag119
ag120
ag155
ag156
ag157
ag158
ag159
aS'<http://bio2rdf.org/drugbank_resource:e98047130e40dc991c8215e0210294ad>'
p190
aS'<http://bio2rdf.org/drugbank_resource:fe2695819cad1797be87d6c4b67dd8d2>'
p191
aS'<http://bio2rdf.org/drugbank_resource:155d10ed42188391ec9c054f90b4d91b>'
p192
aS'<http://bio2rdf.org/drugbank_resource:b6058c7beb94d0fd5ce55f119743ca63>'
p193
aS'<http://bio2rdf.org/drugbank_resource:091df563607d4fdfe7102639140a0314>'
p194
ag30
ag31
ag51
ag52
ag53
ag81
ag82
ag83
ag84
ag85
ag121
ag122
ag123
ag124
ag125
ag160
ag161
ag162
ag163
ag164
aS'<http://bio2rdf.org/drugbank_resource:83e2951873b95c4cd7faa52da0a3d5e2>'
p195
aS'<http://bio2rdf.org/drugbank_resource:e064b83b901106207c6d0edbee634798>'
p196
aS'<http://bio2rdf.org/drugbank_resource:b7b70130c66f757a546be3f3e8581260>'
p197
aS'<http://bio2rdf.org/drugbank:DB00442>'
p198
aS'<http://bio2rdf.org/drugbank_resource:0a61abac69324cb6158a2af2f5941c84>'
p199
ag32
ag33
ag54
ag55
ag56
ag86
ag87
ag88
ag89
ag90
ag126
ag127
ag128
ag129
ag130
ag165
ag166
ag167
ag168
ag169
aS'<http://bio2rdf.org/drugbank_resource:4c43b083d27d561f8c90a55123d5dba3>'
p200
aS'<http://bio2rdf.org/drugbank_resource:f246c72c7439c8777583162763440757>'
p201
aS'<http://bio2rdf.org/drugbank_resource:60b6ddd7a8f7546eb80c5ec9f77cdf94>'
p202
aS'<http://bio2rdf.org/drugbank_resource:7a0084de517fc32ebc79fa1cdce0dd34>'
p203
aS'<http://bio2rdf.org/drugbank_resource:1b4e550ca199af3136abb1fca6697741>'
p204
ag34
ag35
ag57
ag58
ag59
ag91
ag92
ag93
ag94
ag95
ag131
ag132
ag133
ag134
ag36
ag37
ag60
ag61
ag62
ag96
ag97
ag98
ag99
ag100
ag135
ag136
ag137
ag138
ag139
ag170
ag171
ag172
ag173
ag174
aS'<http://bio2rdf.org/drugbank_resource:DB00495_DB00649>'
p205
aS'<http://bio2rdf.org/drugbank_resource:DB00495_DB00932>'
p206
aS'<http://bio2rdf.org/drugbank_resource:DB00333_DB00495>'
p207
aS'<http://bio2rdf.org/drugbank_resource:DB00495_DB01117>'
p208
aS'<http://bio2rdf.org/drugbank_resource:DB00333_DB00495>'
p209
ag38
ag39
ag63
ag64
ag65
ag101
ag102
ag103
ag104
ag105
ag140
ag141
ag142
ag143
ag144
ag175
ag176
ag177
ag178
ag179
aS'<http://bio2rdf.org/drugbank_resource:216e05bfbe71b7bc3a0fc242e5393526>'
p210
aS'<http://bio2rdf.org/drugbank_resource:476b0e71f45f1e6109d650c91187376d>'
p211
aS'<http://bio2rdf.org/drugbank_resource:e6382f4d83246dd7574f9932b0f6a441>'
p212
aS'<http://bio2rdf.org/drugbank_resource:1c1c988707cce70a99a865dc9f2affab>'
p213
aS'<http://bio2rdf.org/drugbank_resource:06c1f9b941b6abebd0dd3f12d0148390>'
p214
asa(dp215
g13
(g14
(g16
S'\x02\x00\x00\x00\x00\x00\x00\x00'
tRp216
g18
(g19
(I0
tS'b'
tRp217
(I1
(I4
tg21
I00
S'\xb4{\xf2\xb0P36@\xcf\x85\xde$\xad87@\x97G#]\x8c\xe95@\xee}\xd8p;\xa16@'
tbtp218
sS'n'
I50
sg23
I236
sg24
(lp219
g26
ag27
ag45
ag46
ag47
ag71
ag72
ag73
ag74
ag75
ag111
ag112
ag113
ag114
ag115
ag150
ag151
ag152
ag153
ag154
ag185
ag186
ag187
ag188
ag189
aS'<http://bio2rdf.org/drugbank:BE0001556>'
p220
ag28
ag29
ag48
ag49
ag50
ag76
ag77
ag78
ag79
ag80
ag116
ag117
ag118
ag119
ag120
ag155
ag156
ag157
ag158
ag159
ag190
ag191
ag192
ag193
ag194
aS'<http://bio2rdf.org/drugbank_resource:9d9aff577549d959cbdb935abe34bee0>'
p221
aS'<http://bio2rdf.org/drugbank_resource:b6e49069b3e39b22a03227631c16f227>'
p222
aS'<http://bio2rdf.org/drugbank_resource:2475486082ccacad6ca9b29d6ec97d82>'
p223
aS'<http://bio2rdf.org/drugbank_resource:1f9520cfa5e06b9a5e77f2508c2d6e87>'
p224
aS'<http://bio2rdf.org/drugbank:DB00900>'
p225
ag30
ag31
ag51
ag52
ag53
ag81
ag82
ag83
ag84
ag85
ag121
ag122
ag123
ag124
ag125
ag160
ag161
ag162
ag163
ag164
ag195
ag196
ag197
ag198
ag199
aS'<http://bio2rdf.org/drugbank_resource:0978f2a4793088a06752ef94bcb2a41f>'
p226
aS'<http://bio2rdf.org/drugbank_resource:6a8eb83fccbadfd0d6564dbdf03c06da>'
p227
aS'<http://bio2rdf.org/drugbank:DB05060>'
p228
aS'<http://bio2rdf.org/drugbank_resource:c81d90fa4e70225c424a1ce63ce2062a>'
p229
aS'<http://bio2rdf.org/drugbank_resource:73668ef550de6539613a2889902dbf73>'
p230
aS'<http://bio2rdf.org/drugbank_resource:32dc7fd32146dc55e4bb7ae8c80111ef>'
p231
aS'<http://bio2rdf.org/drugbank_resource:d1cb83e9bff15515880f9e15f8bdc957>'
p232
aS'<http://bio2rdf.org/drugbank_resource:a73f762ea8cf789383f28463a8b4e7a7>'
p233
aS'<http://bio2rdf.org/drugbank_resource:7de8f358feb5564a0a8e45e16732464b>'
p234
aS'<http://bio2rdf.org/drugbank_resource:d86aa8df2a7f00be2c360ec724beff42>'
p235
aS'<http://bio2rdf.org/drugbank_resource:11168e1047169f5c5034d23b19c09ead>'
p236
aS'<http://bio2rdf.org/drugbank_resource:bc897473441e06dd07310521ae45dd38>'
p237
aS'<http://bio2rdf.org/drugbank_resource:72a909df7cbe7aa381c14dde2bf7cfc5>'
p238
aS'<http://bio2rdf.org/drugbank_resource:e24f7c4ac1c5b7296270f5175635a357>'
p239
aS'<http://bio2rdf.org/drugbank:BE0001468>'
p240
aS'<http://bio2rdf.org/drugbank:BE0001930>'
p241
aS'<http://bio2rdf.org/drugbank:BE0001261>'
p242
aS'<http://bio2rdf.org/drugbank:DB00900>'
p243
aS'<http://bio2rdf.org/drugbank:BE0000057>'
p244
aS'<http://bio2rdf.org/drugbank:BE0003527>'
p245
aS'<http://bio2rdf.org/drugbank:DB00369>'
p246
aS'<http://bio2rdf.org/drugbank:BE0000282>'
p247
aS'<http://bio2rdf.org/drugbank:BE0002813>'
p248
aS'<http://bio2rdf.org/drugbank:BE0001685>'
p249
aS'<http://bio2rdf.org/drugbank:DB00632>'
p250
ag32
ag33
ag54
ag55
ag56
ag86
ag87
ag88
ag89
ag90
ag126
ag127
ag128
ag129
ag130
ag165
ag166
ag167
ag168
ag169
ag200
ag201
ag202
ag203
ag204
aS'<http://bio2rdf.org/drugbank_resource:51f4ea955e20199e39200ae8f2717b5d>'
p251
aS'<http://bio2rdf.org/drugbank_resource:334a228ef3dfe692771a870afa41329c>'
p252
aS'<http://bio2rdf.org/drugbank_resource:920f159188a5763be91d3999a27798b3>'
p253
aS'<http://bio2rdf.org/drugbank_resource:2f27d4bd79b12628ec476767c0f4e030>'
p254
aS'<http://bio2rdf.org/drugbank_resource:e7efbff1e7e96879a3270d796956d8d6>'
p255
aS'<http://bio2rdf.org/drugbank_resource:78c0642412264f8ee62be60b9fd92496>'
p256
aS'<http://bio2rdf.org/drugbank_resource:4c5a18f63601fc79a778956507b27124>'
p257
aS'<http://bio2rdf.org/drugbank_resource:08f82aaa90d4ff2703b0992217214576>'
p258
aS'<http://bio2rdf.org/drugbank_resource:74f915eb3586cb9e3d342dc602990fd9>'
p259
aS'<http://bio2rdf.org/drugbank:DB00705>'
p260
aS'<http://bio2rdf.org/drugbank:DB08864>'
p261
aS'<http://bio2rdf.org/drugbank:DB00625>'
p262
aS'<http://bio2rdf.org/drugbank:DB01048>'
p263
aS'<http://bio2rdf.org/drugbank:DB00238>'
p264
aS'<http://bio2rdf.org/drugbank:DB00718>'
p265
aS'<http://bio2rdf.org/drugbank:DB00649>'
p266
aS'<http://bio2rdf.org/drugbank:DB00900>'
p267
aS'<http://bio2rdf.org/drugbank:DB00879>'
p268
aS'<http://bio2rdf.org/drugbank:DB06414>'
p269
aS'<http://bio2rdf.org/drugbank:DB04886>'
p270
aS'<http://bio2rdf.org/drugbank:DB05083>'
p271
ag34
ag35
ag57
ag58
ag59
ag91
ag92
ag93
ag94
ag95
ag131
ag132
ag133
ag134
ag36
ag37
ag60
ag61
ag62
ag96
ag97
ag98
ag99
ag100
ag135
ag136
ag137
ag138
ag139
ag170
ag171
ag172
ag173
ag174
ag205
ag206
ag207
ag208
ag209
aS'<http://bio2rdf.org/drugbank_resource:DB00495_DB01117>'
p272
aS'<http://bio2rdf.org/drugbank_resource:DB00495_DB01045>'
p273
aS'<http://bio2rdf.org/drugbank_resource:DB00068_DB00495>'
p274
aS'<http://bio2rdf.org/drugbank_resource:DB00495_DB00997>'
p275
aS'<http://bio2rdf.org/drugbank_resource:Combivir>'
p276
aS'<http://bio2rdf.org/drugbank_resource:DB00495_DB01004>'
p277
aS'<http://bio2rdf.org/drugbank_resource:DB00495_DB01004>'
p278
aS'<http://bio2rdf.org/drugbank_resource:Zidovudine>'
p279
aS'<http://bio2rdf.org/drugbank_resource:Zidovudine>'
p280
aS'<http://bio2rdf.org/drugbank_resource:Lamivudine-and-Zidovudine,>'
p281
aS'<http://bio2rdf.org/drugbank_resource:Lamivudine-and-Zidovudine,>'
p282
aS'<http://bio2rdf.org/drugbank_resource:Lamivudine-and-Zidovudine,>'
p283
ag38
ag39
ag63
ag64
ag65
ag101
ag102
ag103
ag104
ag105
ag140
ag141
ag142
ag143
ag144
ag175
ag176
ag177
ag178
ag179
ag210
ag211
ag212
ag213
ag214
aS'<http://bio2rdf.org/drugbank_resource:37b601a572c04ca9facf0834d0a6c2c9>'
p284
aS'<http://bio2rdf.org/drugbank_resource:dbaef74d523c15713978850dfbf547fd>'
p285
aS'<http://bio2rdf.org/drugbank_resource:6464ceab8ac90dccfbc0cc7ae9afeb1a>'
p286
aS'<http://bio2rdf.org/drugbank:DB00665>'
p287
aS'<http://bio2rdf.org/drugbank:DB01367>'
p288
aS'<http://bio2rdf.org/drugbank:DB04914>'
p289
aS'<http://bio2rdf.org/drugbank:DB05015>'
p290
aS'<http://bio2rdf.org/drugbank:DB05322>'
p291
asa(dp292
g13
(g14
(g16
S'\x02\x00\x00\x00\x00\x00\x00\x00'
tRp293
g18
(g19
(I0
tS'b'
tRp294
(I1
(I4
tg21
I00
S'Nr\xa2\xa3\xed:6@\xe9\x96\x91\x18W<7@\xb6\x13\x98\x16\xcb\xf95@\xa8LZ\xa5;\xa76@'
tbtp295
sS'n'
I75
sg23
I239
sg24
(lp296
g26
ag27
ag45
ag46
ag47
ag71
ag72
ag73
ag74
ag75
ag111
ag112
ag113
ag114
ag115
ag150
ag151
ag152
ag153
ag154
ag185
ag186
ag187
ag188
ag189
ag220
ag28
ag29
ag48
ag49
ag50
ag76
ag77
ag78
ag79
ag80
ag116
ag117
ag118
ag119
ag120
ag155
ag156
ag157
ag158
ag159
ag190
ag191
ag192
ag193
ag194
ag221
ag222
ag223
ag224
ag225
ag30
ag31
ag51
ag52
ag53
ag81
ag82
ag83
ag84
ag85
ag121
ag122
ag123
ag124
ag125
ag160
ag161
ag162
ag163
ag164
ag195
ag196
ag197
ag198
ag199
ag226
ag227
ag228
ag229
ag230
ag231
ag232
ag233
ag234
ag235
ag236
ag237
ag238
ag239
ag240
ag241
ag242
ag243
ag244
ag245
ag246
ag247
ag248
ag249
ag250
aS'<http://bio2rdf.org/drugbank:BE0000584>'
p297
aS'<http://bio2rdf.org/drugbank:DB05483>'
p298
aS'<http://bio2rdf.org/drugbank:DB05193>'
p299
ag32
ag33
ag54
ag55
ag56
ag86
ag87
ag88
ag89
ag90
ag126
ag127
ag128
ag129
ag130
ag165
ag166
ag167
ag168
ag169
ag200
ag201
ag202
ag203
ag204
ag251
ag252
ag253
ag254
ag255
ag256
ag257
ag258
ag259
ag260
ag261
ag262
ag263
ag264
ag265
ag266
ag267
ag268
ag269
ag270
ag271
ag34
ag35
ag57
ag58
ag59
ag91
ag92
ag93
ag94
ag95
ag131
ag132
ag133
ag134
ag36
ag37
ag60
ag61
ag62
ag96
ag97
ag98
ag99
ag100
ag135
ag136
ag137
ag138
ag139
ag170
ag171
ag172
ag173
ag174
ag205
ag206
ag207
ag208
ag209
ag272
ag273
ag274
ag275
ag276
ag277
ag278
ag279
ag280
ag281
ag282
ag283
ag38
ag39
ag63
ag64
ag65
ag101
ag102
ag103
ag104
ag105
ag140
ag141
ag142
ag143
ag144
ag175
ag176
ag177
ag178
ag179
ag210
ag211
ag212
ag213
ag214
ag284
ag285
ag286
ag287
ag288
ag289
ag290
ag291
asa(dp300
g13
(g14
(g16
S'\x02\x00\x00\x00\x00\x00\x00\x00'
tRp301
g18
(g19
(I0
tS'b'
tRp302
(I1
(I4
tg21
I00
S'Nr\xa2\xa3\xed:6@\xe9\x96\x91\x18W<7@\xb6\x13\x98\x16\xcb\xf95@\xa8LZ\xa5;\xa76@'
tbtp303
sS'n'
I100
sg23
I239
sg24
(lp304
g26
ag27
ag45
ag46
ag47
ag71
ag72
ag73
ag74
ag75
ag111
ag112
ag113
ag114
ag115
ag150
ag151
ag152
ag153
ag154
ag185
ag186
ag187
ag188
ag189
ag220
ag28
ag29
ag48
ag49
ag50
ag76
ag77
ag78
ag79
ag80
ag116
ag117
ag118
ag119
ag120
ag155
ag156
ag157
ag158
ag159
ag190
ag191
ag192
ag193
ag194
ag221
ag222
ag223
ag224
ag225
ag30
ag31
ag51
ag52
ag53
ag81
ag82
ag83
ag84
ag85
ag121
ag122
ag123
ag124
ag125
ag160
ag161
ag162
ag163
ag164
ag195
ag196
ag197
ag198
ag199
ag226
ag227
ag228
ag229
ag230
ag231
ag232
ag233
ag234
ag235
ag236
ag237
ag238
ag239
ag240
ag241
ag242
ag243
ag244
ag245
ag246
ag247
ag248
ag249
ag250
ag297
ag298
ag299
ag32
ag33
ag54
ag55
ag56
ag86
ag87
ag88
ag89
ag90
ag126
ag127
ag128
ag129
ag130
ag165
ag166
ag167
ag168
ag169
ag200
ag201
ag202
ag203
ag204
ag251
ag252
ag253
ag254
ag255
ag256
ag257
ag258
ag259
ag260
ag261
ag262
ag263
ag264
ag265
ag266
ag267
ag268
ag269
ag270
ag271
ag34
ag35
ag57
ag58
ag59
ag91
ag92
ag93
ag94
ag95
ag131
ag132
ag133
ag134
ag36
ag37
ag60
ag61
ag62
ag96
ag97
ag98
ag99
ag100
ag135
ag136
ag137
ag138
ag139
ag170
ag171
ag172
ag173
ag174
ag205
ag206
ag207
ag208
ag209
ag272
ag273
ag274
ag275
ag276
ag277
ag278
ag279
ag280
ag281
ag282
ag283
ag38
ag39
ag63
ag64
ag65
ag101
ag102
ag103
ag104
ag105
ag140
ag141
ag142
ag143
ag144
ag175
ag176
ag177
ag178
ag179
ag210
ag211
ag212
ag213
ag214
ag284
ag285
ag286
ag287
ag288
ag289
ag290
ag291
asa(dp305
g13
(g14
(g16
S'\x02\x00\x00\x00\x00\x00\x00\x00'
tRp306
g18
(g19
(I0
tS'b'
tRp307
(I1
(I4
tg21
I00
S'Nr\xa2\xa3\xed:6@\xe9\x96\x91\x18W<7@\xb6\x13\x98\x16\xcb\xf95@\xa8LZ\xa5;\xa76@'
tbtp308
sS'n'
I200
sg23
I239
sg24
(lp309
g26
ag27
ag45
ag46
ag47
ag71
ag72
ag73
ag74
ag75
ag111
ag112
ag113
ag114
ag115
ag150
ag151
ag152
ag153
ag154
ag185
ag186
ag187
ag188
ag189
ag220
ag28
ag29
ag48
ag49
ag50
ag76
ag77
ag78
ag79
ag80
ag116
ag117
ag118
ag119
ag120
ag155
ag156
ag157
ag158
ag159
ag190
ag191
ag192
ag193
ag194
ag221
ag222
ag223
ag224
ag225
ag30
ag31
ag51
ag52
ag53
ag81
ag82
ag83
ag84
ag85
ag121
ag122
ag123
ag124
ag125
ag160
ag161
ag162
ag163
ag164
ag195
ag196
ag197
ag198
ag199
ag226
ag227
ag228
ag229
ag230
ag231
ag232
ag233
ag234
ag235
ag236
ag237
ag238
ag239
ag240
ag241
ag242
ag243
ag244
ag245
ag246
ag247
ag248
ag249
ag250
ag297
ag298
ag299
ag32
ag33
ag54
ag55
ag56
ag86
ag87
ag88
ag89
ag90
ag126
ag127
ag128
ag129
ag130
ag165
ag166
ag167
ag168
ag169
ag200
ag201
ag202
ag203
ag204
ag251
ag252
ag253
ag254
ag255
ag256
ag257
ag258
ag259
ag260
ag261
ag262
ag263
ag264
ag265
ag266
ag267
ag268
ag269
ag270
ag271
ag34
ag35
ag57
ag58
ag59
ag91
ag92
ag93
ag94
ag95
ag131
ag132
ag133
ag134
ag36
ag37
ag60
ag61
ag62
ag96
ag97
ag98
ag99
ag100
ag135
ag136
ag137
ag138
ag139
ag170
ag171
ag172
ag173
ag174
ag205
ag206
ag207
ag208
ag209
ag272
ag273
ag274
ag275
ag276
ag277
ag278
ag279
ag280
ag281
ag282
ag283
ag38
ag39
ag63
ag64
ag65
ag101
ag102
ag103
ag104
ag105
ag140
ag141
ag142
ag143
ag144
ag175
ag176
ag177
ag178
ag179
ag210
ag211
ag212
ag213
ag214
ag284
ag285
ag286
ag287
ag288
ag289
ag290
ag291
asa(dp310
g13
(g14
(g16
S'\x02\x00\x00\x00\x00\x00\x00\x00'
tRp311
g18
(g19
(I0
tS'b'
tRp312
(I1
(I4
tg21
I00
S'Nr\xa2\xa3\xed:6@\xe9\x96\x91\x18W<7@\xb6\x13\x98\x16\xcb\xf95@\xa8LZ\xa5;\xa76@'
tbtp313
sS'n'
I400
sg23
I239
sg24
(lp314
g26
ag27
ag45
ag46
ag47
ag71
ag72
ag73
ag74
ag75
ag111
ag112
ag113
ag114
ag115
ag150
ag151
ag152
ag153
ag154
ag185
ag186
ag187
ag188
ag189
ag220
ag28
ag29
ag48
ag49
ag50
ag76
ag77
ag78
ag79
ag80
ag116
ag117
ag118
ag119
ag120
ag155
ag156
ag157
ag158
ag159
ag190
ag191
ag192
ag193
ag194
ag221
ag222
ag223
ag224
ag225
ag30
ag31
ag51
ag52
ag53
ag81
ag82
ag83
ag84
ag85
ag121
ag122
ag123
ag124
ag125
ag160
ag161
ag162
ag163
ag164
ag195
ag196
ag197
ag198
ag199
ag226
ag227
ag228
ag229
ag230
ag231
ag232
ag233
ag234
ag235
ag236
ag237
ag238
ag239
ag240
ag241
ag242
ag243
ag244
ag245
ag246
ag247
ag248
ag249
ag250
ag297
ag298
ag299
ag32
ag33
ag54
ag55
ag56
ag86
ag87
ag88
ag89
ag90
ag126
ag127
ag128
ag129
ag130
ag165
ag166
ag167
ag168
ag169
ag200
ag201
ag202
ag203
ag204
ag251
ag252
ag253
ag254
ag255
ag256
ag257
ag258
ag259
ag260
ag261
ag262
ag263
ag264
ag265
ag266
ag267
ag268
ag269
ag270
ag271
ag34
ag35
ag57
ag58
ag59
ag91
ag92
ag93
ag94
ag95
ag131
ag132
ag133
ag134
ag36
ag37
ag60
ag61
ag62
ag96
ag97
ag98
ag99
ag100
ag135
ag136
ag137
ag138
ag139
ag170
ag171
ag172
ag173
ag174
ag205
ag206
ag207
ag208
ag209
ag272
ag273
ag274
ag275
ag276
ag277
ag278
ag279
ag280
ag281
ag282
ag283
ag38
ag39
ag63
ag64
ag65
ag101
ag102
ag103
ag104
ag105
ag140
ag141
ag142
ag143
ag144
ag175
ag176
ag177
ag178
ag179
ag210
ag211
ag212
ag213
ag214
ag284
ag285
ag286
ag287
ag288
ag289
ag290
ag291
asa(dp315
g13
(g14
(g16
S'\x02\x00\x00\x00\x00\x00\x00\x00'
tRp316
g18
(g19
(I0
tS'b'
tRp317
(I1
(I4
tg21
I00
S'Nr\xa2\xa3\xed:6@\xe9\x96\x91\x18W<7@\xb6\x13\x98\x16\xcb\xf95@\xa8LZ\xa5;\xa76@'
tbtp318
sS'n'
I700
sg23
I239
sg24
(lp319
g26
ag27
ag45
ag46
ag47
ag71
ag72
ag73
ag74
ag75
ag111
ag112
ag113
ag114
ag115
ag150
ag151
ag152
ag153
ag154
ag185
ag186
ag187
ag188
ag189
ag220
ag28
ag29
ag48
ag49
ag50
ag76
ag77
ag78
ag79
ag80
ag116
ag117
ag118
ag119
ag120
ag155
ag156
ag157
ag158
ag159
ag190
ag191
ag192
ag193
ag194
ag221
ag222
ag223
ag224
ag225
ag30
ag31
ag51
ag52
ag53
ag81
ag82
ag83
ag84
ag85
ag121
ag122
ag123
ag124
ag125
ag160
ag161
ag162
ag163
ag164
ag195
ag196
ag197
ag198
ag199
ag226
ag227
ag228
ag229
ag230
ag231
ag232
ag233
ag234
ag235
ag236
ag237
ag238
ag239
ag240
ag241
ag242
ag243
ag244
ag245
ag246
ag247
ag248
ag249
ag250
ag297
ag298
ag299
ag32
ag33
ag54
ag55
ag56
ag86
ag87
ag88
ag89
ag90
ag126
ag127
ag128
ag129
ag130
ag165
ag166
ag167
ag168
ag169
ag200
ag201
ag202
ag203
ag204
ag251
ag252
ag253
ag254
ag255
ag256
ag257
ag258
ag259
ag260
ag261
ag262
ag263
ag264
ag265
ag266
ag267
ag268
ag269
ag270
ag271
ag34
ag35
ag57
ag58
ag59
ag91
ag92
ag93
ag94
ag95
ag131
ag132
ag133
ag134
ag36
ag37
ag60
ag61
ag62
ag96
ag97
ag98
ag99
ag100
ag135
ag136
ag137
ag138
ag139
ag170
ag171
ag172
ag173
ag174
ag205
ag206
ag207
ag208
ag209
ag272
ag273
ag274
ag275
ag276
ag277
ag278
ag279
ag280
ag281
ag282
ag283
ag38
ag39
ag63
ag64
ag65
ag101
ag102
ag103
ag104
ag105
ag140
ag141
ag142
ag143
ag144
ag175
ag176
ag177
ag178
ag179
ag210
ag211
ag212
ag213
ag214
ag284
ag285
ag286
ag287
ag288
ag289
ag290
ag291
asa(dp320
g13
(g14
(g16
S'\x02\x00\x00\x00\x00\x00\x00\x00'
tRp321
g18
(g19
(I0
tS'b'
tRp322
(I1
(I4
tg21
I00
S'Nr\xa2\xa3\xed:6@\xe9\x96\x91\x18W<7@\xb6\x13\x98\x16\xcb\xf95@\xa8LZ\xa5;\xa76@'
tbtp323
sS'n'
I1000
sg23
I239
sg24
(lp324
g26
ag27
ag45
ag46
ag47
ag71
ag72
ag73
ag74
ag75
ag111
ag112
ag113
ag114
ag115
ag150
ag151
ag152
ag153
ag154
ag185
ag186
ag187
ag188
ag189
ag220
ag28
ag29
ag48
ag49
ag50
ag76
ag77
ag78
ag79
ag80
ag116
ag117
ag118
ag119
ag120
ag155
ag156
ag157
ag158
ag159
ag190
ag191
ag192
ag193
ag194
ag221
ag222
ag223
ag224
ag225
ag30
ag31
ag51
ag52
ag53
ag81
ag82
ag83
ag84
ag85
ag121
ag122
ag123
ag124
ag125
ag160
ag161
ag162
ag163
ag164
ag195
ag196
ag197
ag198
ag199
ag226
ag227
ag228
ag229
ag230
ag231
ag232
ag233
ag234
ag235
ag236
ag237
ag238
ag239
ag240
ag241
ag242
ag243
ag244
ag245
ag246
ag247
ag248
ag249
ag250
ag297
ag298
ag299
ag32
ag33
ag54
ag55
ag56
ag86
ag87
ag88
ag89
ag90
ag126
ag127
ag128
ag129
ag130
ag165
ag166
ag167
ag168
ag169
ag200
ag201
ag202
ag203
ag204
ag251
ag252
ag253
ag254
ag255
ag256
ag257
ag258
ag259
ag260
ag261
ag262
ag263
ag264
ag265
ag266
ag267
ag268
ag269
ag270
ag271
ag34
ag35
ag57
ag58
ag59
ag91
ag92
ag93
ag94
ag95
ag131
ag132
ag133
ag134
ag36
ag37
ag60
ag61
ag62
ag96
ag97
ag98
ag99
ag100
ag135
ag136
ag137
ag138
ag139
ag170
ag171
ag172
ag173
ag174
ag205
ag206
ag207
ag208
ag209
ag272
ag273
ag274
ag275
ag276
ag277
ag278
ag279
ag280
ag281
ag282
ag283
ag38
ag39
ag63
ag64
ag65
ag101
ag102
ag103
ag104
ag105
ag140
ag141
ag142
ag143
ag144
ag175
ag176
ag177
ag178
ag179
ag210
ag211
ag212
ag213
ag214
ag284
ag285
ag286
ag287
ag288
ag289
ag290
ag291
asa(dp325
g13
(g14
(g16
S'\x02\x00\x00\x00\x00\x00\x00\x00'
tRp326
g18
(g19
(I0
tS'b'
tRp327
(I1
(I4
tg21
I00
S'Nr\xa2\xa3\xed:6@\xe9\x96\x91\x18W<7@\xb6\x13\x98\x16\xcb\xf95@\xa8LZ\xa5;\xa76@'
tbtp328
sS'n'
I1500
sg23
I239
sg24
(lp329
g26
ag27
ag45
ag46
ag47
ag71
ag72
ag73
ag74
ag75
ag111
ag112
ag113
ag114
ag115
ag150
ag151
ag152
ag153
ag154
ag185
ag186
ag187
ag188
ag189
ag220
ag28
ag29
ag48
ag49
ag50
ag76
ag77
ag78
ag79
ag80
ag116
ag117
ag118
ag119
ag120
ag155
ag156
ag157
ag158
ag159
ag190
ag191
ag192
ag193
ag194
ag221
ag222
ag223
ag224
ag225
ag30
ag31
ag51
ag52
ag53
ag81
ag82
ag83
ag84
ag85
ag121
ag122
ag123
ag124
ag125
ag160
ag161
ag162
ag163
ag164
ag195
ag196
ag197
ag198
ag199
ag226
ag227
ag228
ag229
ag230
ag231
ag232
ag233
ag234
ag235
ag236
ag237
ag238
ag239
ag240
ag241
ag242
ag243
ag244
ag245
ag246
ag247
ag248
ag249
ag250
ag297
ag298
ag299
ag32
ag33
ag54
ag55
ag56
ag86
ag87
ag88
ag89
ag90
ag126
ag127
ag128
ag129
ag130
ag165
ag166
ag167
ag168
ag169
ag200
ag201
ag202
ag203
ag204
ag251
ag252
ag253
ag254
ag255
ag256
ag257
ag258
ag259
ag260
ag261
ag262
ag263
ag264
ag265
ag266
ag267
ag268
ag269
ag270
ag271
ag34
ag35
ag57
ag58
ag59
ag91
ag92
ag93
ag94
ag95
ag131
ag132
ag133
ag134
ag36
ag37
ag60
ag61
ag62
ag96
ag97
ag98
ag99
ag100
ag135
ag136
ag137
ag138
ag139
ag170
ag171
ag172
ag173
ag174
ag205
ag206
ag207
ag208
ag209
ag272
ag273
ag274
ag275
ag276
ag277
ag278
ag279
ag280
ag281
ag282
ag283
ag38
ag39
ag63
ag64
ag65
ag101
ag102
ag103
ag104
ag105
ag140
ag141
ag142
ag143
ag144
ag175
ag176
ag177
ag178
ag179
ag210
ag211
ag212
ag213
ag214
ag284
ag285
ag286
ag287
ag288
ag289
ag290
ag291
asasS'summary'
p330
S'Degree-based weights and average-median qa weights'
p331
sS'trials'
p332
(lp333
I2
aI5
aI10
aI15
aI20
aI25
aI50
aI75
aI100
aI200
aI400
aI700
aI1000
aI1500
asS'q_text_entities'
p334
(lp335
S'deoxyadenosine'
p336
aS'active triphosphate'
p337
aS'viral replication'
p338
aS'HIV reverse transcriptase'
p339
aS'chain termination'
p340
aS'zidovudine'
p341
aS'monotherapy'
p342
aS'dose-dependent pancreatitis'
p343
asS'weights'
p344
S'deg_weight'
p345
sS'graph'
p346
S'drugbank-ext-v2.graphml'
p347
sS'date'
p348
S'2014/07/16 01:40'
p349
sS'correct'
p350
I2
sS'ans_text_entities'
p351
(lp352
(lp353
S'zalcitabine'
p354
aa(lp355
S'trifluridine'
p356
aa(lp357
S'didanosine'
p358
aa(lp359
S'foscarnet'
p360
aas.