(dp1
S'expid'
p2
S'e3-q6'
p3
sS'description'
p4
S"\n        The four multiple choice answers are all medicines that are all present in Drugbank. \n        They can be found using `qa.find_drugbank_entity`. \n        The question text, on the other hand, does not contain entities in Drugbank. \n        However, some entities might have entities from the question text in their description. \n        So we try to identify relevant drugbank entities by doing a full-text search over drugbank \n        (using Virtuoso's built-in Precision Search). \n        Clearly, this representation is not perfect: if we select only a few entities, \n        which are actually unrelated, a good result seems implausible. \n        So we examine this: **what is the (very rough) effect of the number of \n        entities we pick from the ranked full-text search results?**\n        "
p5
sS'qid'
p6
S'Q121#5'
p7
sS'qa_dist_fn'
p8
S'avg_med_qa_dist'
p9
sS'results'
p10
(lp11
(dp12
S'output'
p13
(cnumpy.core.multiarray
scalar
p14
(cnumpy
dtype
p15
(S'i8'
I0
I1
tRp16
(I3
S'<'
NNNI-1
I-1
I0
tbS'\x00\x00\x00\x00\x00\x00\x00\x00'
tRp17
cnumpy.core.multiarray
_reconstruct
p18
(cnumpy
ndarray
p19
(I0
tS'b'
tRp20
(I1
(I4
tg15
(S'f8'
I0
I1
tRp21
(I3
S'<'
NNNI-1
I-1
I0
tbI00
S'\xeb5\x83\xca\xa7\xf56@\xff\xb8C\x95IS7@\x80%\x11\x0fy\xad7@FP\xfc\x18sG;@'
tbtp22
sS'n'
I2
sS'q_len'
p23
I14
sS'q_entities'
p24
(lp25
S'<http://bio2rdf.org/drugbank_resource:a112e462608dc185f06af7d79993eea4>'
p26
aS'<http://bio2rdf.org/drugbank_resource:ac59c8ead6fd2d7cf48e494210df9d31>'
p27
aS'<http://bio2rdf.org/drugbank_resource:df2dae8a66a1619f0d81120a84119690>'
p28
aS'<http://bio2rdf.org/drugbank_resource:75aece3736e30cfcdaea37ee01ffaf0d>'
p29
aS'<http://bio2rdf.org/drugbank_resource:515388f8e80c9fd57b2440e55cf21194>'
p30
aS'<http://bio2rdf.org/drugbank_resource:8739b9a4b6e21dbd59226dd1a794cf31>'
p31
aS'<http://bio2rdf.org/drugbank_resource:27524f850c4a29f71043046d4d69f4f6>'
p32
aS'<http://bio2rdf.org/drugbank_resource:e38ddd927b3ec1308c2bca1cd4eeb8d1>'
p33
aS'<http://bio2rdf.org/drugbank_resource:b6e49069b3e39b22a03227631c16f227>'
p34
aS'<http://bio2rdf.org/drugbank_resource:b5148917dd0ba26f921fc8d5d9526b33>'
p35
aS'<http://bio2rdf.org/drugbank_resource:7c3a178340714b6330c61dde5efdbdbe>'
p36
aS'<http://bio2rdf.org/drugbank_resource:99fc1f444fee76b2bfb46c98fb05e208>'
p37
aS'<http://bio2rdf.org/drugbank_vocabulary:Antihypertensive-Agents>'
p38
aS'<http://bio2rdf.org/drugbank_vocabulary:Antihypertensive-Agents>'
p39
asa(dp40
g13
(g14
(g16
S'\x00\x00\x00\x00\x00\x00\x00\x00'
tRp41
g18
(g19
(I0
tS'b'
tRp42
(I1
(I4
tg21
I00
S'\x14\xf7T\x82\xc6o7@RM\x15\x8b\xac78@\x00\xa0\xc0\xa2\xf1<8@\xd7jB(T\x10;@'
tbtp43
sS'n'
I5
sg23
I33
sg24
(lp44
g26
ag27
aS'<http://bio2rdf.org/drugbank_resource:593e8ee6e79ff466e1340a68132240cb>'
p45
aS'<http://bio2rdf.org/drugbank_resource:396b7c251892da59b71667600ecee114>'
p46
aS'<http://bio2rdf.org/drugbank_resource:7ca87c549ba01586381163d1e2a61c86>'
p47
ag28
ag29
aS'<http://bio2rdf.org/drugbank_resource:a0614b522dc02657caa3f02738f992d6>'
p48
ag30
ag31
aS'<http://bio2rdf.org/drugbank_resource:6e60997d3fc71dc831fd67e0fbdd15d9>'
p49
aS'<http://bio2rdf.org/drugbank_resource:e1322c4847b4c6b1c54575991a554ac4>'
p50
aS'<http://bio2rdf.org/drugbank_resource:73668ef550de6539613a2889902dbf73>'
p51
ag32
ag33
aS'<http://bio2rdf.org/drugbank_resource:c2d3df46720da58b991ac382630f744c>'
p52
aS'<http://bio2rdf.org/drugbank_resource:3c48a354a54319aa285e08c8b919c580>'
p53
aS'<http://bio2rdf.org/drugbank_resource:1c54727b6a9a48b74b53723fbee43d80>'
p54
ag34
ag35
aS'<http://bio2rdf.org/drugbank_resource:11168e1047169f5c5034d23b19c09ead>'
p55
aS'<http://bio2rdf.org/drugbank_resource:57b70cb0332c5d3c317d2268dd1233d6>'
p56
aS'<http://bio2rdf.org/drugbank_resource:e24f7c4ac1c5b7296270f5175635a357>'
p57
ag36
ag37
aS'<http://bio2rdf.org/drugbank_resource:b8aa593aa534794a6c1230548cf41e08>'
p58
aS'<http://bio2rdf.org/drugbank_resource:90736d5f791d2c2b2fa6be2f2eddd863>'
p59
aS'<http://bio2rdf.org/drugbank_resource:e75d6dccef0b1d442bfd35b1b07a6cef>'
p60
ag38
ag39
aS'<http://bio2rdf.org/drugbank_vocabulary:Antihypertensive-Agents>'
p61
aS'<http://bio2rdf.org/drugbank_vocabulary:Antihypertensive-Agents>'
p62
aS'<http://bio2rdf.org/drugbank_vocabulary:Antihypertensive-Agents>'
p63
asa(dp64
g13
(g14
(g16
S'\x00\x00\x00\x00\x00\x00\x00\x00'
tRp65
g18
(g19
(I0
tS'b'
tRp66
(I1
(I4
tg21
I00
S'\xb6\x8eUIf17@=Yl\x8f\xe6\x987@0\xa8=\x17)\xe57@emk\x14\x80\xda9@'
tbtp67
sS'n'
I10
sg23
I61
sg24
(lp68
g26
ag27
ag45
ag46
ag47
aS'<http://bio2rdf.org/drugbank_resource:ccd7545b3e2fec46e1aba4c860b1e389>'
p69
aS'<http://bio2rdf.org/drugbank_resource:ba93eb53760e0f2b0031dfbbc5e0f729>'
p70
aS'<http://bio2rdf.org/drugbank_resource:3df21199b466a1cc75203f78c39b6271>'
p71
aS'<http://bio2rdf.org/drugbank_resource:c21339503a4270fa74737b66d5bf1366>'
p72
aS'<http://bio2rdf.org/drugbank_resource:a3918cc041d9d8b371f095ae4c9eebd4>'
p73
ag28
ag29
ag48
ag30
ag31
ag49
ag50
ag51
aS'<http://bio2rdf.org/drugbank_resource:b617b246f7807a11a1ce84e932c88537>'
p74
aS'<http://bio2rdf.org/drugbank:DB00478>'
p75
aS'<http://bio2rdf.org/drugbank_resource:4c5a18f63601fc79a778956507b27124>'
p76
aS'<http://bio2rdf.org/drugbank_resource:c2a6dc20bf727441700621bf5b76431e>'
p77
aS'<http://bio2rdf.org/drugbank_resource:ab2302a52e34fd319b8fb407e9233b89>'
p78
ag32
ag33
ag52
ag53
ag54
aS'<http://bio2rdf.org/drugbank:DB00432>'
p79
aS'<http://bio2rdf.org/drugbank:DB05370>'
p80
aS'<http://bio2rdf.org/drugbank:DB00840>'
p81
ag34
ag35
ag55
ag56
ag57
aS'<http://bio2rdf.org/drugbank_resource:bc897473441e06dd07310521ae45dd38>'
p82
aS'<http://bio2rdf.org/drugbank_resource:d86aa8df2a7f00be2c360ec724beff42>'
p83
aS'<http://bio2rdf.org/drugbank_resource:32dc7fd32146dc55e4bb7ae8c80111ef>'
p84
aS'<http://bio2rdf.org/drugbank_resource:9d9aff577549d959cbdb935abe34bee0>'
p85
aS'<http://bio2rdf.org/drugbank_resource:0a61abac69324cb6158a2af2f5941c84>'
p86
ag36
ag37
ag58
ag59
ag60
aS'<http://bio2rdf.org/drugbank_resource:95ab1b5abb9a3e7ce18f5876f4420c54>'
p87
aS'<http://bio2rdf.org/drugbank_resource:17a46c07cf163e99bdfc71b319b7e5b2>'
p88
aS'<http://bio2rdf.org/drugbank_resource:4321b0e588a071a285a0894233fb4818>'
p89
aS'<http://bio2rdf.org/drugbank_resource:488a38d3ab5f61e2dfc0364ad688014e>'
p90
aS'<http://bio2rdf.org/drugbank:DB08869>'
p91
ag38
ag39
ag61
ag62
ag63
aS'<http://bio2rdf.org/drugbank:DB00622>'
p92
aS'<http://bio2rdf.org/drugbank:DB01054>'
p93
aS'<http://bio2rdf.org/drugbank:DB01244>'
p94
aS'<http://bio2rdf.org/drugbank_resource:4eec8a1d53f93a2f22a59af87ad2b861>'
p95
aS'<http://bio2rdf.org/drugbank_resource:43acffd9abcc94d57ef8b28570255ac8>'
p96
asa(dp97
g13
(g14
(g16
S'\x01\x00\x00\x00\x00\x00\x00\x00'
tRp98
g18
(g19
(I0
tS'b'
tRp99
(I1
(I4
tg21
I00
S'\x06\xc7\x1a3\x07s7@@@k\xb4\xd4O7@dT\x9b\xcd\x8e%8@0\x88L\\\x1d\xbe9@'
tbtp100
sS'n'
I15
sg23
I84
sg24
(lp101
g26
ag27
ag45
ag46
ag47
ag69
ag70
ag71
ag72
ag73
aS'<http://bio2rdf.org/drugbank_resource:4ad41c99fc1549e04d37f76771680d18>'
p102
aS'<http://bio2rdf.org/drugbank_resource:4ad6a18a246dd57ce40f067e634c5c5a>'
p103
aS'<http://bio2rdf.org/drugbank_resource:d101d5ad45bc972c41338853510c387f>'
p104
aS'<http://bio2rdf.org/drugbank_resource:62d40bf776fe7f42fbd5514cdea0c38d>'
p105
aS'<http://bio2rdf.org/drugbank_resource:e3b5379ef00e8416602edb2a1314c7cf>'
p106
ag28
ag29
ag48
ag30
ag31
ag49
ag50
ag51
ag74
ag75
ag76
ag77
ag78
aS'<http://bio2rdf.org/drugbank_resource:2fd6ab4b4f299529c056169e49af293d>'
p107
aS'<http://bio2rdf.org/drugbank:DB02823>'
p108
aS'<http://bio2rdf.org/drugbank_resource:d82d0f443581d4f7d1905058dcb4d00e>'
p109
aS'<http://bio2rdf.org/drugbank:DB08831>'
p110
aS'<http://bio2rdf.org/drugbank_resource:9419765f866da7481fa03a5523e87160>'
p111
ag32
ag33
ag52
ag53
ag54
ag79
ag80
ag81
ag34
ag35
ag55
ag56
ag57
ag82
ag83
ag84
ag85
ag86
aS'<http://bio2rdf.org/drugbank_resource:7fe545cfba3654647aeb9bbe80fe5c29>'
p112
aS'<http://bio2rdf.org/drugbank_resource:3ac0d2a1a6f90bb06b44a128c5f644dd>'
p113
aS'<http://bio2rdf.org/drugbank_resource:d9ea663823ba777b61d6178c216ba28d>'
p114
aS'<http://bio2rdf.org/drugbank_resource:b9c39a93311e73f29c13f1edfef52839>'
p115
aS'<http://bio2rdf.org/drugbank_resource:2fd6ab4b4f299529c056169e49af293d>'
p116
ag36
ag37
ag58
ag59
ag60
ag87
ag88
ag89
ag90
ag91
aS'<http://bio2rdf.org/drugbank_resource:0d2a44da2b2f6a574547df98e127ee50>'
p117
aS'<http://bio2rdf.org/drugbank_resource:e3366f1e91e29ba801a886a2be9dad64>'
p118
aS'<http://bio2rdf.org/drugbank_resource:5f3be7b16495ba58cfb6e691478c9ea5>'
p119
ag38
ag39
ag61
ag62
ag63
ag92
ag93
ag94
ag95
ag96
aS'<http://bio2rdf.org/drugbank_resource:f3207eabdc64a2dbbaf9ed45b5e9fc41>'
p120
aS'<http://bio2rdf.org/drugbank_resource:dd727d027bb26d173be7d4cef20e5fbc>'
p121
aS'<http://bio2rdf.org/drugbank_resource:08ec4557f07d559641a852e9f8149d74>'
p122
aS'<http://bio2rdf.org/drugbank_resource:0d5dd7e0f457e18bc1e194ada27bb711>'
p123
aS'<http://bio2rdf.org/drugbank_resource:55d5f3df2fa62407e66884467ddf0390>'
p124
asa(dp125
g13
(g14
(g16
S'\x01\x00\x00\x00\x00\x00\x00\x00'
tRp126
g18
(g19
(I0
tS'b'
tRp127
(I1
(I4
tg21
I00
S'\xa0\xa7&Uda7@\xe0\x81[4\x91\x1c7@\x11<\xdf\x0c+\xff7@r\xdb\xd8T}\x919@'
tbtp128
sS'n'
I20
sg23
I100
sg24
(lp129
g26
ag27
ag45
ag46
ag47
ag69
ag70
ag71
ag72
ag73
ag102
ag103
ag104
ag105
ag106
aS'<http://bio2rdf.org/drugbank:DB05387>'
p130
ag28
ag29
ag48
ag30
ag31
ag49
ag50
ag51
ag74
ag75
ag76
ag77
ag78
ag107
ag108
ag109
ag110
ag111
aS'<http://bio2rdf.org/drugbank_resource:e064b83b901106207c6d0edbee634798>'
p131
aS'<http://bio2rdf.org/drugbank:DB00811>'
p132
aS'<http://bio2rdf.org/drugbank:DB00529>'
p133
aS'<http://bio2rdf.org/drugbank:DB00915>'
p134
aS'<http://bio2rdf.org/drugbank:DB00987>'
p135
ag32
ag33
ag52
ag53
ag54
ag79
ag80
ag81
ag34
ag35
ag55
ag56
ag57
ag82
ag83
ag84
ag85
ag86
ag112
ag113
ag114
ag115
ag116
aS'<http://bio2rdf.org/drugbank:BE0001541>'
p136
aS'<http://bio2rdf.org/drugbank:DB00632>'
p137
aS'<http://bio2rdf.org/drugbank:DB05811>'
p138
aS'<http://bio2rdf.org/drugbank:DB05811>'
p139
aS'<http://bio2rdf.org/drugbank:DB05811>'
p140
ag36
ag37
ag58
ag59
ag60
ag87
ag88
ag89
ag90
ag91
ag117
ag118
ag119
ag38
ag39
ag61
ag62
ag63
ag92
ag93
ag94
ag95
ag96
ag120
ag121
ag122
ag123
ag124
aS'<http://bio2rdf.org/drugbank_resource:81ae6685028fb307b37fb9f4e8b50810>'
p141
aS'<http://bio2rdf.org/drugbank_resource:704e29893916a46f6644b93bee94b5ff>'
p142
aS'<http://bio2rdf.org/drugbank_resource:5f08192b75d470e5fc7a564e3853dc02>'
p143
aS'<http://bio2rdf.org/drugbank_resource:074fba1330eef367813e19c20ce45379>'
p144
aS'<http://bio2rdf.org/drugbank:DB01180>'
p145
asa(dp146
g13
(g14
(g16
S'\x01\x00\x00\x00\x00\x00\x00\x00'
tRp147
g18
(g19
(I0
tS'b'
tRp148
(I1
(I4
tg21
I00
S'\xd3\xe9\xec\x89-e7@$X\x10\x1eH?7@\xf1Q\xa2=N\x168@\xe6\x9d\xd0g\x85\xaa9@'
tbtp149
sS'n'
I25
sg23
I110
sg24
(lp150
g26
ag27
ag45
ag46
ag47
ag69
ag70
ag71
ag72
ag73
ag102
ag103
ag104
ag105
ag106
ag130
ag28
ag29
ag48
ag30
ag31
ag49
ag50
ag51
ag74
ag75
ag76
ag77
ag78
ag107
ag108
ag109
ag110
ag111
ag131
ag132
ag133
ag134
ag135
aS'<http://bio2rdf.org/drugbank:DB06151>'
p151
aS'<http://bio2rdf.org/drugbank_resource:DB00404_DB00625>'
p152
aS'<http://bio2rdf.org/drugbank_resource:DB00404_DB00705>'
p153
aS'<http://bio2rdf.org/drugbank_resource:DB00625_DB00897>'
p154
aS'<http://bio2rdf.org/drugbank_resource:DB00625_DB00683>'
p155
ag32
ag33
ag52
ag53
ag54
ag79
ag80
ag81
ag34
ag35
ag55
ag56
ag57
ag82
ag83
ag84
ag85
ag86
ag112
ag113
ag114
ag115
ag116
ag136
ag137
ag138
ag139
ag140
ag36
ag37
ag58
ag59
ag60
ag87
ag88
ag89
ag90
ag91
ag117
ag118
ag119
ag38
ag39
ag61
ag62
ag63
ag92
ag93
ag94
ag95
ag96
ag120
ag121
ag122
ag123
ag124
ag141
ag142
ag143
ag144
ag145
aS'<http://bio2rdf.org/drugbank_resource:f279d027bd5d680374fae6ddbc5b5ab9>'
p156
aS'<http://bio2rdf.org/drugbank_resource:4c8f89fe1cd307779aff11b7fb7b15b8>'
p157
aS'<http://bio2rdf.org/drugbank_resource:23ddaba4f4fdf3f325735fa73db9cf07>'
p158
aS'<http://bio2rdf.org/drugbank_resource:d9babcca79e4aea2a9be1482dc15f886>'
p159
aS'<http://bio2rdf.org/drugbank_resource:afaff38f7d2a9e813435ff2fc71757f0>'
p160
asa(dp161
g13
(g14
(g16
S'\x00\x00\x00\x00\x00\x00\x00\x00'
tRp162
g18
(g19
(I0
tS'b'
tRp163
(I1
(I4
tg21
I00
S"\xf5\x88\xe5\xe3'57@K\xa4\x90\xc0{v7@\x95\xa5Au\x17\n8@\xdb\xe0Xd\x88\xb99@"
tbtp164
sS'n'
I50
sg23
I150
sg24
(lp165
g26
ag27
ag45
ag46
ag47
ag69
ag70
ag71
ag72
ag73
ag102
ag103
ag104
ag105
ag106
ag130
ag28
ag29
ag48
ag30
ag31
ag49
ag50
ag51
ag74
ag75
ag76
ag77
ag78
ag107
ag108
ag109
ag110
ag111
ag131
ag132
ag133
ag134
ag135
ag151
ag152
ag153
ag154
ag155
aS'<http://bio2rdf.org/drugbank_resource:DB00705_DB00897>'
p166
aS'<http://bio2rdf.org/drugbank_resource:DB00683_DB00705>'
p167
aS'<http://bio2rdf.org/drugbank_resource:DB00900_DB01004>'
p168
aS'<http://bio2rdf.org/drugbank_resource:DB00404_DB00705>'
p169
aS'<http://bio2rdf.org/drugbank_resource:DB00404_DB00625>'
p170
aS'<http://bio2rdf.org/drugbank_resource:DB00625_DB00897>'
p171
aS'<http://bio2rdf.org/drugbank_resource:DB00625_DB00683>'
p172
aS'<http://bio2rdf.org/drugbank_resource:DB00705_DB00897>'
p173
aS'<http://bio2rdf.org/drugbank_resource:DB00683_DB00705>'
p174
aS'<http://bio2rdf.org/drugbank_resource:DB00900_DB01004>'
p175
aS'<http://bio2rdf.org/drugbank:DB00249>'
p176
aS'<http://bio2rdf.org/drugbank:DB00707>'
p177
aS'<http://bio2rdf.org/drugbank:DB00105>'
p178
aS'<http://bio2rdf.org/drugbank:DB00034>'
p179
aS'<http://bio2rdf.org/drugbank:DB05176>'
p180
ag32
ag33
ag52
ag53
ag54
ag79
ag80
ag81
ag34
ag35
ag55
ag56
ag57
ag82
ag83
ag84
ag85
ag86
ag112
ag113
ag114
ag115
ag116
ag136
ag137
ag138
ag139
ag140
ag36
ag37
ag58
ag59
ag60
ag87
ag88
ag89
ag90
ag91
ag117
ag118
ag119
ag38
ag39
ag61
ag62
ag63
ag92
ag93
ag94
ag95
ag96
ag120
ag121
ag122
ag123
ag124
ag141
ag142
ag143
ag144
ag145
ag156
ag157
ag158
ag159
ag160
aS'<http://bio2rdf.org/drugbank_resource:aa0041b5f83ff6c1c636c3b4b567a786>'
p181
aS'<http://bio2rdf.org/drugbank_resource:1f89bd8aff1b81fca39dc07e9cc8127b>'
p182
aS'<http://bio2rdf.org/drugbank_resource:dd6570002a90956db0339d46fb775ea4>'
p183
aS'<http://bio2rdf.org/drugbank:DB01342>'
p184
aS'<http://bio2rdf.org/drugbank_resource:fc84216811a27a270d96e86d3ca60470>'
p185
aS'<http://bio2rdf.org/drugbank_resource:5c89e061fb3d04ca247827a6673530bc>'
p186
aS'<http://bio2rdf.org/drugbank_resource:dfd03cd339d86fde0cb8db41bc9af965>'
p187
aS'<http://bio2rdf.org/drugbank:DB01089>'
p188
aS'<http://bio2rdf.org/drugbank_resource:2a35712b1ad3d12dad7ace99e9aa96ce>'
p189
aS'<http://bio2rdf.org/drugbank_resource:c529b8304f04bcaf40c2c9a831e7c160>'
p190
aS'<http://bio2rdf.org/drugbank_resource:6800dd8fdaea5b6ca29aa9afc1a6eb39>'
p191
aS'<http://bio2rdf.org/drugbank_resource:133fd7de75b9278bf710d7dc68a19bcc>'
p192
aS'<http://bio2rdf.org/drugbank_resource:d031dd8350b40be8085a2cd9bdaca344>'
p193
aS'<http://bio2rdf.org/drugbank_resource:32337b11ec454f045ec27c069cc80fd0>'
p194
aS'<http://bio2rdf.org/drugbank_resource:e241e20e961a2056047efd31b0d7a763>'
p195
aS'<http://bio2rdf.org/drugbank_resource:2e7cc5062d9daa52291fb3f4d58a9121>'
p196
aS'<http://bio2rdf.org/drugbank_resource:e83ed156901fa72e00d38fe8ff8b8780>'
p197
aS'<http://bio2rdf.org/drugbank_resource:067055e2d7fc4aea9df8aa2fecea3f04>'
p198
aS'<http://bio2rdf.org/drugbank_resource:f104446b9f43695d63f4b4758d6ec57c>'
p199
aS'<http://bio2rdf.org/drugbank_resource:ab66c2051c8dc396b12ec46325d8d736>'
p200
aS'<http://bio2rdf.org/drugbank_resource:f6e09d48403bc65ac0b1fab3a85fb888>'
p201
aS'<http://bio2rdf.org/drugbank_resource:a498fa20e37a78af9697e244db4d70fe>'
p202
aS'<http://bio2rdf.org/drugbank_resource:d90bc3dcf12ef6dec30b9635204f17d6>'
p203
aS'<http://bio2rdf.org/drugbank_resource:f2a561f6b80747ed01b9e45a0fd7263c>'
p204
aS'<http://bio2rdf.org/drugbank_resource:33de50389a8636424ce4fcd8737f301c>'
p205
asa(dp206
g13
(g14
(g16
S'\x00\x00\x00\x00\x00\x00\x00\x00'
tRp207
g18
(g19
(I0
tS'b'
tRp208
(I1
(I4
tg21
I00
S'\xda\x85\xef\x82\x9c\xcf6@\\$\x99\r/y7@\xf2D2\xc4\xa5\xee7@\xdbjt=a\xcb9@'
tbtp209
sS'n'
I75
sg23
I175
sg24
(lp210
g26
ag27
ag45
ag46
ag47
ag69
ag70
ag71
ag72
ag73
ag102
ag103
ag104
ag105
ag106
ag130
ag28
ag29
ag48
ag30
ag31
ag49
ag50
ag51
ag74
ag75
ag76
ag77
ag78
ag107
ag108
ag109
ag110
ag111
ag131
ag132
ag133
ag134
ag135
ag151
ag152
ag153
ag154
ag155
ag166
ag167
ag168
ag169
ag170
ag171
ag172
ag173
ag174
ag175
ag176
ag177
ag178
ag179
ag180
ag32
ag33
ag52
ag53
ag54
ag79
ag80
ag81
ag34
ag35
ag55
ag56
ag57
ag82
ag83
ag84
ag85
ag86
ag112
ag113
ag114
ag115
ag116
ag136
ag137
ag138
ag139
ag140
ag36
ag37
ag58
ag59
ag60
ag87
ag88
ag89
ag90
ag91
ag117
ag118
ag119
ag38
ag39
ag61
ag62
ag63
ag92
ag93
ag94
ag95
ag96
ag120
ag121
ag122
ag123
ag124
ag141
ag142
ag143
ag144
ag145
ag156
ag157
ag158
ag159
ag160
ag181
ag182
ag183
ag184
ag185
ag186
ag187
ag188
ag189
ag190
ag191
ag192
ag193
ag194
ag195
ag196
ag197
ag198
ag199
ag200
ag201
ag202
ag203
ag204
ag205
aS'<http://bio2rdf.org/drugbank_resource:54f313233364eb8e85fe68a24e17bf44>'
p211
aS'<http://bio2rdf.org/drugbank_resource:236ca982179c37228149c68985e4efdb>'
p212
aS'<http://bio2rdf.org/drugbank_resource:8cc19f6ee96178566cdb60f664894141>'
p213
aS'<http://bio2rdf.org/drugbank_resource:1a81e86caa7ad7b2b10cab15df7de1e0>'
p214
aS'<http://bio2rdf.org/drugbank_resource:0608119dcfb6fa2cd2bbe902f2a502f5>'
p215
aS'<http://bio2rdf.org/drugbank_resource:6ab3e974adffc3f4495da44988a08429>'
p216
aS'<http://bio2rdf.org/drugbank_resource:ce8ac174ac0fa56d5eb3b26a97ca4a98>'
p217
aS'<http://bio2rdf.org/drugbank_resource:955d031c23cd941cabcca488d57e6e2f>'
p218
aS'<http://bio2rdf.org/drugbank_resource:0e245d567924fc725034ebc2a26f1fe9>'
p219
aS'<http://bio2rdf.org/drugbank_resource:f0c6d4b74881be4f8f889933799bfeb3>'
p220
aS'<http://bio2rdf.org/drugbank_resource:61b0f3bf692a73adf440b2c5c4525e35>'
p221
aS'<http://bio2rdf.org/drugbank_resource:b65e700d6415337416af91a1a47b4ee2>'
p222
aS'<http://bio2rdf.org/drugbank_resource:5f2a8ea81bf3463bece12c29dfb642ad>'
p223
aS'<http://bio2rdf.org/drugbank_resource:198a4d7eb092eafbc0886e83a53bcecb>'
p224
aS'<http://bio2rdf.org/drugbank_resource:949bd03adad105ab05821ddbc60602ee>'
p225
aS'<http://bio2rdf.org/drugbank_resource:5b9d67207eea52d4bb03e4b615c89319>'
p226
aS'<http://bio2rdf.org/drugbank_resource:61b707c95406b43c37ccdaa6e27a8b0e>'
p227
aS'<http://bio2rdf.org/drugbank_resource:0d6c2d69694888a1562c27a1ac73e4b2>'
p228
aS'<http://bio2rdf.org/drugbank_resource:9b2ec8161543fc868b69db6e0ec6386c>'
p229
aS'<http://bio2rdf.org/drugbank_resource:6464ceab8ac90dccfbc0cc7ae9afeb1a>'
p230
aS'<http://bio2rdf.org/drugbank_resource:5266c60350b1d93d98f642825cd2f565>'
p231
aS'<http://bio2rdf.org/drugbank:DB00217>'
p232
aS'<http://bio2rdf.org/drugbank:DB00800>'
p233
aS'<http://bio2rdf.org/drugbank:DB00275>'
p234
aS'<http://bio2rdf.org/drugbank:DB00373>'
p235
asa(dp236
g13
(g14
(g16
S'\x00\x00\x00\x00\x00\x00\x00\x00'
tRp237
g18
(g19
(I0
tS'b'
tRp238
(I1
(I4
tg21
I00
S'\x18\xbd\xf1yv\x896@\x83A\xac\x11\xd4?7@\x95\xcf\xdfqwy7@\x01\x9a\xcf\xb9\xdb\xc09@'
tbtp239
sS'n'
I100
sg23
I200
sg24
(lp240
g26
ag27
ag45
ag46
ag47
ag69
ag70
ag71
ag72
ag73
ag102
ag103
ag104
ag105
ag106
ag130
ag28
ag29
ag48
ag30
ag31
ag49
ag50
ag51
ag74
ag75
ag76
ag77
ag78
ag107
ag108
ag109
ag110
ag111
ag131
ag132
ag133
ag134
ag135
ag151
ag152
ag153
ag154
ag155
ag166
ag167
ag168
ag169
ag170
ag171
ag172
ag173
ag174
ag175
ag176
ag177
ag178
ag179
ag180
ag32
ag33
ag52
ag53
ag54
ag79
ag80
ag81
ag34
ag35
ag55
ag56
ag57
ag82
ag83
ag84
ag85
ag86
ag112
ag113
ag114
ag115
ag116
ag136
ag137
ag138
ag139
ag140
ag36
ag37
ag58
ag59
ag60
ag87
ag88
ag89
ag90
ag91
ag117
ag118
ag119
ag38
ag39
ag61
ag62
ag63
ag92
ag93
ag94
ag95
ag96
ag120
ag121
ag122
ag123
ag124
ag141
ag142
ag143
ag144
ag145
ag156
ag157
ag158
ag159
ag160
ag181
ag182
ag183
ag184
ag185
ag186
ag187
ag188
ag189
ag190
ag191
ag192
ag193
ag194
ag195
ag196
ag197
ag198
ag199
ag200
ag201
ag202
ag203
ag204
ag205
ag211
ag212
ag213
ag214
ag215
ag216
ag217
ag218
ag219
ag220
ag221
ag222
ag223
ag224
ag225
ag226
ag227
ag228
ag229
ag230
ag231
ag232
ag233
ag234
ag235
aS'<http://bio2rdf.org/drugbank:DB00598>'
p241
aS'<http://bio2rdf.org/drugbank:DB00206>'
p242
aS'<http://bio2rdf.org/drugbank:DB00866>'
p243
aS'<http://bio2rdf.org/drugbank:DB02587>'
p244
aS'<http://bio2rdf.org/drugbank:DB00606>'
p245
aS'<http://bio2rdf.org/drugbank:DB01348>'
p246
aS'<http://bio2rdf.org/drugbank:DB00521>'
p247
aS'<http://bio2rdf.org/drugbank:DB01018>'
p248
aS'<http://bio2rdf.org/drugbank:DB01275>'
p249
aS'<http://bio2rdf.org/drugbank:DB00968>'
p250
aS'<http://bio2rdf.org/drugbank:DB01170>'
p251
aS'<http://bio2rdf.org/drugbank:DB01612>'
p252
aS'<http://bio2rdf.org/drugbank:DB01626>'
p253
aS'<http://bio2rdf.org/drugbank_resource:DB00073_DB01162>'
p254
aS'<http://bio2rdf.org/drugbank_resource:DB00073_DB00214>'
p255
aS'<http://bio2rdf.org/drugbank_resource:DB00073_DB01021>'
p256
aS'<http://bio2rdf.org/drugbank_resource:DB00346_DB01162>'
p257
aS'<http://bio2rdf.org/drugbank_resource:DB00706_DB06207>'
p258
aS'<http://bio2rdf.org/drugbank_resource:DB01162_DB06207>'
p259
aS'<http://bio2rdf.org/drugbank_resource:DB00073_DB01021>'
p260
aS'<http://bio2rdf.org/drugbank_resource:DB00073_DB01162>'
p261
aS'<http://bio2rdf.org/drugbank_resource:DB00073_DB00214>'
p262
aS'<http://bio2rdf.org/drugbank_resource:DB00346_DB01162>'
p263
aS'<http://bio2rdf.org/drugbank_resource:DB00706_DB06207>'
p264
aS'<http://bio2rdf.org/drugbank_resource:DB01162_DB06207>'
p265
asa(dp266
g13
(g14
(g16
S'\x00\x00\x00\x00\x00\x00\x00\x00'
tRp267
g18
(g19
(I0
tS'b'
tRp268
(I1
(I4
tg21
I00
S'A\xb2x/\xba\xc45@\x1c\xd0\x81&DM6@\xeePI\\E\xea7@\xa3X\x04\x81\xd2\x96:@'
tbtp269
sS'n'
I200
sg23
I300
sg24
(lp270
g26
ag27
ag45
ag46
ag47
ag69
ag70
ag71
ag72
ag73
ag102
ag103
ag104
ag105
ag106
ag130
ag28
ag29
ag48
ag30
ag31
ag49
ag50
ag51
ag74
ag75
ag76
ag77
ag78
ag107
ag108
ag109
ag110
ag111
ag131
ag132
ag133
ag134
ag135
ag151
ag152
ag153
ag154
ag155
ag166
ag167
ag168
ag169
ag170
ag171
ag172
ag173
ag174
ag175
ag176
ag177
ag178
ag179
ag180
ag32
ag33
ag52
ag53
ag54
ag79
ag80
ag81
ag34
ag35
ag55
ag56
ag57
ag82
ag83
ag84
ag85
ag86
ag112
ag113
ag114
ag115
ag116
ag136
ag137
ag138
ag139
ag140
ag36
ag37
ag58
ag59
ag60
ag87
ag88
ag89
ag90
ag91
ag117
ag118
ag119
ag38
ag39
ag61
ag62
ag63
ag92
ag93
ag94
ag95
ag96
ag120
ag121
ag122
ag123
ag124
ag141
ag142
ag143
ag144
ag145
ag156
ag157
ag158
ag159
ag160
ag181
ag182
ag183
ag184
ag185
ag186
ag187
ag188
ag189
ag190
ag191
ag192
ag193
ag194
ag195
ag196
ag197
ag198
ag199
ag200
ag201
ag202
ag203
ag204
ag205
ag211
ag212
ag213
ag214
ag215
ag216
ag217
ag218
ag219
ag220
ag221
ag222
ag223
ag224
ag225
ag226
ag227
ag228
ag229
ag230
ag231
ag232
ag233
ag234
ag235
ag241
ag242
ag243
ag244
ag245
ag246
ag247
ag248
ag249
ag250
ag251
ag252
ag253
ag254
ag255
ag256
ag257
ag258
ag259
ag260
ag261
ag262
ag263
ag264
ag265
aS'<http://bio2rdf.org/drugbank_resource:DB00206_DB00374>'
p271
aS'<http://bio2rdf.org/drugbank_resource:DB00177_DB00374>'
p272
aS'<http://bio2rdf.org/drugbank_resource:DB00214_DB00374>'
p273
aS'<http://bio2rdf.org/drugbank_resource:DB00195_DB00374>'
p274
aS'<http://bio2rdf.org/drugbank_resource:DB00178_DB06196>'
p275
aS'<http://bio2rdf.org/drugbank_resource:DB00178_DB00374>'
p276
aS'<http://bio2rdf.org/drugbank_resource:DB00187_DB00374>'
p277
aS'<http://bio2rdf.org/drugbank_resource:DB00275_DB00374>'
p278
aS'<http://bio2rdf.org/drugbank_resource:DB00270_DB00374>'
p279
aS'<http://bio2rdf.org/drugbank_resource:DB00232_DB00374>'
p280
aS'<http://bio2rdf.org/drugbank_resource:DB00264_DB00374>'
p281
aS'<http://bio2rdf.org/drugbank_resource:DB00335_DB00374>'
p282
aS'<http://bio2rdf.org/drugbank_resource:DB00343_DB00374>'
p283
aS'<http://bio2rdf.org/drugbank_resource:DB00350_DB00374>'
p284
aS'<http://bio2rdf.org/drugbank_resource:DB00325_DB00374>'
p285
aS'<http://bio2rdf.org/drugbank_resource:DB00310_DB00374>'
p286
aS'<http://bio2rdf.org/drugbank_resource:DB00374_DB00903>'
p287
aS'<http://bio2rdf.org/drugbank_resource:DB00374_DB01324>'
p288
aS'<http://bio2rdf.org/drugbank_resource:DB00374_DB00697>'
p289
aS'<http://bio2rdf.org/drugbank_resource:DB00374_DB00381>'
p290
aS'<http://bio2rdf.org/drugbank_resource:DB00374_DB00633>'
p291
aS'<http://bio2rdf.org/drugbank_resource:DB00374_DB00521>'
p292
aS'<http://bio2rdf.org/drugbank_resource:DB00374_DB00727>'
p293
aS'<http://bio2rdf.org/drugbank_resource:DB00374_DB00492>'
p294
aS'<http://bio2rdf.org/drugbank_resource:DB00374_DB01144>'
p295
aS'<http://bio2rdf.org/drugbank_resource:DB00374_DB01193>'
p296
aS'<http://bio2rdf.org/drugbank_resource:DB00374_DB00964>'
p297
aS'<http://bio2rdf.org/drugbank_resource:DB00374_DB01018>'
p298
aS'<http://bio2rdf.org/drugbank_resource:DB00422_DB00519>'
p299
aS'<http://bio2rdf.org/drugbank_resource:DB00374_DB01203>'
p300
aS'<http://bio2rdf.org/drugbank_resource:DB00374_DB01029>'
p301
aS'<http://bio2rdf.org/drugbank_resource:DB00374_DB00393>'
p302
aS'<http://bio2rdf.org/drugbank_resource:DB00374_DB00700>'
p303
aS'<http://bio2rdf.org/drugbank_resource:DB00374_DB00421>'
p304
aS'<http://bio2rdf.org/drugbank_resource:DB00374_DB01214>'
p305
aS'<http://bio2rdf.org/drugbank_resource:DB00374_DB00808>'
p306
aS'<http://bio2rdf.org/drugbank_resource:DB00374_DB00925>'
p307
aS'<http://bio2rdf.org/drugbank_resource:DB00374_DB03904>'
p308
aS'<http://bio2rdf.org/drugbank_resource:DB00374_DB00457>'
p309
aS'<http://bio2rdf.org/drugbank_resource:DB00374_DB00796>'
p310
aS'<http://bio2rdf.org/drugbank_resource:DB00374_DB00883>'
p311
aS'<http://bio2rdf.org/drugbank_resource:DB00374_DB00629>'
p312
aS'<http://bio2rdf.org/drugbank_resource:DB00374_DB00695>'
p313
aS'<http://bio2rdf.org/drugbank_resource:DB00374_DB01340>'
p314
aS'<http://bio2rdf.org/drugbank_resource:DB00374_DB00887>'
p315
aS'<http://bio2rdf.org/drugbank_resource:DB00374_DB00880>'
p316
aS'<http://bio2rdf.org/drugbank_resource:DB00374_DB00999>'
p317
aS'<http://bio2rdf.org/drugbank_resource:DB00374_DB01162>'
p318
aS'<http://bio2rdf.org/drugbank_resource:DB00374_DB04861>'
p319
aS'<http://bio2rdf.org/drugbank_resource:DB00374_DB00774>'
p320
aS'<http://bio2rdf.org/drugbank_resource:DB00374_DB00524>'
p321
aS'<http://bio2rdf.org/drugbank_resource:DB00374_DB00790>'
p322
aS'<http://bio2rdf.org/drugbank_resource:DB00374_DB04899>'
p323
aS'<http://bio2rdf.org/drugbank_resource:DB00374_DB00692>'
p324
aS'<http://bio2rdf.org/drugbank_resource:DB00374_DB00703>'
p325
aS'<http://bio2rdf.org/drugbank_resource:DB00374_DB01021>'
p326
aS'<http://bio2rdf.org/drugbank_resource:DB00374_DB01020>'
p327
aS'<http://bio2rdf.org/drugbank_resource:DB00374_DB00678>'
p328
aS'<http://bio2rdf.org/drugbank_resource:DB00374_DB00542>'
p329
aS'<http://bio2rdf.org/drugbank_resource:DB00374_DB00584>'
p330
aS'<http://bio2rdf.org/drugbank_resource:DB00374_DB00575>'
p331
aS'<http://bio2rdf.org/drugbank_resource:DB00374_DB01580>'
p332
aS'<http://bio2rdf.org/drugbank_resource:DB00374_DB00797>'
p333
aS'<http://bio2rdf.org/drugbank_resource:DB00374_DB00489>'
p334
aS'<http://bio2rdf.org/drugbank_resource:DB00374_DB00661>'
p335
aS'<http://bio2rdf.org/drugbank_resource:DB00374_DB00594>'
p336
aS'<http://bio2rdf.org/drugbank_resource:DB00374_DB01197>'
p337
aS'<http://bio2rdf.org/drugbank_resource:DB00374_DB00484>'
p338
aS'<http://bio2rdf.org/drugbank_resource:DB00374_DB01258>'
p339
aS'<http://bio2rdf.org/drugbank_resource:DB00374_DB01612>'
p340
aS'<http://bio2rdf.org/drugbank_resource:DB00374_DB01275>'
p341
aS'<http://bio2rdf.org/drugbank_resource:DB00374_DB00876>'
p342
aS'<http://bio2rdf.org/drugbank_resource:DB00374_DB01395>'
p343
aS'<http://bio2rdf.org/drugbank_resource:DB00374_DB00436>'
p344
aS'<http://bio2rdf.org/drugbank_resource:DB00374_DB00742>'
p345
aS'<http://bio2rdf.org/drugbank_resource:DB00374_DB01023>'
p346
aS'<http://bio2rdf.org/drugbank_resource:DB00373_DB00374>'
p347
aS'<http://bio2rdf.org/drugbank_resource:DB00374_DB01136>'
p348
aS'<http://bio2rdf.org/drugbank_resource:DB00374_DB04838>'
p349
aS'<http://bio2rdf.org/drugbank_resource:DB00374_DB00622>'
p350
aS'<http://bio2rdf.org/drugbank_resource:DB00374_DB00966>'
p351
aS'<http://bio2rdf.org/drugbank_resource:DB00374_DB01115>'
p352
aS'<http://bio2rdf.org/drugbank_resource:DB00374_DB00691>'
p353
aS'<http://bio2rdf.org/drugbank_resource:DB00374_DB01113>'
p354
aS'<http://bio2rdf.org/drugbank_resource:DB00374_DB00612>'
p355
aS'<http://bio2rdf.org/drugbank_resource:DB00374_DB01210>'
p356
aS'<http://bio2rdf.org/drugbank_resource:DB00374_DB00722>'
p357
aS'<http://bio2rdf.org/drugbank_resource:DB00374_DB04846>'
p358
aS'<http://bio2rdf.org/drugbank_resource:DB00374_DB00401>'
p359
aS'<http://bio2rdf.org/drugbank_resource:DB00374_DB01054>'
p360
aS'<http://bio2rdf.org/drugbank_resource:DB00374_DB00819>'
p361
aS'<http://bio2rdf.org/drugbank_resource:DB00374_DB00881>'
p362
aS'<http://bio2rdf.org/drugbank_resource:DB00374_DB00384>'
p363
aS'<http://bio2rdf.org/drugbank_resource:DB00374_DB00960>'
p364
aS'<http://bio2rdf.org/drugbank_resource:DB00374_DB01359>'
p365
aS'<http://bio2rdf.org/drugbank_resource:DB00374_DB00590>'
p366
aS'<http://bio2rdf.org/drugbank_resource:DB00374_DB04920>'
p367
aS'<http://bio2rdf.org/drugbank_resource:DB00374_DB00598>'
p368
aS'<http://bio2rdf.org/drugbank_resource:DB00492_DB06196>'
p369
aS'<http://bio2rdf.org/drugbank_resource:DB00519_DB06196>'
p370
asa(dp371
g13
(g14
(g16
S'\x00\x00\x00\x00\x00\x00\x00\x00'
tRp372
g18
(g19
(I0
tS'b'
tRp373
(I1
(I4
tg21
I00
S'\x9cd\xc1\xa7\xc2\xe85@4\xbfj^A|6@\x0b\xa1\xca\xa2\xd2\xeb7@\x86\x1a\xb7j\x8a\xdd:@'
tbtp374
sS'n'
I400
sg23
I500
sg24
(lp375
g26
ag27
ag45
ag46
ag47
ag69
ag70
ag71
ag72
ag73
ag102
ag103
ag104
ag105
ag106
ag130
ag28
ag29
ag48
ag30
ag31
ag49
ag50
ag51
ag74
ag75
ag76
ag77
ag78
ag107
ag108
ag109
ag110
ag111
ag131
ag132
ag133
ag134
ag135
ag151
ag152
ag153
ag154
ag155
ag166
ag167
ag168
ag169
ag170
ag171
ag172
ag173
ag174
ag175
ag176
ag177
ag178
ag179
ag180
ag32
ag33
ag52
ag53
ag54
ag79
ag80
ag81
ag34
ag35
ag55
ag56
ag57
ag82
ag83
ag84
ag85
ag86
ag112
ag113
ag114
ag115
ag116
ag136
ag137
ag138
ag139
ag140
ag36
ag37
ag58
ag59
ag60
ag87
ag88
ag89
ag90
ag91
ag117
ag118
ag119
ag38
ag39
ag61
ag62
ag63
ag92
ag93
ag94
ag95
ag96
ag120
ag121
ag122
ag123
ag124
ag141
ag142
ag143
ag144
ag145
ag156
ag157
ag158
ag159
ag160
ag181
ag182
ag183
ag184
ag185
ag186
ag187
ag188
ag189
ag190
ag191
ag192
ag193
ag194
ag195
ag196
ag197
ag198
ag199
ag200
ag201
ag202
ag203
ag204
ag205
ag211
ag212
ag213
ag214
ag215
ag216
ag217
ag218
ag219
ag220
ag221
ag222
ag223
ag224
ag225
ag226
ag227
ag228
ag229
ag230
ag231
ag232
ag233
ag234
ag235
ag241
ag242
ag243
ag244
ag245
ag246
ag247
ag248
ag249
ag250
ag251
ag252
ag253
ag254
ag255
ag256
ag257
ag258
ag259
ag260
ag261
ag262
ag263
ag264
ag265
ag271
ag272
ag273
ag274
ag275
ag276
ag277
ag278
ag279
ag280
ag281
ag282
ag283
ag284
ag285
ag286
ag287
ag288
ag289
ag290
ag291
ag292
ag293
ag294
ag295
ag296
ag297
ag298
ag299
ag300
ag301
ag302
ag303
ag304
ag305
ag306
ag307
ag308
ag309
ag310
ag311
ag312
ag313
ag314
ag315
ag316
ag317
ag318
ag319
ag320
ag321
ag322
ag323
ag324
ag325
ag326
ag327
ag328
ag329
ag330
ag331
ag332
ag333
ag334
ag335
ag336
ag337
ag338
ag339
ag340
ag341
ag342
ag343
ag344
ag345
ag346
ag347
ag348
ag349
ag350
ag351
ag352
ag353
ag354
ag355
ag356
ag357
ag358
ag359
ag360
ag361
ag362
ag363
ag364
ag365
ag366
ag367
ag368
ag369
ag370
aS'<http://bio2rdf.org/drugbank_resource:DB00519_DB01363>'
p376
aS'<http://bio2rdf.org/drugbank_resource:DB00519_DB01404>'
p377
aS'<http://bio2rdf.org/drugbank_resource:DB00584_DB06196>'
p378
aS'<http://bio2rdf.org/drugbank_resource:DB00575_DB00726>'
p379
aS'<http://bio2rdf.org/drugbank_resource:DB00542_DB06196>'
p380
aS'<http://bio2rdf.org/drugbank_resource:DB00629_DB00726>'
p381
aS'<http://bio2rdf.org/drugbank_resource:DB00633_DB00726>'
p382
aS'<http://bio2rdf.org/drugbank_resource:DB00697_DB00726>'
p383
aS'<http://bio2rdf.org/drugbank_resource:DB00726_DB01018>'
p384
aS'<http://bio2rdf.org/drugbank_resource:DB00691_DB06196>'
p385
aS'<http://bio2rdf.org/drugbank_resource:DB00790_DB06196>'
p386
aS'<http://bio2rdf.org/drugbank_resource:DB00881_DB06196>'
p387
aS'<http://bio2rdf.org/drugbank_resource:DB01197_DB06196>'
p388
aS'<http://bio2rdf.org/drugbank_resource:DB00206_DB00374>'
p389
aS'<http://bio2rdf.org/drugbank_resource:DB00178_DB00374>'
p390
aS'<http://bio2rdf.org/drugbank_resource:DB00177_DB00374>'
p391
aS'<http://bio2rdf.org/drugbank_resource:DB00187_DB00374>'
p392
aS'<http://bio2rdf.org/drugbank_resource:DB00178_DB06196>'
p393
aS'<http://bio2rdf.org/drugbank_resource:DB00195_DB00374>'
p394
aS'<http://bio2rdf.org/drugbank_resource:DB00214_DB00374>'
p395
aS'<http://bio2rdf.org/drugbank_resource:DB00232_DB00374>'
p396
aS'<http://bio2rdf.org/drugbank_resource:DB00275_DB00374>'
p397
aS'<http://bio2rdf.org/drugbank_resource:DB00270_DB00374>'
p398
aS'<http://bio2rdf.org/drugbank_resource:DB00264_DB00374>'
p399
aS'<http://bio2rdf.org/drugbank_resource:DB00343_DB00374>'
p400
aS'<http://bio2rdf.org/drugbank_resource:DB00335_DB00374>'
p401
aS'<http://bio2rdf.org/drugbank_resource:DB00325_DB00374>'
p402
aS'<http://bio2rdf.org/drugbank_resource:DB00350_DB00374>'
p403
aS'<http://bio2rdf.org/drugbank_resource:DB00310_DB00374>'
p404
aS'<http://bio2rdf.org/drugbank_resource:DB00374_DB00575>'
p405
aS'<http://bio2rdf.org/drugbank_resource:DB00374_DB00678>'
p406
aS'<http://bio2rdf.org/drugbank_resource:DB00374_DB00887>'
p407
aS'<http://bio2rdf.org/drugbank_resource:DB00374_DB01197>'
p408
aS'<http://bio2rdf.org/drugbank_resource:DB00374_DB00903>'
p409
aS'<http://bio2rdf.org/drugbank_resource:DB00374_DB00819>'
p410
aS'<http://bio2rdf.org/drugbank_resource:DB00374_DB00691>'
p411
aS'<http://bio2rdf.org/drugbank_resource:DB00374_DB00492>'
p412
aS'<http://bio2rdf.org/drugbank_resource:DB00374_DB00881>'
p413
aS'<http://bio2rdf.org/drugbank_resource:DB00374_DB00999>'
p414
aS'<http://bio2rdf.org/drugbank_resource:DB00374_DB01054>'
p415
aS'<http://bio2rdf.org/drugbank_resource:DB00374_DB00700>'
p416
aS'<http://bio2rdf.org/drugbank_resource:DB00374_DB01580>'
p417
aS'<http://bio2rdf.org/drugbank_resource:DB00374_DB00742>'
p418
aS'<http://bio2rdf.org/drugbank_resource:DB00374_DB00612>'
p419
aS'<http://bio2rdf.org/drugbank_resource:DB00374_DB00401>'
p420
aS'<http://bio2rdf.org/drugbank_resource:DB00374_DB04920>'
p421
aS'<http://bio2rdf.org/drugbank_resource:DB00374_DB00808>'
p422
aS'<http://bio2rdf.org/drugbank_resource:DB00374_DB00629>'
p423
aS'<http://bio2rdf.org/drugbank_resource:DB00374_DB00484>'
p424
aS'<http://bio2rdf.org/drugbank_resource:DB00374_DB01203>'
p425
aS'<http://bio2rdf.org/drugbank_resource:DB00374_DB00384>'
p426
aS'<http://bio2rdf.org/drugbank_resource:DB00374_DB00876>'
p427
aS'<http://bio2rdf.org/drugbank_resource:DB00374_DB01018>'
p428
aS'<http://bio2rdf.org/drugbank_resource:DB00374_DB01395>'
p429
aS'<http://bio2rdf.org/drugbank_resource:DB00374_DB00960>'
p430
aS'<http://bio2rdf.org/drugbank_resource:DB00374_DB00964>'
p431
aS'<http://bio2rdf.org/drugbank_resource:DB00373_DB00374>'
p432
aS'<http://bio2rdf.org/drugbank_resource:DB00374_DB00727>'
p433
aS'<http://bio2rdf.org/drugbank_resource:DB00374_DB00722>'
p434
aS'<http://bio2rdf.org/drugbank_resource:DB00374_DB00584>'
p435
aS'<http://bio2rdf.org/drugbank_resource:DB00374_DB01340>'
p436
aS'<http://bio2rdf.org/drugbank_resource:DB00374_DB00524>'
p437
aS'<http://bio2rdf.org/drugbank_resource:DB00374_DB01193>'
p438
aS'<http://bio2rdf.org/drugbank_resource:DB00374_DB00774>'
p439
aS'<http://bio2rdf.org/drugbank_resource:DB00374_DB00594>'
p440
aS'<http://bio2rdf.org/drugbank_resource:DB00374_DB00661>'
p441
aS'<http://bio2rdf.org/drugbank_resource:DB00374_DB00883>'
p442
aS'<http://bio2rdf.org/drugbank_resource:DB00374_DB01136>'
p443
aS'<http://bio2rdf.org/drugbank_resource:DB00374_DB00421>'
p444
aS'<http://bio2rdf.org/drugbank_resource:DB00374_DB01324>'
p445
aS'<http://bio2rdf.org/drugbank_resource:DB00374_DB00966>'
p446
aS'<http://bio2rdf.org/drugbank_resource:DB00374_DB04846>'
p447
aS'<http://bio2rdf.org/drugbank_resource:DB00374_DB00489>'
p448
aS'<http://bio2rdf.org/drugbank_resource:DB00374_DB00590>'
p449
aS'<http://bio2rdf.org/drugbank_resource:DB00374_DB00542>'
p450
aS'<http://bio2rdf.org/drugbank_resource:DB00374_DB00880>'
p451
aS'<http://bio2rdf.org/drugbank_resource:DB00374_DB01210>'
p452
aS'<http://bio2rdf.org/drugbank_resource:DB00374_DB00697>'
p453
aS'<http://bio2rdf.org/drugbank_resource:DB00374_DB01162>'
p454
aS'<http://bio2rdf.org/drugbank_resource:DB00374_DB00381>'
p455
aS'<http://bio2rdf.org/drugbank_resource:DB00374_DB00790>'
p456
aS'<http://bio2rdf.org/drugbank_resource:DB00374_DB01144>'
p457
aS'<http://bio2rdf.org/drugbank_resource:DB00374_DB00521>'
p458
aS'<http://bio2rdf.org/drugbank_resource:DB00374_DB00457>'
p459
aS'<http://bio2rdf.org/drugbank_resource:DB00374_DB01258>'
p460
aS'<http://bio2rdf.org/drugbank_resource:DB00374_DB00436>'
p461
aS'<http://bio2rdf.org/drugbank_resource:DB00374_DB00797>'
p462
aS'<http://bio2rdf.org/drugbank_resource:DB00374_DB01029>'
p463
aS'<http://bio2rdf.org/drugbank_resource:DB00374_DB01021>'
p464
aS'<http://bio2rdf.org/drugbank_resource:DB00374_DB01359>'
p465
aS'<http://bio2rdf.org/drugbank_resource:DB00374_DB01020>'
p466
aS'<http://bio2rdf.org/drugbank_resource:DB00374_DB00692>'
p467
aS'<http://bio2rdf.org/drugbank_resource:DB00374_DB01023>'
p468
aS'<http://bio2rdf.org/drugbank_resource:DB00374_DB00633>'
p469
aS'<http://bio2rdf.org/drugbank_resource:DB00374_DB00598>'
p470
aS'<http://bio2rdf.org/drugbank_resource:DB00374_DB01113>'
p471
aS'<http://bio2rdf.org/drugbank_resource:DB00374_DB00695>'
p472
aS'<http://bio2rdf.org/drugbank_resource:DB00374_DB03904>'
p473
aS'<http://bio2rdf.org/drugbank_resource:DB00374_DB01214>'
p474
aS'<http://bio2rdf.org/drugbank_resource:DB00374_DB00796>'
p475
aS'<http://bio2rdf.org/drugbank_resource:DB00374_DB00393>'
p476
aS'<http://bio2rdf.org/drugbank_resource:DB00374_DB01115>'
p477
aS'<http://bio2rdf.org/drugbank_resource:DB00374_DB00703>'
p478
aS'<http://bio2rdf.org/drugbank_resource:DB00374_DB04838>'
p479
aS'<http://bio2rdf.org/drugbank_resource:DB00374_DB00925>'
p480
aS'<http://bio2rdf.org/drugbank_resource:DB00374_DB01275>'
p481
aS'<http://bio2rdf.org/drugbank_resource:DB00374_DB04861>'
p482
aS'<http://bio2rdf.org/drugbank_resource:DB00422_DB00519>'
p483
aS'<http://bio2rdf.org/drugbank_resource:DB00374_DB04899>'
p484
aS'<http://bio2rdf.org/drugbank_resource:DB00374_DB00622>'
p485
aS'<http://bio2rdf.org/drugbank_resource:DB00374_DB01612>'
p486
aS'<http://bio2rdf.org/drugbank_resource:DB00492_DB06196>'
p487
aS'<http://bio2rdf.org/drugbank_resource:DB00519_DB01363>'
p488
aS'<http://bio2rdf.org/drugbank_resource:DB00519_DB06196>'
p489
aS'<http://bio2rdf.org/drugbank_resource:DB00519_DB01404>'
p490
aS'<http://bio2rdf.org/drugbank_resource:DB00575_DB00726>'
p491
aS'<http://bio2rdf.org/drugbank_resource:DB00584_DB06196>'
p492
aS'<http://bio2rdf.org/drugbank_resource:DB00542_DB06196>'
p493
aS'<http://bio2rdf.org/drugbank_resource:DB00629_DB00726>'
p494
aS'<http://bio2rdf.org/drugbank_resource:DB00633_DB00726>'
p495
aS'<http://bio2rdf.org/drugbank_resource:DB00691_DB06196>'
p496
aS'<http://bio2rdf.org/drugbank_resource:DB00697_DB00726>'
p497
aS'<http://bio2rdf.org/drugbank_resource:DB00726_DB01018>'
p498
aS'<http://bio2rdf.org/drugbank_resource:DB00790_DB06196>'
p499
aS'<http://bio2rdf.org/drugbank_resource:DB00881_DB06196>'
p500
aS'<http://bio2rdf.org/drugbank_resource:DB01197_DB06196>'
p501
aS'<http://bio2rdf.org/drugbank_resource:DB00214_DB01050>'
p502
aS'<http://bio2rdf.org/drugbank_resource:DB00214_DB00328>'
p503
aS'<http://bio2rdf.org/drugbank_resource:DB00328_DB00887>'
p504
aS'<http://bio2rdf.org/drugbank_resource:DB00328_DB00903>'
p505
aS'<http://bio2rdf.org/drugbank_resource:DB00328_DB00695>'
p506
aS'<http://bio2rdf.org/drugbank_resource:DB00328_DB00519>'
p507
aS'<http://bio2rdf.org/drugbank_resource:DB00373_DB00482>'
p508
aS'<http://bio2rdf.org/drugbank_resource:DB00373_DB00939>'
p509
aS'<http://bio2rdf.org/drugbank_resource:DB00373_DB00712>'
p510
aS'<http://bio2rdf.org/drugbank_resource:DB00373_DB00814>'
p511
aS'<http://bio2rdf.org/drugbank_resource:DB00373_DB00500>'
p512
aS'<http://bio2rdf.org/drugbank_resource:DB00373_DB00605>'
p513
aS'<http://bio2rdf.org/drugbank_resource:DB00373_DB00749>'
p514
aS'<http://bio2rdf.org/drugbank_resource:DB00373_DB01600>'
p515
aS'<http://bio2rdf.org/drugbank_resource:DB00373_DB01283>'
p516
aS'<http://bio2rdf.org/drugbank_resource:DB00373_DB00573>'
p517
aS'<http://bio2rdf.org/drugbank_resource:DB00373_DB00861>'
p518
aS'<http://bio2rdf.org/drugbank_resource:DB00373_DB00991>'
p519
aS'<http://bio2rdf.org/drugbank_resource:DB00373_DB00788>'
p520
aS'<http://bio2rdf.org/drugbank_resource:DB00373_DB00586>'
p521
aS'<http://bio2rdf.org/drugbank_resource:DB00373_DB00461>'
p522
aS'<http://bio2rdf.org/drugbank_resource:DB00373_DB01009>'
p523
aS'<http://bio2rdf.org/drugbank_resource:DB00373_DB00465>'
p524
aS'<http://bio2rdf.org/drugbank_resource:DB00519_DB00784>'
p525
aS'<http://bio2rdf.org/drugbank_resource:DB00482_DB00519>'
p526
aS'<http://bio2rdf.org/drugbank_resource:DB00461_DB00519>'
p527
aS'<http://bio2rdf.org/drugbank_resource:DB00519_DB01283>'
p528
aS'<http://bio2rdf.org/drugbank_resource:DB00519_DB00861>'
p529
aS'<http://bio2rdf.org/drugbank_resource:DB00519_DB01050>'
p530
aS'<http://bio2rdf.org/drugbank_resource:DB00519_DB00749>'
p531
aS'<http://bio2rdf.org/drugbank_resource:DB00519_DB00939>'
p532
aS'<http://bio2rdf.org/drugbank_resource:DB00465_DB00519>'
p533
aS'<http://bio2rdf.org/drugbank_resource:DB00519_DB00586>'
p534
aS'<http://bio2rdf.org/drugbank_resource:DB00519_DB00814>'
p535
aS'<http://bio2rdf.org/drugbank_resource:DB00519_DB00573>'
p536
aS'<http://bio2rdf.org/drugbank_resource:DB00519_DB01009>'
p537
aS'<http://bio2rdf.org/drugbank_resource:DB00519_DB00712>'
p538
aS'<http://bio2rdf.org/drugbank_resource:DB00519_DB00788>'
p539
aS'<http://bio2rdf.org/drugbank_resource:DB00500_DB00519>'
p540
aS'<http://bio2rdf.org/drugbank_resource:DB00519_DB00991>'
p541
aS'<http://bio2rdf.org/drugbank_resource:DB00519_DB00554>'
p542
aS'<http://bio2rdf.org/drugbank_resource:DB00519_DB00605>'
p543
aS'<http://bio2rdf.org/drugbank_resource:DB00519_DB01600>'
p544
aS'<http://bio2rdf.org/drugbank_resource:DB00605_DB00695>'
p545
aS'<http://bio2rdf.org/drugbank_resource:DB00605_DB00903>'
p546
aS'<http://bio2rdf.org/drugbank_resource:DB00605_DB00887>'
p547
aS'<http://bio2rdf.org/drugbank_resource:DB00695_DB01050>'
p548
aS'<http://bio2rdf.org/drugbank_resource:DB00887_DB01050>'
p549
aS'<http://bio2rdf.org/drugbank_resource:DB00903_DB01050>'
p550
aS'<http://bio2rdf.org/drugbank_resource:DB00880_DB01143>'
p551
aS'<http://bio2rdf.org/drugbank_resource:DB00214_DB00328>'
p552
aS'<http://bio2rdf.org/drugbank_resource:DB00214_DB01050>'
p553
aS'<http://bio2rdf.org/drugbank_resource:DB00328_DB00903>'
p554
aS'<http://bio2rdf.org/drugbank_resource:DB00328_DB00695>'
p555
aS'<http://bio2rdf.org/drugbank_resource:DB00328_DB00887>'
p556
aS'<http://bio2rdf.org/drugbank_resource:DB00328_DB00519>'
p557
aS'<http://bio2rdf.org/drugbank_resource:DB00373_DB00788>'
p558
aS'<http://bio2rdf.org/drugbank_resource:DB00373_DB00712>'
p559
aS'<http://bio2rdf.org/drugbank_resource:DB00373_DB01009>'
p560
aS'<http://bio2rdf.org/drugbank_resource:DB00373_DB00461>'
p561
aS'<http://bio2rdf.org/drugbank_resource:DB00373_DB00749>'
p562
aS'<http://bio2rdf.org/drugbank_resource:DB00373_DB00605>'
p563
aS'<http://bio2rdf.org/drugbank_resource:DB00373_DB00465>'
p564
aS'<http://bio2rdf.org/drugbank_resource:DB00373_DB00586>'
p565
aS'<http://bio2rdf.org/drugbank_resource:DB00373_DB00482>'
p566
aS'<http://bio2rdf.org/drugbank_resource:DB00373_DB00991>'
p567
aS'<http://bio2rdf.org/drugbank_resource:DB00373_DB00939>'
p568
aS'<http://bio2rdf.org/drugbank_resource:DB00373_DB00500>'
p569
aS'<http://bio2rdf.org/drugbank_resource:DB00373_DB01600>'
p570
aS'<http://bio2rdf.org/drugbank_resource:DB00373_DB00814>'
p571
aS'<http://bio2rdf.org/drugbank_resource:DB00373_DB00861>'
p572
aS'<http://bio2rdf.org/drugbank_resource:DB00373_DB00573>'
p573
aS'<http://bio2rdf.org/drugbank_resource:DB00373_DB01283>'
p574
aS'<http://bio2rdf.org/drugbank_resource:DB00519_DB00788>'
p575
asa(dp576
g13
(g14
(g16
S'\x00\x00\x00\x00\x00\x00\x00\x00'
tRp577
g18
(g19
(I0
tS'b'
tRp578
(I1
(I4
tg21
I00
S"\xe4\xbe\x805[\xe95@\x89\xb7\xfb\x80\xac\x876@F\x89\xe6'\xa1\xdf7@%\x93K\x10v\xe4:@"
tbtp579
sS'n'
I700
sg23
I554
sg24
(lp580
g26
ag27
ag45
ag46
ag47
ag69
ag70
ag71
ag72
ag73
ag102
ag103
ag104
ag105
ag106
ag130
ag28
ag29
ag48
ag30
ag31
ag49
ag50
ag51
ag74
ag75
ag76
ag77
ag78
ag107
ag108
ag109
ag110
ag111
ag131
ag132
ag133
ag134
ag135
ag151
ag152
ag153
ag154
ag155
ag166
ag167
ag168
ag169
ag170
ag171
ag172
ag173
ag174
ag175
ag176
ag177
ag178
ag179
ag180
ag32
ag33
ag52
ag53
ag54
ag79
ag80
ag81
ag34
ag35
ag55
ag56
ag57
ag82
ag83
ag84
ag85
ag86
ag112
ag113
ag114
ag115
ag116
ag136
ag137
ag138
ag139
ag140
ag36
ag37
ag58
ag59
ag60
ag87
ag88
ag89
ag90
ag91
ag117
ag118
ag119
ag38
ag39
ag61
ag62
ag63
ag92
ag93
ag94
ag95
ag96
ag120
ag121
ag122
ag123
ag124
ag141
ag142
ag143
ag144
ag145
ag156
ag157
ag158
ag159
ag160
ag181
ag182
ag183
ag184
ag185
ag186
ag187
ag188
ag189
ag190
ag191
ag192
ag193
ag194
ag195
ag196
ag197
ag198
ag199
ag200
ag201
ag202
ag203
ag204
ag205
ag211
ag212
ag213
ag214
ag215
ag216
ag217
ag218
ag219
ag220
ag221
ag222
ag223
ag224
ag225
ag226
ag227
ag228
ag229
ag230
ag231
ag232
ag233
ag234
ag235
ag241
ag242
ag243
ag244
ag245
ag246
ag247
ag248
ag249
ag250
ag251
ag252
ag253
ag254
ag255
ag256
ag257
ag258
ag259
ag260
ag261
ag262
ag263
ag264
ag265
ag271
ag272
ag273
ag274
ag275
ag276
ag277
ag278
ag279
ag280
ag281
ag282
ag283
ag284
ag285
ag286
ag287
ag288
ag289
ag290
ag291
ag292
ag293
ag294
ag295
ag296
ag297
ag298
ag299
ag300
ag301
ag302
ag303
ag304
ag305
ag306
ag307
ag308
ag309
ag310
ag311
ag312
ag313
ag314
ag315
ag316
ag317
ag318
ag319
ag320
ag321
ag322
ag323
ag324
ag325
ag326
ag327
ag328
ag329
ag330
ag331
ag332
ag333
ag334
ag335
ag336
ag337
ag338
ag339
ag340
ag341
ag342
ag343
ag344
ag345
ag346
ag347
ag348
ag349
ag350
ag351
ag352
ag353
ag354
ag355
ag356
ag357
ag358
ag359
ag360
ag361
ag362
ag363
ag364
ag365
ag366
ag367
ag368
ag369
ag370
ag376
ag377
ag378
ag379
ag380
ag381
ag382
ag383
ag384
ag385
ag386
ag387
ag388
ag389
ag390
ag391
ag392
ag393
ag394
ag395
ag396
ag397
ag398
ag399
ag400
ag401
ag402
ag403
ag404
ag405
ag406
ag407
ag408
ag409
ag410
ag411
ag412
ag413
ag414
ag415
ag416
ag417
ag418
ag419
ag420
ag421
ag422
ag423
ag424
ag425
ag426
ag427
ag428
ag429
ag430
ag431
ag432
ag433
ag434
ag435
ag436
ag437
ag438
ag439
ag440
ag441
ag442
ag443
ag444
ag445
ag446
ag447
ag448
ag449
ag450
ag451
ag452
ag453
ag454
ag455
ag456
ag457
ag458
ag459
ag460
ag461
ag462
ag463
ag464
ag465
ag466
ag467
ag468
ag469
ag470
ag471
ag472
ag473
ag474
ag475
ag476
ag477
ag478
ag479
ag480
ag481
ag482
ag483
ag484
ag485
ag486
ag487
ag488
ag489
ag490
ag491
ag492
ag493
ag494
ag495
ag496
ag497
ag498
ag499
ag500
ag501
ag502
ag503
ag504
ag505
ag506
ag507
ag508
ag509
ag510
ag511
ag512
ag513
ag514
ag515
ag516
ag517
ag518
ag519
ag520
ag521
ag522
ag523
ag524
ag525
ag526
ag527
ag528
ag529
ag530
ag531
ag532
ag533
ag534
ag535
ag536
ag537
ag538
ag539
ag540
ag541
ag542
ag543
ag544
ag545
ag546
ag547
ag548
ag549
ag550
ag551
ag552
ag553
ag554
ag555
ag556
ag557
ag558
ag559
ag560
ag561
ag562
ag563
ag564
ag565
ag566
ag567
ag568
ag569
ag570
ag571
ag572
ag573
ag574
ag575
aS'<http://bio2rdf.org/drugbank_resource:DB00519_DB00749>'
p581
aS'<http://bio2rdf.org/drugbank_resource:DB00465_DB00519>'
p582
aS'<http://bio2rdf.org/drugbank_resource:DB00519_DB00712>'
p583
aS'<http://bio2rdf.org/drugbank_resource:DB00519_DB00939>'
p584
aS'<http://bio2rdf.org/drugbank_resource:DB00519_DB00554>'
p585
aS'<http://bio2rdf.org/drugbank_resource:DB00519_DB00861>'
p586
aS'<http://bio2rdf.org/drugbank_resource:DB00519_DB01283>'
p587
aS'<http://bio2rdf.org/drugbank_resource:DB00519_DB01050>'
p588
aS'<http://bio2rdf.org/drugbank_resource:DB00519_DB00573>'
p589
aS'<http://bio2rdf.org/drugbank_resource:DB00461_DB00519>'
p590
aS'<http://bio2rdf.org/drugbank_resource:DB00519_DB01009>'
p591
aS'<http://bio2rdf.org/drugbank_resource:DB00519_DB00784>'
p592
aS'<http://bio2rdf.org/drugbank_resource:DB00500_DB00519>'
p593
aS'<http://bio2rdf.org/drugbank_resource:DB00519_DB00586>'
p594
aS'<http://bio2rdf.org/drugbank_resource:DB00519_DB00991>'
p595
aS'<http://bio2rdf.org/drugbank_resource:DB00519_DB00814>'
p596
aS'<http://bio2rdf.org/drugbank_resource:DB00482_DB00519>'
p597
aS'<http://bio2rdf.org/drugbank_resource:DB00519_DB00605>'
p598
aS'<http://bio2rdf.org/drugbank_resource:DB00519_DB01600>'
p599
aS'<http://bio2rdf.org/drugbank_resource:DB00605_DB00903>'
p600
aS'<http://bio2rdf.org/drugbank_resource:DB00605_DB00695>'
p601
aS'<http://bio2rdf.org/drugbank_resource:DB00605_DB00887>'
p602
aS'<http://bio2rdf.org/drugbank_resource:DB00695_DB01050>'
p603
aS'<http://bio2rdf.org/drugbank_resource:DB00903_DB01050>'
p604
aS'<http://bio2rdf.org/drugbank_resource:DB00880_DB01143>'
p605
aS'<http://bio2rdf.org/drugbank_resource:DB00887_DB01050>'
p606
aS'<http://bio2rdf.org/drugbank_resource:DB00073_DB00195>'
p607
aS'<http://bio2rdf.org/drugbank_resource:DB00195_DB01050>'
p608
aS'<http://bio2rdf.org/drugbank_resource:DB00195_DB00328>'
p609
aS'<http://bio2rdf.org/drugbank_resource:DB00195_DB00554>'
p610
aS'<http://bio2rdf.org/drugbank_resource:DB00298_DB00706>'
p611
aS'<http://bio2rdf.org/drugbank_resource:DB00346_DB00706>'
p612
aS'<http://bio2rdf.org/drugbank_resource:DB00457_DB00706>'
p613
aS'<http://bio2rdf.org/drugbank_resource:DB00590_DB00706>'
p614
aS'<http://bio2rdf.org/drugbank_resource:DB00706_DB01162>'
p615
aS'<http://bio2rdf.org/drugbank_resource:DB00706_DB00925>'
p616
aS'<http://bio2rdf.org/drugbank_resource:DB00692_DB00706>'
p617
aS'<http://bio2rdf.org/drugbank_resource:DB00073_DB00195>'
p618
aS'<http://bio2rdf.org/drugbank_resource:DB00195_DB00328>'
p619
aS'<http://bio2rdf.org/drugbank_resource:DB00195_DB01050>'
p620
aS'<http://bio2rdf.org/drugbank_resource:DB00195_DB00554>'
p621
aS'<http://bio2rdf.org/drugbank_resource:DB00298_DB00706>'
p622
aS'<http://bio2rdf.org/drugbank_resource:DB00346_DB00706>'
p623
aS'<http://bio2rdf.org/drugbank_resource:DB00457_DB00706>'
p624
aS'<http://bio2rdf.org/drugbank_resource:DB00590_DB00706>'
p625
aS'<http://bio2rdf.org/drugbank_resource:DB00706_DB01162>'
p626
aS'<http://bio2rdf.org/drugbank_resource:DB00706_DB00925>'
p627
aS'<http://bio2rdf.org/drugbank_resource:DB00692_DB00706>'
p628
aS'<http://bio2rdf.org/drugbank_resource:DB00073_DB00880>'
p629
aS'<http://bio2rdf.org/drugbank_resource:DB00073_DB00880>'
p630
aS'<http://bio2rdf.org/drugbank:DB01214>'
p631
aS'<http://bio2rdf.org/drugbank_resource:DB00374_DB00975>'
p632
aS'<http://bio2rdf.org/drugbank_resource:DB00374_DB00975>'
p633
aS'<http://bio2rdf.org/drugbank:DB00629>'
p634
asa(dp635
g13
(g14
(g16
S'\x00\x00\x00\x00\x00\x00\x00\x00'
tRp636
g18
(g19
(I0
tS'b'
tRp637
(I1
(I4
tg21
I00
S"\xe4\xbe\x805[\xe95@\x89\xb7\xfb\x80\xac\x876@F\x89\xe6'\xa1\xdf7@%\x93K\x10v\xe4:@"
tbtp638
sS'n'
I1000
sg23
I554
sg24
(lp639
g26
ag27
ag45
ag46
ag47
ag69
ag70
ag71
ag72
ag73
ag102
ag103
ag104
ag105
ag106
ag130
ag28
ag29
ag48
ag30
ag31
ag49
ag50
ag51
ag74
ag75
ag76
ag77
ag78
ag107
ag108
ag109
ag110
ag111
ag131
ag132
ag133
ag134
ag135
ag151
ag152
ag153
ag154
ag155
ag166
ag167
ag168
ag169
ag170
ag171
ag172
ag173
ag174
ag175
ag176
ag177
ag178
ag179
ag180
ag32
ag33
ag52
ag53
ag54
ag79
ag80
ag81
ag34
ag35
ag55
ag56
ag57
ag82
ag83
ag84
ag85
ag86
ag112
ag113
ag114
ag115
ag116
ag136
ag137
ag138
ag139
ag140
ag36
ag37
ag58
ag59
ag60
ag87
ag88
ag89
ag90
ag91
ag117
ag118
ag119
ag38
ag39
ag61
ag62
ag63
ag92
ag93
ag94
ag95
ag96
ag120
ag121
ag122
ag123
ag124
ag141
ag142
ag143
ag144
ag145
ag156
ag157
ag158
ag159
ag160
ag181
ag182
ag183
ag184
ag185
ag186
ag187
ag188
ag189
ag190
ag191
ag192
ag193
ag194
ag195
ag196
ag197
ag198
ag199
ag200
ag201
ag202
ag203
ag204
ag205
ag211
ag212
ag213
ag214
ag215
ag216
ag217
ag218
ag219
ag220
ag221
ag222
ag223
ag224
ag225
ag226
ag227
ag228
ag229
ag230
ag231
ag232
ag233
ag234
ag235
ag241
ag242
ag243
ag244
ag245
ag246
ag247
ag248
ag249
ag250
ag251
ag252
ag253
ag254
ag255
ag256
ag257
ag258
ag259
ag260
ag261
ag262
ag263
ag264
ag265
ag271
ag272
ag273
ag274
ag275
ag276
ag277
ag278
ag279
ag280
ag281
ag282
ag283
ag284
ag285
ag286
ag287
ag288
ag289
ag290
ag291
ag292
ag293
ag294
ag295
ag296
ag297
ag298
ag299
ag300
ag301
ag302
ag303
ag304
ag305
ag306
ag307
ag308
ag309
ag310
ag311
ag312
ag313
ag314
ag315
ag316
ag317
ag318
ag319
ag320
ag321
ag322
ag323
ag324
ag325
ag326
ag327
ag328
ag329
ag330
ag331
ag332
ag333
ag334
ag335
ag336
ag337
ag338
ag339
ag340
ag341
ag342
ag343
ag344
ag345
ag346
ag347
ag348
ag349
ag350
ag351
ag352
ag353
ag354
ag355
ag356
ag357
ag358
ag359
ag360
ag361
ag362
ag363
ag364
ag365
ag366
ag367
ag368
ag369
ag370
ag376
ag377
ag378
ag379
ag380
ag381
ag382
ag383
ag384
ag385
ag386
ag387
ag388
ag389
ag390
ag391
ag392
ag393
ag394
ag395
ag396
ag397
ag398
ag399
ag400
ag401
ag402
ag403
ag404
ag405
ag406
ag407
ag408
ag409
ag410
ag411
ag412
ag413
ag414
ag415
ag416
ag417
ag418
ag419
ag420
ag421
ag422
ag423
ag424
ag425
ag426
ag427
ag428
ag429
ag430
ag431
ag432
ag433
ag434
ag435
ag436
ag437
ag438
ag439
ag440
ag441
ag442
ag443
ag444
ag445
ag446
ag447
ag448
ag449
ag450
ag451
ag452
ag453
ag454
ag455
ag456
ag457
ag458
ag459
ag460
ag461
ag462
ag463
ag464
ag465
ag466
ag467
ag468
ag469
ag470
ag471
ag472
ag473
ag474
ag475
ag476
ag477
ag478
ag479
ag480
ag481
ag482
ag483
ag484
ag485
ag486
ag487
ag488
ag489
ag490
ag491
ag492
ag493
ag494
ag495
ag496
ag497
ag498
ag499
ag500
ag501
ag502
ag503
ag504
ag505
ag506
ag507
ag508
ag509
ag510
ag511
ag512
ag513
ag514
ag515
ag516
ag517
ag518
ag519
ag520
ag521
ag522
ag523
ag524
ag525
ag526
ag527
ag528
ag529
ag530
ag531
ag532
ag533
ag534
ag535
ag536
ag537
ag538
ag539
ag540
ag541
ag542
ag543
ag544
ag545
ag546
ag547
ag548
ag549
ag550
ag551
ag552
ag553
ag554
ag555
ag556
ag557
ag558
ag559
ag560
ag561
ag562
ag563
ag564
ag565
ag566
ag567
ag568
ag569
ag570
ag571
ag572
ag573
ag574
ag575
ag581
ag582
ag583
ag584
ag585
ag586
ag587
ag588
ag589
ag590
ag591
ag592
ag593
ag594
ag595
ag596
ag597
ag598
ag599
ag600
ag601
ag602
ag603
ag604
ag605
ag606
ag607
ag608
ag609
ag610
ag611
ag612
ag613
ag614
ag615
ag616
ag617
ag618
ag619
ag620
ag621
ag622
ag623
ag624
ag625
ag626
ag627
ag628
ag629
ag630
ag631
ag632
ag633
ag634
asa(dp640
g13
(g14
(g16
S'\x00\x00\x00\x00\x00\x00\x00\x00'
tRp641
g18
(g19
(I0
tS'b'
tRp642
(I1
(I4
tg21
I00
S"\xe4\xbe\x805[\xe95@\x89\xb7\xfb\x80\xac\x876@F\x89\xe6'\xa1\xdf7@%\x93K\x10v\xe4:@"
tbtp643
sS'n'
I1500
sg23
I554
sg24
(lp644
g26
ag27
ag45
ag46
ag47
ag69
ag70
ag71
ag72
ag73
ag102
ag103
ag104
ag105
ag106
ag130
ag28
ag29
ag48
ag30
ag31
ag49
ag50
ag51
ag74
ag75
ag76
ag77
ag78
ag107
ag108
ag109
ag110
ag111
ag131
ag132
ag133
ag134
ag135
ag151
ag152
ag153
ag154
ag155
ag166
ag167
ag168
ag169
ag170
ag171
ag172
ag173
ag174
ag175
ag176
ag177
ag178
ag179
ag180
ag32
ag33
ag52
ag53
ag54
ag79
ag80
ag81
ag34
ag35
ag55
ag56
ag57
ag82
ag83
ag84
ag85
ag86
ag112
ag113
ag114
ag115
ag116
ag136
ag137
ag138
ag139
ag140
ag36
ag37
ag58
ag59
ag60
ag87
ag88
ag89
ag90
ag91
ag117
ag118
ag119
ag38
ag39
ag61
ag62
ag63
ag92
ag93
ag94
ag95
ag96
ag120
ag121
ag122
ag123
ag124
ag141
ag142
ag143
ag144
ag145
ag156
ag157
ag158
ag159
ag160
ag181
ag182
ag183
ag184
ag185
ag186
ag187
ag188
ag189
ag190
ag191
ag192
ag193
ag194
ag195
ag196
ag197
ag198
ag199
ag200
ag201
ag202
ag203
ag204
ag205
ag211
ag212
ag213
ag214
ag215
ag216
ag217
ag218
ag219
ag220
ag221
ag222
ag223
ag224
ag225
ag226
ag227
ag228
ag229
ag230
ag231
ag232
ag233
ag234
ag235
ag241
ag242
ag243
ag244
ag245
ag246
ag247
ag248
ag249
ag250
ag251
ag252
ag253
ag254
ag255
ag256
ag257
ag258
ag259
ag260
ag261
ag262
ag263
ag264
ag265
ag271
ag272
ag273
ag274
ag275
ag276
ag277
ag278
ag279
ag280
ag281
ag282
ag283
ag284
ag285
ag286
ag287
ag288
ag289
ag290
ag291
ag292
ag293
ag294
ag295
ag296
ag297
ag298
ag299
ag300
ag301
ag302
ag303
ag304
ag305
ag306
ag307
ag308
ag309
ag310
ag311
ag312
ag313
ag314
ag315
ag316
ag317
ag318
ag319
ag320
ag321
ag322
ag323
ag324
ag325
ag326
ag327
ag328
ag329
ag330
ag331
ag332
ag333
ag334
ag335
ag336
ag337
ag338
ag339
ag340
ag341
ag342
ag343
ag344
ag345
ag346
ag347
ag348
ag349
ag350
ag351
ag352
ag353
ag354
ag355
ag356
ag357
ag358
ag359
ag360
ag361
ag362
ag363
ag364
ag365
ag366
ag367
ag368
ag369
ag370
ag376
ag377
ag378
ag379
ag380
ag381
ag382
ag383
ag384
ag385
ag386
ag387
ag388
ag389
ag390
ag391
ag392
ag393
ag394
ag395
ag396
ag397
ag398
ag399
ag400
ag401
ag402
ag403
ag404
ag405
ag406
ag407
ag408
ag409
ag410
ag411
ag412
ag413
ag414
ag415
ag416
ag417
ag418
ag419
ag420
ag421
ag422
ag423
ag424
ag425
ag426
ag427
ag428
ag429
ag430
ag431
ag432
ag433
ag434
ag435
ag436
ag437
ag438
ag439
ag440
ag441
ag442
ag443
ag444
ag445
ag446
ag447
ag448
ag449
ag450
ag451
ag452
ag453
ag454
ag455
ag456
ag457
ag458
ag459
ag460
ag461
ag462
ag463
ag464
ag465
ag466
ag467
ag468
ag469
ag470
ag471
ag472
ag473
ag474
ag475
ag476
ag477
ag478
ag479
ag480
ag481
ag482
ag483
ag484
ag485
ag486
ag487
ag488
ag489
ag490
ag491
ag492
ag493
ag494
ag495
ag496
ag497
ag498
ag499
ag500
ag501
ag502
ag503
ag504
ag505
ag506
ag507
ag508
ag509
ag510
ag511
ag512
ag513
ag514
ag515
ag516
ag517
ag518
ag519
ag520
ag521
ag522
ag523
ag524
ag525
ag526
ag527
ag528
ag529
ag530
ag531
ag532
ag533
ag534
ag535
ag536
ag537
ag538
ag539
ag540
ag541
ag542
ag543
ag544
ag545
ag546
ag547
ag548
ag549
ag550
ag551
ag552
ag553
ag554
ag555
ag556
ag557
ag558
ag559
ag560
ag561
ag562
ag563
ag564
ag565
ag566
ag567
ag568
ag569
ag570
ag571
ag572
ag573
ag574
ag575
ag581
ag582
ag583
ag584
ag585
ag586
ag587
ag588
ag589
ag590
ag591
ag592
ag593
ag594
ag595
ag596
ag597
ag598
ag599
ag600
ag601
ag602
ag603
ag604
ag605
ag606
ag607
ag608
ag609
ag610
ag611
ag612
ag613
ag614
ag615
ag616
ag617
ag618
ag619
ag620
ag621
ag622
ag623
ag624
ag625
ag626
ag627
ag628
ag629
ag630
ag631
ag632
ag633
ag634
asasS'summary'
p645
S'Degree-based weights and average-median qa weights'
p646
sS'trials'
p647
(lp648
I2
aI5
aI10
aI15
aI20
aI25
aI50
aI75
aI100
aI200
aI400
aI700
aI1000
aI1500
asS'q_text_entities'
p649
(lp650
S'renal mechanisms'
p651
aS'hypoxanthine metabolite'
p652
aS'antiviral agent'
p653
aS'keratoconjunctivitis'
p654
aS'HSV'
p655
aS'encephalitiscoronary vascular disease'
p656
aS'hyperlipidemia'
p657
aS'antihypertensive'
p658
asS'weights'
p659
S'deg_weight'
p660
sS'graph'
p661
S'drugbank-ext-v2.graphml'
p662
sS'date'
p663
S'2014/07/16 02:47'
p664
sS'correct'
p665
I0
sS'ans_text_entities'
p666
(lp667
(lp668
S'chlorothiazide'
p669
aa(lp670
S'captopril'
p671
aa(lp672
S'propranolol'
p673
aa(lp674
S'<http://bio2rdf.org/drugbank_resource:4ae6628acf456f373bb1241494313680>'
p675
aS'<http://bio2rdf.org/wikipedia:Zidovudine>'
p676
aas.