(dp1
S'comment'
p2
S'Different representation of question: added "ointment"'
p3
sS'expid'
p4
S'e3-q6b'
p5
sS'ans_text_entities'
p6
(lp7
(lp8
S'chlorothiazide'
p9
aa(lp10
S'captopril'
p11
aa(lp12
S'propranolol'
p13
aa(lp14
S'<http://bio2rdf.org/drugbank_resource:4ae6628acf456f373bb1241494313680>'
p15
aS'<http://bio2rdf.org/wikipedia:Zidovudine>'
p16
aasS'qid'
p17
S'Q121#5'
p18
sS'qa_dist_fn'
p19
S'avg_med_qa_dist'
p20
sS'results'
p21
(lp22
(dp23
S'output'
p24
(cnumpy.core.multiarray
scalar
p25
(cnumpy
dtype
p26
(S'i8'
I0
I1
tRp27
(I3
S'<'
NNNI-1
I-1
I0
tbS'\x00\x00\x00\x00\x00\x00\x00\x00'
tRp28
cnumpy.core.multiarray
_reconstruct
p29
(cnumpy
ndarray
p30
(I0
tS'b'
tRp31
(I1
(I4
tg26
(S'f8'
I0
I1
tRp32
(I3
S'<'
NNNI-1
I-1
I0
tbI00
S'\xe0\x94]\xd4\x92Z7@XH_\xa7\xf7\x9b7@\xda)\xb7N\xbd\xff7@h\xedi:\xee\x83;@'
tbtp33
sS'n'
I2
sS'q_len'
p34
I19
sS'q_entities'
p35
(lp36
S'<http://bio2rdf.org/drugbank_resource:a112e462608dc185f06af7d79993eea4>'
p37
aS'<http://bio2rdf.org/drugbank_resource:ac59c8ead6fd2d7cf48e494210df9d31>'
p38
aS'<http://bio2rdf.org/drugbank_resource:df2dae8a66a1619f0d81120a84119690>'
p39
aS'<http://bio2rdf.org/drugbank_resource:75aece3736e30cfcdaea37ee01ffaf0d>'
p40
aS'<http://bio2rdf.org/drugbank_resource:515388f8e80c9fd57b2440e55cf21194>'
p41
aS'<http://bio2rdf.org/drugbank_resource:8739b9a4b6e21dbd59226dd1a794cf31>'
p42
aS'<http://bio2rdf.org/drugbank_resource:27524f850c4a29f71043046d4d69f4f6>'
p43
aS'<http://bio2rdf.org/drugbank_resource:e38ddd927b3ec1308c2bca1cd4eeb8d1>'
p44
aS'<http://bio2rdf.org/drugbank_resource:b6e49069b3e39b22a03227631c16f227>'
p45
aS'<http://bio2rdf.org/drugbank_resource:b5148917dd0ba26f921fc8d5d9526b33>'
p46
aS'<http://bio2rdf.org/drugbank_resource:f1ba999c47e45a269cf2c7fa8429bce0>'
p47
aS'<http://bio2rdf.org/drugbank_resource:b420c17bb09352d48970d49323bcbed0>'
p48
aS'<http://bio2rdf.org/drugbank_resource:b420c17bb09352d48970d49323bcbed0>'
p49
aS'<http://bio2rdf.org/drugbank_resource:3cdb6e37c5a64bd24165a1d0df8c6873>'
p50
aS'<http://bio2rdf.org/drugbank_resource:2b0c1c9e8dff063b04ebdc967dfe01ac>'
p51
aS'<http://bio2rdf.org/drugbank_resource:7c3a178340714b6330c61dde5efdbdbe>'
p52
aS'<http://bio2rdf.org/drugbank_resource:99fc1f444fee76b2bfb46c98fb05e208>'
p53
aS'<http://bio2rdf.org/drugbank_vocabulary:Antihypertensive-Agents>'
p54
aS'<http://bio2rdf.org/drugbank_vocabulary:Antihypertensive-Agents>'
p55
asa(dp56
g24
(g25
(g27
S'\x00\x00\x00\x00\x00\x00\x00\x00'
tRp57
g29
(g30
(I0
tS'b'
tRp58
(I1
(I4
tg32
I00
S'\xa3\x16\xf7\x90u|7@\x7f\xcee\x92\xc6\xe97@\xf3dv\xee\x08\x168@c\xa0\xfa\x82\xda\xff:@'
tbtp59
sS'n'
I5
sg34
I44
sg35
(lp60
g37
ag38
aS'<http://bio2rdf.org/drugbank_resource:593e8ee6e79ff466e1340a68132240cb>'
p61
aS'<http://bio2rdf.org/drugbank_resource:396b7c251892da59b71667600ecee114>'
p62
aS'<http://bio2rdf.org/drugbank_resource:7ca87c549ba01586381163d1e2a61c86>'
p63
ag39
ag40
aS'<http://bio2rdf.org/drugbank_resource:a0614b522dc02657caa3f02738f992d6>'
p64
ag41
ag42
aS'<http://bio2rdf.org/drugbank_resource:6e60997d3fc71dc831fd67e0fbdd15d9>'
p65
aS'<http://bio2rdf.org/drugbank_resource:e1322c4847b4c6b1c54575991a554ac4>'
p66
aS'<http://bio2rdf.org/drugbank_resource:73668ef550de6539613a2889902dbf73>'
p67
ag43
ag44
aS'<http://bio2rdf.org/drugbank_resource:c2d3df46720da58b991ac382630f744c>'
p68
aS'<http://bio2rdf.org/drugbank_resource:3c48a354a54319aa285e08c8b919c580>'
p69
aS'<http://bio2rdf.org/drugbank_resource:1c54727b6a9a48b74b53723fbee43d80>'
p70
ag45
ag46
aS'<http://bio2rdf.org/drugbank_resource:11168e1047169f5c5034d23b19c09ead>'
p71
aS'<http://bio2rdf.org/drugbank_resource:57b70cb0332c5d3c317d2268dd1233d6>'
p72
aS'<http://bio2rdf.org/drugbank_resource:e24f7c4ac1c5b7296270f5175635a357>'
p73
ag47
ag48
ag49
aS'<http://bio2rdf.org/drugbank_resource:b420c17bb09352d48970d49323bcbed0>'
p74
aS'<http://bio2rdf.org/drugbank_resource:6f7959d8bed3871c75d984cc6916b0fd>'
p75
aS'<http://bio2rdf.org/drugbank_resource:6f7959d8bed3871c75d984cc6916b0fd>'
p76
ag50
ag51
aS'<http://bio2rdf.org/drugbank_resource:2f4dea377b1f3f006eb39dcb28fe368e>'
p77
aS'<http://bio2rdf.org/drugbank:DB00758>'
p78
aS'<http://bio2rdf.org/drugbank:DB00843>'
p79
ag52
ag53
aS'<http://bio2rdf.org/drugbank_resource:b8aa593aa534794a6c1230548cf41e08>'
p80
aS'<http://bio2rdf.org/drugbank_resource:90736d5f791d2c2b2fa6be2f2eddd863>'
p81
aS'<http://bio2rdf.org/drugbank_resource:e75d6dccef0b1d442bfd35b1b07a6cef>'
p82
ag54
ag55
aS'<http://bio2rdf.org/drugbank_vocabulary:Antihypertensive-Agents>'
p83
aS'<http://bio2rdf.org/drugbank_vocabulary:Antihypertensive-Agents>'
p84
aS'<http://bio2rdf.org/drugbank_vocabulary:Antihypertensive-Agents>'
p85
asa(dp86
g24
(g25
(g27
S'\x00\x00\x00\x00\x00\x00\x00\x00'
tRp87
g29
(g30
(I0
tS'b'
tRp88
(I1
(I4
tg32
I00
S'E\xdaB\xb3\x9bh7@\xf9@\xec7\xf9\xa77@\xf67\xeex.\t8@9\xa4\x06\xf6H\x1e:@'
tbtp89
sS'n'
I10
sg34
I77
sg35
(lp90
g37
ag38
ag61
ag62
ag63
aS'<http://bio2rdf.org/drugbank_resource:ccd7545b3e2fec46e1aba4c860b1e389>'
p91
aS'<http://bio2rdf.org/drugbank_resource:ba93eb53760e0f2b0031dfbbc5e0f729>'
p92
aS'<http://bio2rdf.org/drugbank_resource:3df21199b466a1cc75203f78c39b6271>'
p93
aS'<http://bio2rdf.org/drugbank_resource:c21339503a4270fa74737b66d5bf1366>'
p94
aS'<http://bio2rdf.org/drugbank_resource:a3918cc041d9d8b371f095ae4c9eebd4>'
p95
ag39
ag40
ag64
ag41
ag42
ag65
ag66
ag67
aS'<http://bio2rdf.org/drugbank_resource:b617b246f7807a11a1ce84e932c88537>'
p96
aS'<http://bio2rdf.org/drugbank:DB00478>'
p97
aS'<http://bio2rdf.org/drugbank_resource:4c5a18f63601fc79a778956507b27124>'
p98
aS'<http://bio2rdf.org/drugbank_resource:c2a6dc20bf727441700621bf5b76431e>'
p99
aS'<http://bio2rdf.org/drugbank_resource:ab2302a52e34fd319b8fb407e9233b89>'
p100
ag43
ag44
ag68
ag69
ag70
aS'<http://bio2rdf.org/drugbank:DB00432>'
p101
aS'<http://bio2rdf.org/drugbank:DB05370>'
p102
aS'<http://bio2rdf.org/drugbank:DB00840>'
p103
ag45
ag46
ag71
ag72
ag73
aS'<http://bio2rdf.org/drugbank_resource:bc897473441e06dd07310521ae45dd38>'
p104
aS'<http://bio2rdf.org/drugbank_resource:d86aa8df2a7f00be2c360ec724beff42>'
p105
aS'<http://bio2rdf.org/drugbank_resource:32dc7fd32146dc55e4bb7ae8c80111ef>'
p106
aS'<http://bio2rdf.org/drugbank_resource:9d9aff577549d959cbdb935abe34bee0>'
p107
aS'<http://bio2rdf.org/drugbank_resource:0a61abac69324cb6158a2af2f5941c84>'
p108
ag47
ag48
ag49
ag74
ag75
ag76
aS'<http://bio2rdf.org/drugbank_resource:6f7959d8bed3871c75d984cc6916b0fd>'
p109
aS'<http://bio2rdf.org/drugbank_resource:Hemorrhoidal-Ointment>'
p110
aS'<http://bio2rdf.org/drugbank_resource:Proctol-Ointment>'
p111
aS'<http://bio2rdf.org/drugbank_resource:Proctosedyl-Ointment>'
p112
aS'<http://bio2rdf.org/drugbank_resource:Oribiotic-Ointment>'
p113
ag50
ag51
ag77
ag78
ag79
ag52
ag53
ag80
ag81
ag82
aS'<http://bio2rdf.org/drugbank_resource:95ab1b5abb9a3e7ce18f5876f4420c54>'
p114
aS'<http://bio2rdf.org/drugbank_resource:17a46c07cf163e99bdfc71b319b7e5b2>'
p115
aS'<http://bio2rdf.org/drugbank_resource:4321b0e588a071a285a0894233fb4818>'
p116
aS'<http://bio2rdf.org/drugbank_resource:488a38d3ab5f61e2dfc0364ad688014e>'
p117
aS'<http://bio2rdf.org/drugbank:DB08869>'
p118
ag54
ag55
ag83
ag84
ag85
aS'<http://bio2rdf.org/drugbank:DB00622>'
p119
aS'<http://bio2rdf.org/drugbank:DB01054>'
p120
aS'<http://bio2rdf.org/drugbank:DB01244>'
p121
aS'<http://bio2rdf.org/drugbank_resource:4eec8a1d53f93a2f22a59af87ad2b861>'
p122
aS'<http://bio2rdf.org/drugbank_resource:43acffd9abcc94d57ef8b28570255ac8>'
p123
asa(dp124
g24
(g25
(g27
S'\x01\x00\x00\x00\x00\x00\x00\x00'
tRp125
g29
(g30
(I0
tS'b'
tRp126
(I1
(I4
tg32
I00
S'\xdc\xe0\x0b\x93i\xb37@\xd5\x87.\xa8\xaf\x887@T\xaa\x1eC\xdaV8@u\x08\xf6r2\x16:@'
tbtp127
sS'n'
I15
sg34
I105
sg35
(lp128
g37
ag38
ag61
ag62
ag63
ag91
ag92
ag93
ag94
ag95
aS'<http://bio2rdf.org/drugbank_resource:4ad41c99fc1549e04d37f76771680d18>'
p129
aS'<http://bio2rdf.org/drugbank_resource:4ad6a18a246dd57ce40f067e634c5c5a>'
p130
aS'<http://bio2rdf.org/drugbank_resource:d101d5ad45bc972c41338853510c387f>'
p131
aS'<http://bio2rdf.org/drugbank_resource:62d40bf776fe7f42fbd5514cdea0c38d>'
p132
aS'<http://bio2rdf.org/drugbank_resource:e3b5379ef00e8416602edb2a1314c7cf>'
p133
ag39
ag40
ag64
ag41
ag42
ag65
ag66
ag67
ag96
ag97
ag98
ag99
ag100
aS'<http://bio2rdf.org/drugbank_resource:2fd6ab4b4f299529c056169e49af293d>'
p134
aS'<http://bio2rdf.org/drugbank:DB02823>'
p135
aS'<http://bio2rdf.org/drugbank_resource:d82d0f443581d4f7d1905058dcb4d00e>'
p136
aS'<http://bio2rdf.org/drugbank:DB08831>'
p137
aS'<http://bio2rdf.org/drugbank_resource:9419765f866da7481fa03a5523e87160>'
p138
ag43
ag44
ag68
ag69
ag70
ag101
ag102
ag103
ag45
ag46
ag71
ag72
ag73
ag104
ag105
ag106
ag107
ag108
aS'<http://bio2rdf.org/drugbank_resource:7fe545cfba3654647aeb9bbe80fe5c29>'
p139
aS'<http://bio2rdf.org/drugbank_resource:3ac0d2a1a6f90bb06b44a128c5f644dd>'
p140
aS'<http://bio2rdf.org/drugbank_resource:d9ea663823ba777b61d6178c216ba28d>'
p141
aS'<http://bio2rdf.org/drugbank_resource:b9c39a93311e73f29c13f1edfef52839>'
p142
aS'<http://bio2rdf.org/drugbank_resource:2fd6ab4b4f299529c056169e49af293d>'
p143
ag47
ag48
ag49
ag74
ag75
ag76
ag109
ag110
ag111
ag112
ag113
aS'<http://bio2rdf.org/drugbank_resource:Panolog-Ointment>'
p144
aS'<http://bio2rdf.org/drugbank_resource:Medicated-ointment>'
p145
aS'<http://bio2rdf.org/drugbank_resource:Otomax-Ointment>'
p146
aS'<http://bio2rdf.org/drugbank_resource:Dioptimyd-Ointment>'
p147
aS'<http://bio2rdf.org/drugbank_resource:Diosporin-ointment>'
p148
ag50
ag51
ag77
ag78
ag79
ag52
ag53
ag80
ag81
ag82
ag114
ag115
ag116
ag117
ag118
aS'<http://bio2rdf.org/drugbank_resource:0d2a44da2b2f6a574547df98e127ee50>'
p149
aS'<http://bio2rdf.org/drugbank_resource:e3366f1e91e29ba801a886a2be9dad64>'
p150
aS'<http://bio2rdf.org/drugbank_resource:5f3be7b16495ba58cfb6e691478c9ea5>'
p151
ag54
ag55
ag83
ag84
ag85
ag119
ag120
ag121
ag122
ag123
aS'<http://bio2rdf.org/drugbank_resource:f3207eabdc64a2dbbaf9ed45b5e9fc41>'
p152
aS'<http://bio2rdf.org/drugbank_resource:dd727d027bb26d173be7d4cef20e5fbc>'
p153
aS'<http://bio2rdf.org/drugbank_resource:08ec4557f07d559641a852e9f8149d74>'
p154
aS'<http://bio2rdf.org/drugbank_resource:0d5dd7e0f457e18bc1e194ada27bb711>'
p155
aS'<http://bio2rdf.org/drugbank_resource:55d5f3df2fa62407e66884467ddf0390>'
p156
asa(dp157
g24
(g25
(g27
S'\x01\x00\x00\x00\x00\x00\x00\x00'
tRp158
g29
(g30
(I0
tS'b'
tRp159
(I1
(I4
tg32
I00
S'\rz\xc3\xac\x8f\xb47@a\xd0\x0e\xfc\x01r7@\xe8q\xca\xc2yI8@\xc6\x05\x91@?\x02:@'
tbtp160
sS'n'
I20
sg34
I126
sg35
(lp161
g37
ag38
ag61
ag62
ag63
ag91
ag92
ag93
ag94
ag95
ag129
ag130
ag131
ag132
ag133
aS'<http://bio2rdf.org/drugbank:DB05387>'
p162
ag39
ag40
ag64
ag41
ag42
ag65
ag66
ag67
ag96
ag97
ag98
ag99
ag100
ag134
ag135
ag136
ag137
ag138
aS'<http://bio2rdf.org/drugbank_resource:e064b83b901106207c6d0edbee634798>'
p163
aS'<http://bio2rdf.org/drugbank:DB00811>'
p164
aS'<http://bio2rdf.org/drugbank:DB00529>'
p165
aS'<http://bio2rdf.org/drugbank:DB00915>'
p166
aS'<http://bio2rdf.org/drugbank:DB00987>'
p167
ag43
ag44
ag68
ag69
ag70
ag101
ag102
ag103
ag45
ag46
ag71
ag72
ag73
ag104
ag105
ag106
ag107
ag108
ag139
ag140
ag141
ag142
ag143
aS'<http://bio2rdf.org/drugbank:BE0001541>'
p168
aS'<http://bio2rdf.org/drugbank:DB00632>'
p169
aS'<http://bio2rdf.org/drugbank:DB05811>'
p170
aS'<http://bio2rdf.org/drugbank:DB05811>'
p171
aS'<http://bio2rdf.org/drugbank:DB05811>'
p172
ag47
ag48
ag49
ag74
ag75
ag76
ag109
ag110
ag111
ag112
ag113
ag144
ag145
ag146
ag147
ag148
aS'<http://bio2rdf.org/drugbank_resource:Camphorated-ointment-compound>'
p173
aS'<http://bio2rdf.org/drugbank_resource:Polyderm-Ointment-Usp>'
p174
aS'<http://bio2rdf.org/drugbank_resource:Bebia-Ointment-Pommade>'
p175
aS'<http://bio2rdf.org/drugbank_resource:Derma-4-Ointment>'
p176
aS'<http://bio2rdf.org/drugbank_resource:Pain-relieving-ointment>'
p177
ag50
ag51
ag77
ag78
ag79
ag52
ag53
ag80
ag81
ag82
ag114
ag115
ag116
ag117
ag118
ag149
ag150
ag151
ag54
ag55
ag83
ag84
ag85
ag119
ag120
ag121
ag122
ag123
ag152
ag153
ag154
ag155
ag156
aS'<http://bio2rdf.org/drugbank_resource:81ae6685028fb307b37fb9f4e8b50810>'
p178
aS'<http://bio2rdf.org/drugbank_resource:704e29893916a46f6644b93bee94b5ff>'
p179
aS'<http://bio2rdf.org/drugbank_resource:5f08192b75d470e5fc7a564e3853dc02>'
p180
aS'<http://bio2rdf.org/drugbank_resource:074fba1330eef367813e19c20ce45379>'
p181
aS'<http://bio2rdf.org/drugbank:DB01180>'
p182
asa(dp183
g24
(g25
(g27
S'\x01\x00\x00\x00\x00\x00\x00\x00'
tRp184
g29
(g30
(I0
tS'b'
tRp185
(I1
(I4
tg32
I00
S' \t\xcd]\x91\xc67@\x00Q\x99\xd6\xc9\xa27@c7K\x83\xd0n8@ Z \x92\xdb$:@'
tbtp186
sS'n'
I25
sg34
I141
sg35
(lp187
g37
ag38
ag61
ag62
ag63
ag91
ag92
ag93
ag94
ag95
ag129
ag130
ag131
ag132
ag133
ag162
ag39
ag40
ag64
ag41
ag42
ag65
ag66
ag67
ag96
ag97
ag98
ag99
ag100
ag134
ag135
ag136
ag137
ag138
ag163
ag164
ag165
ag166
ag167
aS'<http://bio2rdf.org/drugbank:DB06151>'
p188
aS'<http://bio2rdf.org/drugbank_resource:DB00404_DB00625>'
p189
aS'<http://bio2rdf.org/drugbank_resource:DB00404_DB00705>'
p190
aS'<http://bio2rdf.org/drugbank_resource:DB00625_DB00897>'
p191
aS'<http://bio2rdf.org/drugbank_resource:DB00625_DB00683>'
p192
ag43
ag44
ag68
ag69
ag70
ag101
ag102
ag103
ag45
ag46
ag71
ag72
ag73
ag104
ag105
ag106
ag107
ag108
ag139
ag140
ag141
ag142
ag143
ag168
ag169
ag170
ag171
ag172
ag47
ag48
ag49
ag74
ag75
ag76
ag109
ag110
ag111
ag112
ag113
ag144
ag145
ag146
ag147
ag148
ag173
ag174
ag175
ag176
ag177
aS'<http://bio2rdf.org/drugbank_resource:Garasone-Ophthalmic-Ointment>'
p193
aS'<http://bio2rdf.org/drugbank_resource:Valisone-G-Ointment>'
p194
aS'<http://bio2rdf.org/drugbank_resource:Balminil-nasal-ointment>'
p195
aS'<http://bio2rdf.org/drugbank_resource:Instant-rub-ointment>'
p196
aS'<http://bio2rdf.org/drugbank_resource:Youngflex-massage-ointment-168>'
p197
ag50
ag51
ag77
ag78
ag79
ag52
ag53
ag80
ag81
ag82
ag114
ag115
ag116
ag117
ag118
ag149
ag150
ag151
ag54
ag55
ag83
ag84
ag85
ag119
ag120
ag121
ag122
ag123
ag152
ag153
ag154
ag155
ag156
ag178
ag179
ag180
ag181
ag182
aS'<http://bio2rdf.org/drugbank_resource:f279d027bd5d680374fae6ddbc5b5ab9>'
p198
aS'<http://bio2rdf.org/drugbank_resource:4c8f89fe1cd307779aff11b7fb7b15b8>'
p199
aS'<http://bio2rdf.org/drugbank_resource:23ddaba4f4fdf3f325735fa73db9cf07>'
p200
aS'<http://bio2rdf.org/drugbank_resource:d9babcca79e4aea2a9be1482dc15f886>'
p201
aS'<http://bio2rdf.org/drugbank_resource:afaff38f7d2a9e813435ff2fc71757f0>'
p202
asa(dp203
g24
(g25
(g27
S'\x00\x00\x00\x00\x00\x00\x00\x00'
tRp204
g29
(g30
(I0
tS'b'
tRp205
(I1
(I4
tg32
I00
S"T\xb9\xcdy\x97\xb07@?\xf4P\x85j\xdd7@\x04\xf0\x9b\x1c\x11p8@\xb4\x0e\xba.'6:@"
tbtp206
sS'n'
I50
sg34
I206
sg35
(lp207
g37
ag38
ag61
ag62
ag63
ag91
ag92
ag93
ag94
ag95
ag129
ag130
ag131
ag132
ag133
ag162
ag39
ag40
ag64
ag41
ag42
ag65
ag66
ag67
ag96
ag97
ag98
ag99
ag100
ag134
ag135
ag136
ag137
ag138
ag163
ag164
ag165
ag166
ag167
ag188
ag189
ag190
ag191
ag192
aS'<http://bio2rdf.org/drugbank_resource:DB00705_DB00897>'
p208
aS'<http://bio2rdf.org/drugbank_resource:DB00683_DB00705>'
p209
aS'<http://bio2rdf.org/drugbank_resource:DB00900_DB01004>'
p210
aS'<http://bio2rdf.org/drugbank_resource:DB00404_DB00705>'
p211
aS'<http://bio2rdf.org/drugbank_resource:DB00404_DB00625>'
p212
aS'<http://bio2rdf.org/drugbank_resource:DB00625_DB00897>'
p213
aS'<http://bio2rdf.org/drugbank_resource:DB00625_DB00683>'
p214
aS'<http://bio2rdf.org/drugbank_resource:DB00705_DB00897>'
p215
aS'<http://bio2rdf.org/drugbank_resource:DB00683_DB00705>'
p216
aS'<http://bio2rdf.org/drugbank_resource:DB00900_DB01004>'
p217
aS'<http://bio2rdf.org/drugbank:DB00249>'
p218
aS'<http://bio2rdf.org/drugbank:DB00707>'
p219
aS'<http://bio2rdf.org/drugbank:DB00105>'
p220
aS'<http://bio2rdf.org/drugbank:DB00034>'
p221
aS'<http://bio2rdf.org/drugbank:DB05176>'
p222
ag43
ag44
ag68
ag69
ag70
ag101
ag102
ag103
ag45
ag46
ag71
ag72
ag73
ag104
ag105
ag106
ag107
ag108
ag139
ag140
ag141
ag142
ag143
ag168
ag169
ag170
ag171
ag172
ag47
ag48
ag49
ag74
ag75
ag76
ag109
ag110
ag111
ag112
ag113
ag144
ag145
ag146
ag147
ag148
ag173
ag174
ag175
ag176
ag177
ag193
ag194
ag195
ag196
ag197
aS'<http://bio2rdf.org/drugbank_resource:Watkins-medicated-ointment>'
p223
aS'<http://bio2rdf.org/drugbank_resource:Vicks-vaporub-lemon-ointment>'
p224
aS'<http://bio2rdf.org/drugbank_resource:Triple-Antibiotic-Plus-Ointment>'
p225
aS'<http://bio2rdf.org/drugbank_resource:GyneCure-Vaginal-Ointment-Tandempak-6.5%>'
p226
aS'<http://bio2rdf.org/drugbank_resource:Sofracort-Ear/Eye-Ointment>'
p227
aS'<http://bio2rdf.org/drugbank_resource:Sofracort-Sterile-Ear/Eye-Ointment>'
p228
aS'<http://bio2rdf.org/drugbank_resource:18c9da05d7f42d42b8aceefdee585757>'
p229
aS'<http://bio2rdf.org/drugbank_resource:18c9da05d7f42d42b8aceefdee585757>'
p230
aS'<http://bio2rdf.org/drugbank_resource:18c9da05d7f42d42b8aceefdee585757>'
p231
aS'<http://bio2rdf.org/drugbank_resource:e33a86226f8d3e427ea05d3cee52e694>'
p232
aS'<http://bio2rdf.org/drugbank_resource:0bd93d17b922b64f35a428f1014d4194>'
p233
aS'<http://bio2rdf.org/drugbank_resource:e33a86226f8d3e427ea05d3cee52e694>'
p234
aS'<http://bio2rdf.org/drugbank_resource:Hemorrhoidal-Ointment>'
p235
aS'<http://bio2rdf.org/drugbank_resource:Proctol-Ointment>'
p236
aS'<http://bio2rdf.org/drugbank_resource:Proctosedyl-Ointment>'
p237
aS'<http://bio2rdf.org/drugbank_resource:Oribiotic-Ointment>'
p238
aS'<http://bio2rdf.org/drugbank_resource:Panolog-Ointment>'
p239
aS'<http://bio2rdf.org/drugbank_resource:Camphorated-ointment-compound>'
p240
aS'<http://bio2rdf.org/drugbank_resource:Medicated-ointment>'
p241
aS'<http://bio2rdf.org/drugbank_resource:Otomax-Ointment>'
p242
aS'<http://bio2rdf.org/drugbank_resource:Polyderm-Ointment-Usp>'
p243
aS'<http://bio2rdf.org/drugbank_resource:Dioptimyd-Ointment>'
p244
aS'<http://bio2rdf.org/drugbank_resource:Diosporin-ointment>'
p245
aS'<http://bio2rdf.org/drugbank_resource:0bd93d17b922b64f35a428f1014d4194>'
p246
aS'<http://bio2rdf.org/drugbank_resource:Bebia-Ointment-Pommade>'
p247
ag50
ag51
ag77
ag78
ag79
ag52
ag53
ag80
ag81
ag82
ag114
ag115
ag116
ag117
ag118
ag149
ag150
ag151
ag54
ag55
ag83
ag84
ag85
ag119
ag120
ag121
ag122
ag123
ag152
ag153
ag154
ag155
ag156
ag178
ag179
ag180
ag181
ag182
ag198
ag199
ag200
ag201
ag202
aS'<http://bio2rdf.org/drugbank_resource:aa0041b5f83ff6c1c636c3b4b567a786>'
p248
aS'<http://bio2rdf.org/drugbank_resource:1f89bd8aff1b81fca39dc07e9cc8127b>'
p249
aS'<http://bio2rdf.org/drugbank_resource:dd6570002a90956db0339d46fb775ea4>'
p250
aS'<http://bio2rdf.org/drugbank:DB01342>'
p251
aS'<http://bio2rdf.org/drugbank_resource:fc84216811a27a270d96e86d3ca60470>'
p252
aS'<http://bio2rdf.org/drugbank_resource:5c89e061fb3d04ca247827a6673530bc>'
p253
aS'<http://bio2rdf.org/drugbank_resource:dfd03cd339d86fde0cb8db41bc9af965>'
p254
aS'<http://bio2rdf.org/drugbank:DB01089>'
p255
aS'<http://bio2rdf.org/drugbank_resource:2a35712b1ad3d12dad7ace99e9aa96ce>'
p256
aS'<http://bio2rdf.org/drugbank_resource:c529b8304f04bcaf40c2c9a831e7c160>'
p257
aS'<http://bio2rdf.org/drugbank_resource:6800dd8fdaea5b6ca29aa9afc1a6eb39>'
p258
aS'<http://bio2rdf.org/drugbank_resource:133fd7de75b9278bf710d7dc68a19bcc>'
p259
aS'<http://bio2rdf.org/drugbank_resource:d031dd8350b40be8085a2cd9bdaca344>'
p260
aS'<http://bio2rdf.org/drugbank_resource:32337b11ec454f045ec27c069cc80fd0>'
p261
aS'<http://bio2rdf.org/drugbank_resource:e241e20e961a2056047efd31b0d7a763>'
p262
aS'<http://bio2rdf.org/drugbank_resource:2e7cc5062d9daa52291fb3f4d58a9121>'
p263
aS'<http://bio2rdf.org/drugbank_resource:e83ed156901fa72e00d38fe8ff8b8780>'
p264
aS'<http://bio2rdf.org/drugbank_resource:067055e2d7fc4aea9df8aa2fecea3f04>'
p265
aS'<http://bio2rdf.org/drugbank_resource:f104446b9f43695d63f4b4758d6ec57c>'
p266
aS'<http://bio2rdf.org/drugbank_resource:ab66c2051c8dc396b12ec46325d8d736>'
p267
aS'<http://bio2rdf.org/drugbank_resource:f6e09d48403bc65ac0b1fab3a85fb888>'
p268
aS'<http://bio2rdf.org/drugbank_resource:a498fa20e37a78af9697e244db4d70fe>'
p269
aS'<http://bio2rdf.org/drugbank_resource:d90bc3dcf12ef6dec30b9635204f17d6>'
p270
aS'<http://bio2rdf.org/drugbank_resource:f2a561f6b80747ed01b9e45a0fd7263c>'
p271
aS'<http://bio2rdf.org/drugbank_resource:33de50389a8636424ce4fcd8737f301c>'
p272
asa(dp273
g24
(g25
(g27
S'\x00\x00\x00\x00\x00\x00\x00\x00'
tRp274
g29
(g30
(I0
tS'b'
tRp275
(I1
(I4
tg32
I00
S'P\xdb\xf5\xfc\x97\x837@\t\xfb\x03z\xf8\xe67@\xb8j\xad\x01\xa2V8@T\x9c\x94\xb0\xdeR:@'
tbtp276
sS'n'
I75
sg34
I256
sg35
(lp277
g37
ag38
ag61
ag62
ag63
ag91
ag92
ag93
ag94
ag95
ag129
ag130
ag131
ag132
ag133
ag162
ag39
ag40
ag64
ag41
ag42
ag65
ag66
ag67
ag96
ag97
ag98
ag99
ag100
ag134
ag135
ag136
ag137
ag138
ag163
ag164
ag165
ag166
ag167
ag188
ag189
ag190
ag191
ag192
ag208
ag209
ag210
ag211
ag212
ag213
ag214
ag215
ag216
ag217
ag218
ag219
ag220
ag221
ag222
ag43
ag44
ag68
ag69
ag70
ag101
ag102
ag103
ag45
ag46
ag71
ag72
ag73
ag104
ag105
ag106
ag107
ag108
ag139
ag140
ag141
ag142
ag143
ag168
ag169
ag170
ag171
ag172
ag47
ag48
ag49
ag74
ag75
ag76
ag109
ag110
ag111
ag112
ag113
ag144
ag145
ag146
ag147
ag148
ag173
ag174
ag175
ag176
ag177
ag193
ag194
ag195
ag196
ag197
ag223
ag224
ag225
ag226
ag227
ag228
ag229
ag230
ag231
ag232
ag233
ag234
ag235
ag236
ag237
ag238
ag239
ag240
ag241
ag242
ag243
ag244
ag245
ag246
ag247
aS'<http://bio2rdf.org/drugbank_resource:Hemorrhoidal-Ointment>'
p278
aS'<http://bio2rdf.org/drugbank_resource:Proctol-Ointment>'
p279
aS'<http://bio2rdf.org/drugbank_resource:Proctosedyl-Ointment>'
p280
aS'<http://bio2rdf.org/drugbank_resource:Oribiotic-Ointment>'
p281
aS'<http://bio2rdf.org/drugbank_resource:Panolog-Ointment>'
p282
aS'<http://bio2rdf.org/drugbank_resource:Camphorated-ointment-compound>'
p283
aS'<http://bio2rdf.org/drugbank_resource:Medicated-ointment>'
p284
aS'<http://bio2rdf.org/drugbank_resource:Otomax-Ointment>'
p285
aS'<http://bio2rdf.org/drugbank_resource:Polyderm-Ointment-Usp>'
p286
aS'<http://bio2rdf.org/drugbank_resource:Dioptimyd-Ointment>'
p287
aS'<http://bio2rdf.org/drugbank_resource:Diosporin-ointment>'
p288
aS'<http://bio2rdf.org/drugbank_resource:Bebia-Ointment-Pommade>'
p289
aS'<http://bio2rdf.org/drugbank_resource:a6deac13209ecaf808a90fb625814d3a>'
p290
aS'<http://bio2rdf.org/drugbank_resource:8431eec9ae5b19b22b008b68aca76b95>'
p291
aS'<http://bio2rdf.org/drugbank_resource:e92d1cd79d98ecb34ab9d9ec05aeec05>'
p292
aS'<http://bio2rdf.org/drugbank_resource:4cdacd7f31cd5c62a105b19053b9d581>'
p293
aS'<http://bio2rdf.org/drugbank_resource:dc6432fcf7a8e348cd8b046f73401f21>'
p294
aS'<http://bio2rdf.org/drugbank_resource:4e6f0845bf9e2ffc37bb241d93c750f8>'
p295
aS'<http://bio2rdf.org/drugbank_resource:9feb7273bcf3b300fd1eb675938493cc>'
p296
aS'<http://bio2rdf.org/drugbank_resource:4df0f5133e2671f927fbfc4f11f7c8ef>'
p297
aS'<http://bio2rdf.org/drugbank_resource:556ad0fc23b6efebdd96c74f855eb0ef>'
p298
aS'<http://bio2rdf.org/drugbank_resource:b2cf40bc9a2299ced5dc7093d7a2a5b4>'
p299
aS'<http://bio2rdf.org/drugbank_resource:c5fbaea328ec78830968760db2c076c5>'
p300
aS'<http://bio2rdf.org/drugbank_resource:e29a9574affe3965b79881590547bded>'
p301
aS'<http://bio2rdf.org/drugbank_resource:58f5107a952459dbdcc1ae522b2d7dc3>'
p302
ag50
ag51
ag77
ag78
ag79
ag52
ag53
ag80
ag81
ag82
ag114
ag115
ag116
ag117
ag118
ag149
ag150
ag151
ag54
ag55
ag83
ag84
ag85
ag119
ag120
ag121
ag122
ag123
ag152
ag153
ag154
ag155
ag156
ag178
ag179
ag180
ag181
ag182
ag198
ag199
ag200
ag201
ag202
ag248
ag249
ag250
ag251
ag252
ag253
ag254
ag255
ag256
ag257
ag258
ag259
ag260
ag261
ag262
ag263
ag264
ag265
ag266
ag267
ag268
ag269
ag270
ag271
ag272
aS'<http://bio2rdf.org/drugbank_resource:54f313233364eb8e85fe68a24e17bf44>'
p303
aS'<http://bio2rdf.org/drugbank_resource:236ca982179c37228149c68985e4efdb>'
p304
aS'<http://bio2rdf.org/drugbank_resource:8cc19f6ee96178566cdb60f664894141>'
p305
aS'<http://bio2rdf.org/drugbank_resource:1a81e86caa7ad7b2b10cab15df7de1e0>'
p306
aS'<http://bio2rdf.org/drugbank_resource:0608119dcfb6fa2cd2bbe902f2a502f5>'
p307
aS'<http://bio2rdf.org/drugbank_resource:6ab3e974adffc3f4495da44988a08429>'
p308
aS'<http://bio2rdf.org/drugbank_resource:ce8ac174ac0fa56d5eb3b26a97ca4a98>'
p309
aS'<http://bio2rdf.org/drugbank_resource:955d031c23cd941cabcca488d57e6e2f>'
p310
aS'<http://bio2rdf.org/drugbank_resource:0e245d567924fc725034ebc2a26f1fe9>'
p311
aS'<http://bio2rdf.org/drugbank_resource:f0c6d4b74881be4f8f889933799bfeb3>'
p312
aS'<http://bio2rdf.org/drugbank_resource:61b0f3bf692a73adf440b2c5c4525e35>'
p313
aS'<http://bio2rdf.org/drugbank_resource:b65e700d6415337416af91a1a47b4ee2>'
p314
aS'<http://bio2rdf.org/drugbank_resource:5f2a8ea81bf3463bece12c29dfb642ad>'
p315
aS'<http://bio2rdf.org/drugbank_resource:198a4d7eb092eafbc0886e83a53bcecb>'
p316
aS'<http://bio2rdf.org/drugbank_resource:949bd03adad105ab05821ddbc60602ee>'
p317
aS'<http://bio2rdf.org/drugbank_resource:5b9d67207eea52d4bb03e4b615c89319>'
p318
aS'<http://bio2rdf.org/drugbank_resource:61b707c95406b43c37ccdaa6e27a8b0e>'
p319
aS'<http://bio2rdf.org/drugbank_resource:0d6c2d69694888a1562c27a1ac73e4b2>'
p320
aS'<http://bio2rdf.org/drugbank_resource:9b2ec8161543fc868b69db6e0ec6386c>'
p321
aS'<http://bio2rdf.org/drugbank_resource:6464ceab8ac90dccfbc0cc7ae9afeb1a>'
p322
aS'<http://bio2rdf.org/drugbank_resource:5266c60350b1d93d98f642825cd2f565>'
p323
aS'<http://bio2rdf.org/drugbank:DB00217>'
p324
aS'<http://bio2rdf.org/drugbank:DB00800>'
p325
aS'<http://bio2rdf.org/drugbank:DB00275>'
p326
aS'<http://bio2rdf.org/drugbank:DB00373>'
p327
asa(dp328
g24
(g25
(g27
S'\x00\x00\x00\x00\x00\x00\x00\x00'
tRp329
g29
(g30
(I0
tS'b'
tRp330
(I1
(I4
tg32
I00
S'_\x9b){\xb2\xa27@\xdd\x86W\\\x81\xd77@\x0e5\x81\xc1\xa1\t8@\r@\xc6\x8a\xf1m:@'
tbtp331
sS'n'
I100
sg34
I306
sg35
(lp332
g37
ag38
ag61
ag62
ag63
ag91
ag92
ag93
ag94
ag95
ag129
ag130
ag131
ag132
ag133
ag162
ag39
ag40
ag64
ag41
ag42
ag65
ag66
ag67
ag96
ag97
ag98
ag99
ag100
ag134
ag135
ag136
ag137
ag138
ag163
ag164
ag165
ag166
ag167
ag188
ag189
ag190
ag191
ag192
ag208
ag209
ag210
ag211
ag212
ag213
ag214
ag215
ag216
ag217
ag218
ag219
ag220
ag221
ag222
ag43
ag44
ag68
ag69
ag70
ag101
ag102
ag103
ag45
ag46
ag71
ag72
ag73
ag104
ag105
ag106
ag107
ag108
ag139
ag140
ag141
ag142
ag143
ag168
ag169
ag170
ag171
ag172
ag47
ag48
ag49
ag74
ag75
ag76
ag109
ag110
ag111
ag112
ag113
ag144
ag145
ag146
ag147
ag148
ag173
ag174
ag175
ag176
ag177
ag193
ag194
ag195
ag196
ag197
ag223
ag224
ag225
ag226
ag227
ag228
ag229
ag230
ag231
ag232
ag233
ag234
ag235
ag236
ag237
ag238
ag239
ag240
ag241
ag242
ag243
ag244
ag245
ag246
ag247
ag278
ag279
ag280
ag281
ag282
ag283
ag284
ag285
ag286
ag287
ag288
ag289
ag290
ag291
ag292
ag293
ag294
ag295
ag296
ag297
ag298
ag299
ag300
ag301
ag302
aS'<http://bio2rdf.org/drugbank_resource:5795e96df3fce346ec800d3726ce9b86>'
p333
aS'<http://bio2rdf.org/drugbank_resource:43ec5754f4dfdcbcb6ecdccec56b44b2>'
p334
aS'<http://bio2rdf.org/drugbank_resource:4a3e5c53eb134a6f9806c3be36c19dbd>'
p335
aS'<http://bio2rdf.org/drugbank_resource:43fbe962f54fedbcb2bee565b2c0087f>'
p336
aS'<http://bio2rdf.org/drugbank_resource:a8444f835c9a5361d3d1c753455f9919>'
p337
aS'<http://bio2rdf.org/drugbank_resource:a3072e957c413c27a266ec9c6698c6ea>'
p338
aS'<http://bio2rdf.org/drugbank_resource:8b5f4e598ac059214c021b72fb7d837a>'
p339
aS'<http://bio2rdf.org/drugbank_resource:05f87d4999380d12178feabede229f24>'
p340
aS'<http://bio2rdf.org/drugbank_resource:06ff4fcc87d2a44ed1bfff11a958a26c>'
p341
aS'<http://bio2rdf.org/drugbank_resource:c8f666d62dce5c66664a096a05f0db1a>'
p342
aS'<http://bio2rdf.org/drugbank_resource:e82628a65bbabcbcc86a13d13133afc4>'
p343
aS'<http://bio2rdf.org/drugbank_resource:2b2f2b9d4d5a4b1c4629b85e979217f5>'
p344
aS'<http://bio2rdf.org/drugbank_resource:bab4c224de1fa85d6015e7f74383a327>'
p345
aS'<http://bio2rdf.org/drugbank_resource:3c39c6c398cfc27045a879b6c536660b>'
p346
aS'<http://bio2rdf.org/drugbank_resource:1c2376fea743336d4a08e4449f21a42e>'
p347
aS'<http://bio2rdf.org/drugbank_resource:92aa8a0cd9b9bb81e7bc643ef016783a>'
p348
aS'<http://bio2rdf.org/drugbank_resource:f5fba9c0521d31d983c7e010fb4db54e>'
p349
aS'<http://bio2rdf.org/drugbank_resource:d620f02c687ed2a83a0de50d8d826e77>'
p350
aS'<http://bio2rdf.org/drugbank_resource:b04a1b13b4a0889442f70b302d8bef11>'
p351
aS'<http://bio2rdf.org/drugbank_resource:6aefcb721b9dc639e4e6b1e00c70ffc3>'
p352
aS'<http://bio2rdf.org/drugbank_resource:80e610d00d66dbadf4731d056c28ffc0>'
p353
aS'<http://bio2rdf.org/drugbank_resource:c3b74b5ed581d5b477a17f51730b6faf>'
p354
aS'<http://bio2rdf.org/drugbank_resource:204607bec90fe8c7407606c3d8b43a03>'
p355
aS'<http://bio2rdf.org/drugbank_resource:ad642b53418b3b054813847cbcff1623>'
p356
aS'<http://bio2rdf.org/drugbank_resource:b2621696aa4223045c6b695d76af5149>'
p357
ag50
ag51
ag77
ag78
ag79
ag52
ag53
ag80
ag81
ag82
ag114
ag115
ag116
ag117
ag118
ag149
ag150
ag151
ag54
ag55
ag83
ag84
ag85
ag119
ag120
ag121
ag122
ag123
ag152
ag153
ag154
ag155
ag156
ag178
ag179
ag180
ag181
ag182
ag198
ag199
ag200
ag201
ag202
ag248
ag249
ag250
ag251
ag252
ag253
ag254
ag255
ag256
ag257
ag258
ag259
ag260
ag261
ag262
ag263
ag264
ag265
ag266
ag267
ag268
ag269
ag270
ag271
ag272
ag303
ag304
ag305
ag306
ag307
ag308
ag309
ag310
ag311
ag312
ag313
ag314
ag315
ag316
ag317
ag318
ag319
ag320
ag321
ag322
ag323
ag324
ag325
ag326
ag327
aS'<http://bio2rdf.org/drugbank:DB00598>'
p358
aS'<http://bio2rdf.org/drugbank:DB00206>'
p359
aS'<http://bio2rdf.org/drugbank:DB00866>'
p360
aS'<http://bio2rdf.org/drugbank:DB02587>'
p361
aS'<http://bio2rdf.org/drugbank:DB00606>'
p362
aS'<http://bio2rdf.org/drugbank:DB01348>'
p363
aS'<http://bio2rdf.org/drugbank:DB00521>'
p364
aS'<http://bio2rdf.org/drugbank:DB01018>'
p365
aS'<http://bio2rdf.org/drugbank:DB01275>'
p366
aS'<http://bio2rdf.org/drugbank:DB00968>'
p367
aS'<http://bio2rdf.org/drugbank:DB01170>'
p368
aS'<http://bio2rdf.org/drugbank:DB01612>'
p369
aS'<http://bio2rdf.org/drugbank:DB01626>'
p370
aS'<http://bio2rdf.org/drugbank_resource:DB00073_DB01162>'
p371
aS'<http://bio2rdf.org/drugbank_resource:DB00073_DB00214>'
p372
aS'<http://bio2rdf.org/drugbank_resource:DB00073_DB01021>'
p373
aS'<http://bio2rdf.org/drugbank_resource:DB00346_DB01162>'
p374
aS'<http://bio2rdf.org/drugbank_resource:DB00706_DB06207>'
p375
aS'<http://bio2rdf.org/drugbank_resource:DB01162_DB06207>'
p376
aS'<http://bio2rdf.org/drugbank_resource:DB00073_DB01021>'
p377
aS'<http://bio2rdf.org/drugbank_resource:DB00073_DB01162>'
p378
aS'<http://bio2rdf.org/drugbank_resource:DB00073_DB00214>'
p379
aS'<http://bio2rdf.org/drugbank_resource:DB00346_DB01162>'
p380
aS'<http://bio2rdf.org/drugbank_resource:DB00706_DB06207>'
p381
aS'<http://bio2rdf.org/drugbank_resource:DB01162_DB06207>'
p382
asa(dp383
g24
(g25
(g27
S'\x00\x00\x00\x00\x00\x00\x00\x00'
tRp384
g29
(g30
(I0
tS'b'
tRp385
(I1
(I4
tg32
I00
S"2'\xd9sj\x177@\x80\xd4\x81\xdb\xf3.7@\xab\x9e\xd9\xe8\x8aM8@\x98dt\x1c\xb4\x03;@"
tbtp386
sS'n'
I200
sg34
I506
sg35
(lp387
g37
ag38
ag61
ag62
ag63
ag91
ag92
ag93
ag94
ag95
ag129
ag130
ag131
ag132
ag133
ag162
ag39
ag40
ag64
ag41
ag42
ag65
ag66
ag67
ag96
ag97
ag98
ag99
ag100
ag134
ag135
ag136
ag137
ag138
ag163
ag164
ag165
ag166
ag167
ag188
ag189
ag190
ag191
ag192
ag208
ag209
ag210
ag211
ag212
ag213
ag214
ag215
ag216
ag217
ag218
ag219
ag220
ag221
ag222
ag43
ag44
ag68
ag69
ag70
ag101
ag102
ag103
ag45
ag46
ag71
ag72
ag73
ag104
ag105
ag106
ag107
ag108
ag139
ag140
ag141
ag142
ag143
ag168
ag169
ag170
ag171
ag172
ag47
ag48
ag49
ag74
ag75
ag76
ag109
ag110
ag111
ag112
ag113
ag144
ag145
ag146
ag147
ag148
ag173
ag174
ag175
ag176
ag177
ag193
ag194
ag195
ag196
ag197
ag223
ag224
ag225
ag226
ag227
ag228
ag229
ag230
ag231
ag232
ag233
ag234
ag235
ag236
ag237
ag238
ag239
ag240
ag241
ag242
ag243
ag244
ag245
ag246
ag247
ag278
ag279
ag280
ag281
ag282
ag283
ag284
ag285
ag286
ag287
ag288
ag289
ag290
ag291
ag292
ag293
ag294
ag295
ag296
ag297
ag298
ag299
ag300
ag301
ag302
ag333
ag334
ag335
ag336
ag337
ag338
ag339
ag340
ag341
ag342
ag343
ag344
ag345
ag346
ag347
ag348
ag349
ag350
ag351
ag352
ag353
ag354
ag355
ag356
ag357
aS'<http://bio2rdf.org/drugbank_resource:6eae7b31b6b3272da547ab56c166d726>'
p388
aS'<http://bio2rdf.org/drugbank_resource:74d56484454025b1e9b194e28dd32d93>'
p389
aS'<http://bio2rdf.org/drugbank_resource:189d549615b5e325bfe94dc743e82e1e>'
p390
aS'<http://bio2rdf.org/drugbank_resource:c2319e2bf9977154f8096ea0edff31df>'
p391
aS'<http://bio2rdf.org/drugbank_resource:abbeb0fb9d44248736788c296258fde8>'
p392
aS'<http://bio2rdf.org/drugbank_resource:c282e0d8b89ab4a49b6a7dfd05fff206>'
p393
aS'<http://bio2rdf.org/drugbank_resource:4a2caed01bce2444cb2ee4b00b522c85>'
p394
aS'<http://bio2rdf.org/drugbank_resource:836c050230cd8934b7efb6d686adc99e>'
p395
aS'<http://bio2rdf.org/drugbank_resource:2785c80acd5f86ad8e802047ba568a80>'
p396
aS'<http://bio2rdf.org/drugbank_resource:b705cf0690704d2cfe2e658e3d06a84e>'
p397
aS'<http://bio2rdf.org/drugbank_resource:ed65b9d305759c20e5f827e4f876c5db>'
p398
aS'<http://bio2rdf.org/drugbank_resource:6d4a95f3f5fbcdea0fcb2642ce252a5b>'
p399
aS'<http://bio2rdf.org/drugbank_resource:c191f2fede0552c80007b330399feed2>'
p400
aS'<http://bio2rdf.org/drugbank_resource:28a3cfc9ff48e3c4b2b39e1dd75ef45a>'
p401
aS'<http://bio2rdf.org/drugbank_resource:567ca1b0cf590abfc421d7b4e6d7f12f>'
p402
aS'<http://bio2rdf.org/drugbank_resource:e1acf8b78c7d5dd30813f51fac7d4830>'
p403
aS'<http://bio2rdf.org/drugbank_resource:ff613d567edd58ebc686b13722e40d0c>'
p404
aS'<http://bio2rdf.org/drugbank_resource:259c7c60967a1e4837713033fe5e8484>'
p405
aS'<http://bio2rdf.org/drugbank_resource:ec2a4b5fa83409562e311e545b23bce0>'
p406
aS'<http://bio2rdf.org/drugbank_resource:75209857a5bcf9abd0c321796dc8faf1>'
p407
aS'<http://bio2rdf.org/drugbank_resource:ac46591d986f5a9939a9c23b44084591>'
p408
aS'<http://bio2rdf.org/drugbank_resource:8b2b63b65418cb27bacaf6c57c21ba5a>'
p409
aS'<http://bio2rdf.org/drugbank_resource:517c9882a9127d6cecc6a760496b5559>'
p410
aS'<http://bio2rdf.org/drugbank_resource:070fca38ab29a8cdcb55168bab9ac2f6>'
p411
aS'<http://bio2rdf.org/drugbank_resource:e39fd8172dcba6bfd1ac9e5ee7d80fc0>'
p412
aS'<http://bio2rdf.org/drugbank_resource:0eb701e8739782540b15ae40cb1c7ba1>'
p413
aS'<http://bio2rdf.org/drugbank_resource:07dfeb8efee8eade3d5dfe523dacc3a8>'
p414
aS'<http://bio2rdf.org/drugbank_resource:8aac5405c8c3e3bb48a5e7f6de6fa0b4>'
p415
aS'<http://bio2rdf.org/drugbank_resource:9764b6c92a7e43d17c3926ba06bc0101>'
p416
aS'<http://bio2rdf.org/drugbank_resource:6b4ac2cb8e26e4fa1defee9d8cf4f623>'
p417
aS'<http://bio2rdf.org/drugbank_resource:2d41c76a9a405e13c7b651aae901ae77>'
p418
aS'<http://bio2rdf.org/drugbank_resource:0240075a1e94f834e1ca9c5ac0a68f28>'
p419
aS'<http://bio2rdf.org/drugbank_resource:7a8cc542973e72af98b15d06a8b6b8c0>'
p420
aS'<http://bio2rdf.org/drugbank_resource:c0b2ed44e76c8cd7ec855c0c3da919c7>'
p421
aS'<http://bio2rdf.org/drugbank_resource:8024eac6decd8c1d45e9057bcd179f0a>'
p422
aS'<http://bio2rdf.org/drugbank_resource:f7bbe8a97b45b2551b86208e4d0a737e>'
p423
aS'<http://bio2rdf.org/drugbank_resource:25801a8286654982f279d0d9bafc331b>'
p424
aS'<http://bio2rdf.org/drugbank_resource:8b1cf84f407e1c210f442b3427b2bc1c>'
p425
aS'<http://bio2rdf.org/drugbank_resource:a6deac13209ecaf808a90fb625814d3a>'
p426
aS'<http://bio2rdf.org/drugbank_resource:4cdacd7f31cd5c62a105b19053b9d581>'
p427
aS'<http://bio2rdf.org/drugbank_resource:8431eec9ae5b19b22b008b68aca76b95>'
p428
aS'<http://bio2rdf.org/drugbank_resource:e92d1cd79d98ecb34ab9d9ec05aeec05>'
p429
aS'<http://bio2rdf.org/drugbank_resource:dc6432fcf7a8e348cd8b046f73401f21>'
p430
aS'<http://bio2rdf.org/drugbank_resource:c5fbaea328ec78830968760db2c076c5>'
p431
aS'<http://bio2rdf.org/drugbank_resource:9feb7273bcf3b300fd1eb675938493cc>'
p432
aS'<http://bio2rdf.org/drugbank_resource:556ad0fc23b6efebdd96c74f855eb0ef>'
p433
aS'<http://bio2rdf.org/drugbank_resource:4df0f5133e2671f927fbfc4f11f7c8ef>'
p434
aS'<http://bio2rdf.org/drugbank_resource:b2cf40bc9a2299ced5dc7093d7a2a5b4>'
p435
aS'<http://bio2rdf.org/drugbank_resource:4e6f0845bf9e2ffc37bb241d93c750f8>'
p436
aS'<http://bio2rdf.org/drugbank_resource:a3072e957c413c27a266ec9c6698c6ea>'
p437
aS'<http://bio2rdf.org/drugbank_resource:4a3e5c53eb134a6f9806c3be36c19dbd>'
p438
aS'<http://bio2rdf.org/drugbank_resource:43ec5754f4dfdcbcb6ecdccec56b44b2>'
p439
aS'<http://bio2rdf.org/drugbank_resource:5795e96df3fce346ec800d3726ce9b86>'
p440
aS'<http://bio2rdf.org/drugbank_resource:a8444f835c9a5361d3d1c753455f9919>'
p441
aS'<http://bio2rdf.org/drugbank_resource:e29a9574affe3965b79881590547bded>'
p442
aS'<http://bio2rdf.org/drugbank_resource:8b5f4e598ac059214c021b72fb7d837a>'
p443
aS'<http://bio2rdf.org/drugbank_resource:43fbe962f54fedbcb2bee565b2c0087f>'
p444
aS'<http://bio2rdf.org/drugbank_resource:58f5107a952459dbdcc1ae522b2d7dc3>'
p445
aS'<http://bio2rdf.org/drugbank_resource:2b2f2b9d4d5a4b1c4629b85e979217f5>'
p446
aS'<http://bio2rdf.org/drugbank_resource:1c2376fea743336d4a08e4449f21a42e>'
p447
aS'<http://bio2rdf.org/drugbank_resource:06ff4fcc87d2a44ed1bfff11a958a26c>'
p448
aS'<http://bio2rdf.org/drugbank_resource:f5fba9c0521d31d983c7e010fb4db54e>'
p449
aS'<http://bio2rdf.org/drugbank_resource:3c39c6c398cfc27045a879b6c536660b>'
p450
aS'<http://bio2rdf.org/drugbank_resource:05f87d4999380d12178feabede229f24>'
p451
aS'<http://bio2rdf.org/drugbank_resource:e82628a65bbabcbcc86a13d13133afc4>'
p452
aS'<http://bio2rdf.org/drugbank_resource:92aa8a0cd9b9bb81e7bc643ef016783a>'
p453
aS'<http://bio2rdf.org/drugbank_resource:d620f02c687ed2a83a0de50d8d826e77>'
p454
aS'<http://bio2rdf.org/drugbank_resource:bab4c224de1fa85d6015e7f74383a327>'
p455
aS'<http://bio2rdf.org/drugbank_resource:c8f666d62dce5c66664a096a05f0db1a>'
p456
aS'<http://bio2rdf.org/drugbank_resource:Derma-4-Ointment>'
p457
aS'<http://bio2rdf.org/drugbank_resource:b04a1b13b4a0889442f70b302d8bef11>'
p458
aS'<http://bio2rdf.org/drugbank_resource:6aefcb721b9dc639e4e6b1e00c70ffc3>'
p459
aS'<http://bio2rdf.org/drugbank_resource:ad642b53418b3b054813847cbcff1623>'
p460
aS'<http://bio2rdf.org/drugbank_resource:189d549615b5e325bfe94dc743e82e1e>'
p461
aS'<http://bio2rdf.org/drugbank_resource:c282e0d8b89ab4a49b6a7dfd05fff206>'
p462
aS'<http://bio2rdf.org/drugbank_resource:abbeb0fb9d44248736788c296258fde8>'
p463
aS'<http://bio2rdf.org/drugbank_resource:4a2caed01bce2444cb2ee4b00b522c85>'
p464
aS'<http://bio2rdf.org/drugbank_resource:6eae7b31b6b3272da547ab56c166d726>'
p465
aS'<http://bio2rdf.org/drugbank_resource:2785c80acd5f86ad8e802047ba568a80>'
p466
aS'<http://bio2rdf.org/drugbank_resource:204607bec90fe8c7407606c3d8b43a03>'
p467
aS'<http://bio2rdf.org/drugbank_resource:836c050230cd8934b7efb6d686adc99e>'
p468
aS'<http://bio2rdf.org/drugbank_resource:c3b74b5ed581d5b477a17f51730b6faf>'
p469
aS'<http://bio2rdf.org/drugbank_resource:b2621696aa4223045c6b695d76af5149>'
p470
aS'<http://bio2rdf.org/drugbank_resource:80e610d00d66dbadf4731d056c28ffc0>'
p471
aS'<http://bio2rdf.org/drugbank_resource:c2319e2bf9977154f8096ea0edff31df>'
p472
aS'<http://bio2rdf.org/drugbank_resource:74d56484454025b1e9b194e28dd32d93>'
p473
aS'<http://bio2rdf.org/drugbank_resource:Balminil-nasal-ointment>'
p474
aS'<http://bio2rdf.org/drugbank_resource:c191f2fede0552c80007b330399feed2>'
p475
aS'<http://bio2rdf.org/drugbank_resource:b705cf0690704d2cfe2e658e3d06a84e>'
p476
aS'<http://bio2rdf.org/drugbank_resource:6d4a95f3f5fbcdea0fcb2642ce252a5b>'
p477
aS'<http://bio2rdf.org/drugbank_resource:28a3cfc9ff48e3c4b2b39e1dd75ef45a>'
p478
aS'<http://bio2rdf.org/drugbank_resource:Garasone-Ophthalmic-Ointment>'
p479
aS'<http://bio2rdf.org/drugbank_resource:567ca1b0cf590abfc421d7b4e6d7f12f>'
p480
aS'<http://bio2rdf.org/drugbank_resource:Instant-rub-ointment>'
p481
aS'<http://bio2rdf.org/drugbank_resource:Pain-relieving-ointment>'
p482
aS'<http://bio2rdf.org/drugbank_resource:Valisone-G-Ointment>'
p483
aS'<http://bio2rdf.org/drugbank_resource:ed65b9d305759c20e5f827e4f876c5db>'
p484
aS'<http://bio2rdf.org/drugbank_resource:259c7c60967a1e4837713033fe5e8484>'
p485
aS'<http://bio2rdf.org/drugbank_resource:ac46591d986f5a9939a9c23b44084591>'
p486
aS'<http://bio2rdf.org/drugbank_resource:ec2a4b5fa83409562e311e545b23bce0>'
p487
ag50
ag51
ag77
ag78
ag79
ag52
ag53
ag80
ag81
ag82
ag114
ag115
ag116
ag117
ag118
ag149
ag150
ag151
ag54
ag55
ag83
ag84
ag85
ag119
ag120
ag121
ag122
ag123
ag152
ag153
ag154
ag155
ag156
ag178
ag179
ag180
ag181
ag182
ag198
ag199
ag200
ag201
ag202
ag248
ag249
ag250
ag251
ag252
ag253
ag254
ag255
ag256
ag257
ag258
ag259
ag260
ag261
ag262
ag263
ag264
ag265
ag266
ag267
ag268
ag269
ag270
ag271
ag272
ag303
ag304
ag305
ag306
ag307
ag308
ag309
ag310
ag311
ag312
ag313
ag314
ag315
ag316
ag317
ag318
ag319
ag320
ag321
ag322
ag323
ag324
ag325
ag326
ag327
ag358
ag359
ag360
ag361
ag362
ag363
ag364
ag365
ag366
ag367
ag368
ag369
ag370
ag371
ag372
ag373
ag374
ag375
ag376
ag377
ag378
ag379
ag380
ag381
ag382
aS'<http://bio2rdf.org/drugbank_resource:DB00206_DB00374>'
p488
aS'<http://bio2rdf.org/drugbank_resource:DB00177_DB00374>'
p489
aS'<http://bio2rdf.org/drugbank_resource:DB00214_DB00374>'
p490
aS'<http://bio2rdf.org/drugbank_resource:DB00195_DB00374>'
p491
aS'<http://bio2rdf.org/drugbank_resource:DB00178_DB06196>'
p492
aS'<http://bio2rdf.org/drugbank_resource:DB00178_DB00374>'
p493
aS'<http://bio2rdf.org/drugbank_resource:DB00187_DB00374>'
p494
aS'<http://bio2rdf.org/drugbank_resource:DB00275_DB00374>'
p495
aS'<http://bio2rdf.org/drugbank_resource:DB00270_DB00374>'
p496
aS'<http://bio2rdf.org/drugbank_resource:DB00232_DB00374>'
p497
aS'<http://bio2rdf.org/drugbank_resource:DB00264_DB00374>'
p498
aS'<http://bio2rdf.org/drugbank_resource:DB00335_DB00374>'
p499
aS'<http://bio2rdf.org/drugbank_resource:DB00343_DB00374>'
p500
aS'<http://bio2rdf.org/drugbank_resource:DB00350_DB00374>'
p501
aS'<http://bio2rdf.org/drugbank_resource:DB00325_DB00374>'
p502
aS'<http://bio2rdf.org/drugbank_resource:DB00310_DB00374>'
p503
aS'<http://bio2rdf.org/drugbank_resource:DB00374_DB00903>'
p504
aS'<http://bio2rdf.org/drugbank_resource:DB00374_DB01324>'
p505
aS'<http://bio2rdf.org/drugbank_resource:DB00374_DB00697>'
p506
aS'<http://bio2rdf.org/drugbank_resource:DB00374_DB00381>'
p507
aS'<http://bio2rdf.org/drugbank_resource:DB00374_DB00633>'
p508
aS'<http://bio2rdf.org/drugbank_resource:DB00374_DB00521>'
p509
aS'<http://bio2rdf.org/drugbank_resource:DB00374_DB00727>'
p510
aS'<http://bio2rdf.org/drugbank_resource:DB00374_DB00492>'
p511
aS'<http://bio2rdf.org/drugbank_resource:DB00374_DB01144>'
p512
aS'<http://bio2rdf.org/drugbank_resource:DB00374_DB01193>'
p513
aS'<http://bio2rdf.org/drugbank_resource:DB00374_DB00964>'
p514
aS'<http://bio2rdf.org/drugbank_resource:DB00374_DB01018>'
p515
aS'<http://bio2rdf.org/drugbank_resource:DB00422_DB00519>'
p516
aS'<http://bio2rdf.org/drugbank_resource:DB00374_DB01203>'
p517
aS'<http://bio2rdf.org/drugbank_resource:DB00374_DB01029>'
p518
aS'<http://bio2rdf.org/drugbank_resource:DB00374_DB00393>'
p519
aS'<http://bio2rdf.org/drugbank_resource:DB00374_DB00700>'
p520
aS'<http://bio2rdf.org/drugbank_resource:DB00374_DB00421>'
p521
aS'<http://bio2rdf.org/drugbank_resource:DB00374_DB01214>'
p522
aS'<http://bio2rdf.org/drugbank_resource:DB00374_DB00808>'
p523
aS'<http://bio2rdf.org/drugbank_resource:DB00374_DB00925>'
p524
aS'<http://bio2rdf.org/drugbank_resource:DB00374_DB03904>'
p525
aS'<http://bio2rdf.org/drugbank_resource:DB00374_DB00457>'
p526
aS'<http://bio2rdf.org/drugbank_resource:DB00374_DB00796>'
p527
aS'<http://bio2rdf.org/drugbank_resource:DB00374_DB00883>'
p528
aS'<http://bio2rdf.org/drugbank_resource:DB00374_DB00629>'
p529
aS'<http://bio2rdf.org/drugbank_resource:DB00374_DB00695>'
p530
aS'<http://bio2rdf.org/drugbank_resource:DB00374_DB01340>'
p531
aS'<http://bio2rdf.org/drugbank_resource:DB00374_DB00887>'
p532
aS'<http://bio2rdf.org/drugbank_resource:DB00374_DB00880>'
p533
aS'<http://bio2rdf.org/drugbank_resource:DB00374_DB00999>'
p534
aS'<http://bio2rdf.org/drugbank_resource:DB00374_DB01162>'
p535
aS'<http://bio2rdf.org/drugbank_resource:DB00374_DB04861>'
p536
aS'<http://bio2rdf.org/drugbank_resource:DB00374_DB00774>'
p537
aS'<http://bio2rdf.org/drugbank_resource:DB00374_DB00524>'
p538
aS'<http://bio2rdf.org/drugbank_resource:DB00374_DB00790>'
p539
aS'<http://bio2rdf.org/drugbank_resource:DB00374_DB04899>'
p540
aS'<http://bio2rdf.org/drugbank_resource:DB00374_DB00692>'
p541
aS'<http://bio2rdf.org/drugbank_resource:DB00374_DB00703>'
p542
aS'<http://bio2rdf.org/drugbank_resource:DB00374_DB01021>'
p543
aS'<http://bio2rdf.org/drugbank_resource:DB00374_DB01020>'
p544
aS'<http://bio2rdf.org/drugbank_resource:DB00374_DB00678>'
p545
aS'<http://bio2rdf.org/drugbank_resource:DB00374_DB00542>'
p546
aS'<http://bio2rdf.org/drugbank_resource:DB00374_DB00584>'
p547
aS'<http://bio2rdf.org/drugbank_resource:DB00374_DB00575>'
p548
aS'<http://bio2rdf.org/drugbank_resource:DB00374_DB01580>'
p549
aS'<http://bio2rdf.org/drugbank_resource:DB00374_DB00797>'
p550
aS'<http://bio2rdf.org/drugbank_resource:DB00374_DB00489>'
p551
aS'<http://bio2rdf.org/drugbank_resource:DB00374_DB00661>'
p552
aS'<http://bio2rdf.org/drugbank_resource:DB00374_DB00594>'
p553
aS'<http://bio2rdf.org/drugbank_resource:DB00374_DB01197>'
p554
aS'<http://bio2rdf.org/drugbank_resource:DB00374_DB00484>'
p555
aS'<http://bio2rdf.org/drugbank_resource:DB00374_DB01258>'
p556
aS'<http://bio2rdf.org/drugbank_resource:DB00374_DB01612>'
p557
aS'<http://bio2rdf.org/drugbank_resource:DB00374_DB01275>'
p558
aS'<http://bio2rdf.org/drugbank_resource:DB00374_DB00876>'
p559
aS'<http://bio2rdf.org/drugbank_resource:DB00374_DB01395>'
p560
aS'<http://bio2rdf.org/drugbank_resource:DB00374_DB00436>'
p561
aS'<http://bio2rdf.org/drugbank_resource:DB00374_DB00742>'
p562
aS'<http://bio2rdf.org/drugbank_resource:DB00374_DB01023>'
p563
aS'<http://bio2rdf.org/drugbank_resource:DB00373_DB00374>'
p564
aS'<http://bio2rdf.org/drugbank_resource:DB00374_DB01136>'
p565
aS'<http://bio2rdf.org/drugbank_resource:DB00374_DB04838>'
p566
aS'<http://bio2rdf.org/drugbank_resource:DB00374_DB00622>'
p567
aS'<http://bio2rdf.org/drugbank_resource:DB00374_DB00966>'
p568
aS'<http://bio2rdf.org/drugbank_resource:DB00374_DB01115>'
p569
aS'<http://bio2rdf.org/drugbank_resource:DB00374_DB00691>'
p570
aS'<http://bio2rdf.org/drugbank_resource:DB00374_DB01113>'
p571
aS'<http://bio2rdf.org/drugbank_resource:DB00374_DB00612>'
p572
aS'<http://bio2rdf.org/drugbank_resource:DB00374_DB01210>'
p573
aS'<http://bio2rdf.org/drugbank_resource:DB00374_DB00722>'
p574
aS'<http://bio2rdf.org/drugbank_resource:DB00374_DB04846>'
p575
aS'<http://bio2rdf.org/drugbank_resource:DB00374_DB00401>'
p576
aS'<http://bio2rdf.org/drugbank_resource:DB00374_DB01054>'
p577
aS'<http://bio2rdf.org/drugbank_resource:DB00374_DB00819>'
p578
aS'<http://bio2rdf.org/drugbank_resource:DB00374_DB00881>'
p579
aS'<http://bio2rdf.org/drugbank_resource:DB00374_DB00384>'
p580
aS'<http://bio2rdf.org/drugbank_resource:DB00374_DB00960>'
p581
aS'<http://bio2rdf.org/drugbank_resource:DB00374_DB01359>'
p582
aS'<http://bio2rdf.org/drugbank_resource:DB00374_DB00590>'
p583
aS'<http://bio2rdf.org/drugbank_resource:DB00374_DB04920>'
p584
aS'<http://bio2rdf.org/drugbank_resource:DB00374_DB00598>'
p585
aS'<http://bio2rdf.org/drugbank_resource:DB00492_DB06196>'
p586
aS'<http://bio2rdf.org/drugbank_resource:DB00519_DB06196>'
p587
asa(dp588
g24
(g25
(g27
S'\x01\x00\x00\x00\x00\x00\x00\x00'
tRp589
g29
(g30
(I0
tS'b'
tRp590
(I1
(I4
tg32
I00
S'\x1ag\x7f\xdc4\x937@<\x9d.\xd6\xf7~7@\x8b\xc4E:8a8@\x97[Kl\xc3H;@'
tbtp591
sS'n'
I400
sg34
I906
sg35
(lp592
g37
ag38
ag61
ag62
ag63
ag91
ag92
ag93
ag94
ag95
ag129
ag130
ag131
ag132
ag133
ag162
ag39
ag40
ag64
ag41
ag42
ag65
ag66
ag67
ag96
ag97
ag98
ag99
ag100
ag134
ag135
ag136
ag137
ag138
ag163
ag164
ag165
ag166
ag167
ag188
ag189
ag190
ag191
ag192
ag208
ag209
ag210
ag211
ag212
ag213
ag214
ag215
ag216
ag217
ag218
ag219
ag220
ag221
ag222
ag43
ag44
ag68
ag69
ag70
ag101
ag102
ag103
ag45
ag46
ag71
ag72
ag73
ag104
ag105
ag106
ag107
ag108
ag139
ag140
ag141
ag142
ag143
ag168
ag169
ag170
ag171
ag172
ag47
ag48
ag49
ag74
ag75
ag76
ag109
ag110
ag111
ag112
ag113
ag144
ag145
ag146
ag147
ag148
ag173
ag174
ag175
ag176
ag177
ag193
ag194
ag195
ag196
ag197
ag223
ag224
ag225
ag226
ag227
ag228
ag229
ag230
ag231
ag232
ag233
ag234
ag235
ag236
ag237
ag238
ag239
ag240
ag241
ag242
ag243
ag244
ag245
ag246
ag247
ag278
ag279
ag280
ag281
ag282
ag283
ag284
ag285
ag286
ag287
ag288
ag289
ag290
ag291
ag292
ag293
ag294
ag295
ag296
ag297
ag298
ag299
ag300
ag301
ag302
ag333
ag334
ag335
ag336
ag337
ag338
ag339
ag340
ag341
ag342
ag343
ag344
ag345
ag346
ag347
ag348
ag349
ag350
ag351
ag352
ag353
ag354
ag355
ag356
ag357
ag388
ag389
ag390
ag391
ag392
ag393
ag394
ag395
ag396
ag397
ag398
ag399
ag400
ag401
ag402
ag403
ag404
ag405
ag406
ag407
ag408
ag409
ag410
ag411
ag412
ag413
ag414
ag415
ag416
ag417
ag418
ag419
ag420
ag421
ag422
ag423
ag424
ag425
ag426
ag427
ag428
ag429
ag430
ag431
ag432
ag433
ag434
ag435
ag436
ag437
ag438
ag439
ag440
ag441
ag442
ag443
ag444
ag445
ag446
ag447
ag448
ag449
ag450
ag451
ag452
ag453
ag454
ag455
ag456
ag457
ag458
ag459
ag460
ag461
ag462
ag463
ag464
ag465
ag466
ag467
ag468
ag469
ag470
ag471
ag472
ag473
ag474
ag475
ag476
ag477
ag478
ag479
ag480
ag481
ag482
ag483
ag484
ag485
ag486
ag487
aS'<http://bio2rdf.org/drugbank_resource:75209857a5bcf9abd0c321796dc8faf1>'
p593
aS'<http://bio2rdf.org/drugbank_resource:ff613d567edd58ebc686b13722e40d0c>'
p594
aS'<http://bio2rdf.org/drugbank_resource:e1acf8b78c7d5dd30813f51fac7d4830>'
p595
aS'<http://bio2rdf.org/drugbank_resource:Watkins-medicated-ointment>'
p596
aS'<http://bio2rdf.org/drugbank_resource:Youngflex-massage-ointment-168>'
p597
aS'<http://bio2rdf.org/drugbank_resource:070fca38ab29a8cdcb55168bab9ac2f6>'
p598
aS'<http://bio2rdf.org/drugbank_resource:517c9882a9127d6cecc6a760496b5559>'
p599
aS'<http://bio2rdf.org/drugbank_resource:e39fd8172dcba6bfd1ac9e5ee7d80fc0>'
p600
aS'<http://bio2rdf.org/drugbank_resource:8aac5405c8c3e3bb48a5e7f6de6fa0b4>'
p601
aS'<http://bio2rdf.org/drugbank_resource:GyneCure-Vaginal-Ointment-Tandempak-6.5%>'
p602
aS'<http://bio2rdf.org/drugbank_resource:0eb701e8739782540b15ae40cb1c7ba1>'
p603
aS'<http://bio2rdf.org/drugbank_resource:8b2b63b65418cb27bacaf6c57c21ba5a>'
p604
aS'<http://bio2rdf.org/drugbank_resource:07dfeb8efee8eade3d5dfe523dacc3a8>'
p605
aS'<http://bio2rdf.org/drugbank_resource:9764b6c92a7e43d17c3926ba06bc0101>'
p606
aS'<http://bio2rdf.org/drugbank_resource:2d41c76a9a405e13c7b651aae901ae77>'
p607
aS'<http://bio2rdf.org/drugbank_resource:6b4ac2cb8e26e4fa1defee9d8cf4f623>'
p608
aS'<http://bio2rdf.org/drugbank_resource:f7bbe8a97b45b2551b86208e4d0a737e>'
p609
aS'<http://bio2rdf.org/drugbank_resource:7a8cc542973e72af98b15d06a8b6b8c0>'
p610
aS'<http://bio2rdf.org/drugbank_resource:25801a8286654982f279d0d9bafc331b>'
p611
aS'<http://bio2rdf.org/drugbank_resource:c0b2ed44e76c8cd7ec855c0c3da919c7>'
p612
aS'<http://bio2rdf.org/drugbank_resource:0240075a1e94f834e1ca9c5ac0a68f28>'
p613
aS'<http://bio2rdf.org/drugbank_resource:8024eac6decd8c1d45e9057bcd179f0a>'
p614
aS'<http://bio2rdf.org/drugbank_resource:8b1cf84f407e1c210f442b3427b2bc1c>'
p615
aS'<http://bio2rdf.org/drugbank_resource:Derma-4-Ointment>'
p616
aS'<http://bio2rdf.org/drugbank_resource:Balminil-nasal-ointment>'
p617
aS'<http://bio2rdf.org/drugbank_resource:Garasone-Ophthalmic-Ointment>'
p618
aS'<http://bio2rdf.org/drugbank_resource:Instant-rub-ointment>'
p619
aS'<http://bio2rdf.org/drugbank_resource:Pain-relieving-ointment>'
p620
aS'<http://bio2rdf.org/drugbank_resource:Valisone-G-Ointment>'
p621
aS'<http://bio2rdf.org/drugbank_resource:Watkins-medicated-ointment>'
p622
aS'<http://bio2rdf.org/drugbank_resource:Youngflex-massage-ointment-168>'
p623
aS'<http://bio2rdf.org/drugbank_resource:GyneCure-Vaginal-Ointment-Tandempak-6.5%>'
p624
aS'<http://bio2rdf.org/drugbank_resource:ca4522960d059c09dd9c6b74985ed041>'
p625
aS'<http://bio2rdf.org/drugbank_resource:45f607aead279ecdc62403a9dec38e65>'
p626
aS'<http://bio2rdf.org/drugbank_resource:93aa9f0816ee700f506386222245a955>'
p627
aS'<http://bio2rdf.org/drugbank_resource:1e5531797eaec44b20a357bf52306f0a>'
p628
aS'<http://bio2rdf.org/drugbank_resource:1ca6817910a2495729c64d157e98f4b1>'
p629
aS'<http://bio2rdf.org/drugbank_resource:9b1d700c6faa691f533af7d0e2c2ead7>'
p630
aS'<http://bio2rdf.org/drugbank_resource:ad7ceec1bbd593fe2d43add271219219>'
p631
aS'<http://bio2rdf.org/drugbank_resource:33f9e7c59bafb9f6c4af3dc5f4ce8379>'
p632
aS'<http://bio2rdf.org/drugbank_resource:dd9a4dde78d7d0424835e424baf6538d>'
p633
aS'<http://bio2rdf.org/drugbank_resource:27002e6bcf25fe4c5b01bbbdab84d0e7>'
p634
aS'<http://bio2rdf.org/drugbank_resource:4688ace88f75ffcadb43fe28638565ae>'
p635
aS'<http://bio2rdf.org/drugbank_resource:98fa08fed52027b7f8997a3df8d50e49>'
p636
aS'<http://bio2rdf.org/drugbank_resource:9fb9b134748354deae0752a7c910e77d>'
p637
aS'<http://bio2rdf.org/drugbank_resource:ab0f0ac229663f0e225095c7e3c61102>'
p638
aS'<http://bio2rdf.org/drugbank_resource:3baf0dbec60e721b5ede3bc6c4999a43>'
p639
aS'<http://bio2rdf.org/drugbank_resource:732faf2467e54e0b7e307ccf45995d45>'
p640
aS'<http://bio2rdf.org/drugbank_resource:f6db2850a4941044a715b96ab4821b0e>'
p641
aS'<http://bio2rdf.org/drugbank_resource:51466ddf7b940f978afac409cf7e8a61>'
p642
aS'<http://bio2rdf.org/drugbank_resource:4b268ba69b9d9077c80e2bd5679e67d3>'
p643
aS'<http://bio2rdf.org/drugbank_resource:6786065f8e45ca283acb510d4af7332b>'
p644
aS'<http://bio2rdf.org/drugbank_resource:29b10f54159a8ee948ecc154b489598a>'
p645
aS'<http://bio2rdf.org/drugbank_resource:4dbc1a8e85302941440278f9b6f68ea7>'
p646
aS'<http://bio2rdf.org/drugbank_resource:68a89668d6582ca33786bf52b0071e71>'
p647
aS'<http://bio2rdf.org/drugbank_resource:79e4d4676fc08b9d6b5b3518cdadfedb>'
p648
aS'<http://bio2rdf.org/drugbank_resource:435d83844431972d8eacbd5f60aeafd5>'
p649
aS'<http://bio2rdf.org/drugbank_resource:0f818bf7a928ad0463bf42b453885a6d>'
p650
aS'<http://bio2rdf.org/drugbank_resource:3db5bd9f7dafd2bcf6ecb2476948c074>'
p651
aS'<http://bio2rdf.org/drugbank_resource:cae68b311c43b8ef1aea2dfdbc14c1e1>'
p652
aS'<http://bio2rdf.org/drugbank_resource:10f00680112bd829175edfae1514eedb>'
p653
aS'<http://bio2rdf.org/drugbank_resource:494b15828c9e7a891c5a63e525d2e40f>'
p654
aS'<http://bio2rdf.org/drugbank_resource:b5da1d29347abfe2bffea2a536f46dff>'
p655
aS'<http://bio2rdf.org/drugbank_resource:2bb918dc70a2463297a4e6f36e7dd135>'
p656
aS'<http://bio2rdf.org/drugbank_resource:8b4d44dba3596a65619542a41f6be37b>'
p657
aS'<http://bio2rdf.org/drugbank_resource:e02077eba2d02ebe85212baf30bd77bf>'
p658
aS'<http://bio2rdf.org/drugbank_resource:28192691122ce05deceaeece16b090ab>'
p659
aS'<http://bio2rdf.org/drugbank_resource:27d328a5bd9c69e112add26158e71514>'
p660
aS'<http://bio2rdf.org/drugbank_resource:fd21dd309eaaf68d7470db0d277e8ac0>'
p661
aS'<http://bio2rdf.org/drugbank_resource:765ad18f5bb95313b51918b368af1f20>'
p662
aS'<http://bio2rdf.org/drugbank_resource:e95262723efd2f8970aa3c549d01bace>'
p663
aS'<http://bio2rdf.org/drugbank_resource:bf65d57795e1bde04b98c2ebab59e474>'
p664
aS'<http://bio2rdf.org/drugbank_resource:b0bd39049c0e03df385151778727f88b>'
p665
aS'<http://bio2rdf.org/drugbank_resource:8a203079ed48169ca431a986872f8bf7>'
p666
aS'<http://bio2rdf.org/drugbank_resource:bc4b3ef4bfba764d3e438642f2b19e7a>'
p667
aS'<http://bio2rdf.org/drugbank_resource:0df16712a55f04a7e3b4be2e55225137>'
p668
aS'<http://bio2rdf.org/drugbank_resource:9d4fc46bd4a1b485fe2957e7e256a0c7>'
p669
aS'<http://bio2rdf.org/drugbank_resource:f29137db1a3e8e5e3291d259d56c511e>'
p670
aS'<http://bio2rdf.org/drugbank_resource:ba5329f9fe8732bb74efcc9d9763ea12>'
p671
aS'<http://bio2rdf.org/drugbank_resource:4b3e5b0bb6b2c6090e1feac9a620ad53>'
p672
aS'<http://bio2rdf.org/drugbank_resource:b3c831db461ba1b67d4dd2471c9db11c>'
p673
aS'<http://bio2rdf.org/drugbank_resource:76cabfebe143fa7fbdf5874c783df1f5>'
p674
aS'<http://bio2rdf.org/drugbank_resource:c593935639520c9c98c0edddf4fe15e5>'
p675
aS'<http://bio2rdf.org/drugbank_resource:1fdae189fe808ddaf0adc4737924f6f1>'
p676
aS'<http://bio2rdf.org/drugbank_resource:3445c6444966072601a8e3b3882388c8>'
p677
aS'<http://bio2rdf.org/drugbank_resource:e838cda1ab0a98daf6a1aa2c5b8a2294>'
p678
aS'<http://bio2rdf.org/drugbank_resource:aacd4b9d444712106975189ab194d84f>'
p679
aS'<http://bio2rdf.org/drugbank_resource:961002dfddcd3f3de11fe0e3d8b520c8>'
p680
aS'<http://bio2rdf.org/drugbank_resource:5a41a7029530f74f07bd76a99871c3b1>'
p681
aS'<http://bio2rdf.org/drugbank_resource:fcd7fc83e24dff08ea38873eca8da9fd>'
p682
aS'<http://bio2rdf.org/drugbank_resource:22d60ada35a27613d7593bbf1cc56efa>'
p683
aS'<http://bio2rdf.org/drugbank_resource:6b40440779777d76de9694ae07cc28b1>'
p684
aS'<http://bio2rdf.org/drugbank_resource:c942757ee56e1e9f8e0b427f89496ca7>'
p685
aS'<http://bio2rdf.org/drugbank_resource:791fb46b0929733c5cc5083d021aec5d>'
p686
aS'<http://bio2rdf.org/drugbank_resource:40a07b4ca855611d7027ba68e8301c28>'
p687
aS'<http://bio2rdf.org/drugbank_resource:256a0acdce2f758e0ddc702f1b50f907>'
p688
aS'<http://bio2rdf.org/drugbank_resource:1187a69c735dbbd1535e0a56f2542ccd>'
p689
aS'<http://bio2rdf.org/drugbank_resource:5215ce7960cb38e587aea2bd0b8a7823>'
p690
aS'<http://bio2rdf.org/drugbank_resource:02f53c0d3938e8e21a796eaee41cb188>'
p691
aS'<http://bio2rdf.org/drugbank_resource:93df00002a9f58b685efa9cb37b036dd>'
p692
aS'<http://bio2rdf.org/drugbank_resource:5646d1d7f665ce5c9d8bb587a607b92a>'
p693
aS'<http://bio2rdf.org/drugbank_resource:04fd935ac5156e5cf5348a0d779c73a6>'
p694
aS'<http://bio2rdf.org/drugbank_resource:8089a093c29a75705fc1c7b3398f6137>'
p695
aS'<http://bio2rdf.org/drugbank_resource:c4bdf20f6dd9ec8763cb20cc3e857761>'
p696
aS'<http://bio2rdf.org/drugbank_resource:ca4522960d059c09dd9c6b74985ed041>'
p697
aS'<http://bio2rdf.org/drugbank_resource:45f607aead279ecdc62403a9dec38e65>'
p698
aS'<http://bio2rdf.org/drugbank_resource:33f9e7c59bafb9f6c4af3dc5f4ce8379>'
p699
aS'<http://bio2rdf.org/drugbank_resource:9b1d700c6faa691f533af7d0e2c2ead7>'
p700
aS'<http://bio2rdf.org/drugbank_resource:ad7ceec1bbd593fe2d43add271219219>'
p701
aS'<http://bio2rdf.org/drugbank_resource:1ca6817910a2495729c64d157e98f4b1>'
p702
aS'<http://bio2rdf.org/drugbank_resource:1e5531797eaec44b20a357bf52306f0a>'
p703
aS'<http://bio2rdf.org/drugbank_resource:93aa9f0816ee700f506386222245a955>'
p704
aS'<http://bio2rdf.org/drugbank_resource:27002e6bcf25fe4c5b01bbbdab84d0e7>'
p705
aS'<http://bio2rdf.org/drugbank_resource:4688ace88f75ffcadb43fe28638565ae>'
p706
aS'<http://bio2rdf.org/drugbank_resource:dd9a4dde78d7d0424835e424baf6538d>'
p707
aS'<http://bio2rdf.org/drugbank_resource:3baf0dbec60e721b5ede3bc6c4999a43>'
p708
aS'<http://bio2rdf.org/drugbank_resource:29b10f54159a8ee948ecc154b489598a>'
p709
aS'<http://bio2rdf.org/drugbank_resource:f6db2850a4941044a715b96ab4821b0e>'
p710
aS'<http://bio2rdf.org/drugbank_resource:732faf2467e54e0b7e307ccf45995d45>'
p711
aS'<http://bio2rdf.org/drugbank_resource:4dbc1a8e85302941440278f9b6f68ea7>'
p712
aS'<http://bio2rdf.org/drugbank_resource:435d83844431972d8eacbd5f60aeafd5>'
p713
aS'<http://bio2rdf.org/drugbank_resource:51466ddf7b940f978afac409cf7e8a61>'
p714
aS'<http://bio2rdf.org/drugbank_resource:98fa08fed52027b7f8997a3df8d50e49>'
p715
aS'<http://bio2rdf.org/drugbank_resource:4b268ba69b9d9077c80e2bd5679e67d3>'
p716
aS'<http://bio2rdf.org/drugbank_resource:9fb9b134748354deae0752a7c910e77d>'
p717
aS'<http://bio2rdf.org/drugbank_resource:6786065f8e45ca283acb510d4af7332b>'
p718
aS'<http://bio2rdf.org/drugbank_resource:68a89668d6582ca33786bf52b0071e71>'
p719
aS'<http://bio2rdf.org/drugbank_resource:79e4d4676fc08b9d6b5b3518cdadfedb>'
p720
aS'<http://bio2rdf.org/drugbank_resource:ab0f0ac229663f0e225095c7e3c61102>'
p721
aS'<http://bio2rdf.org/drugbank_resource:10f00680112bd829175edfae1514eedb>'
p722
aS'<http://bio2rdf.org/drugbank_resource:3db5bd9f7dafd2bcf6ecb2476948c074>'
p723
aS'<http://bio2rdf.org/drugbank_resource:494b15828c9e7a891c5a63e525d2e40f>'
p724
aS'<http://bio2rdf.org/drugbank_resource:cae68b311c43b8ef1aea2dfdbc14c1e1>'
p725
aS'<http://bio2rdf.org/drugbank_resource:b5da1d29347abfe2bffea2a536f46dff>'
p726
aS'<http://bio2rdf.org/drugbank_resource:0f818bf7a928ad0463bf42b453885a6d>'
p727
aS'<http://bio2rdf.org/drugbank_resource:e95262723efd2f8970aa3c549d01bace>'
p728
aS'<http://bio2rdf.org/drugbank_resource:765ad18f5bb95313b51918b368af1f20>'
p729
aS'<http://bio2rdf.org/drugbank_resource:e02077eba2d02ebe85212baf30bd77bf>'
p730
aS'<http://bio2rdf.org/drugbank_resource:b0bd39049c0e03df385151778727f88b>'
p731
aS'<http://bio2rdf.org/drugbank_resource:bf65d57795e1bde04b98c2ebab59e474>'
p732
aS'<http://bio2rdf.org/drugbank_resource:fd21dd309eaaf68d7470db0d277e8ac0>'
p733
aS'<http://bio2rdf.org/drugbank_resource:8b4d44dba3596a65619542a41f6be37b>'
p734
aS'<http://bio2rdf.org/drugbank_resource:28192691122ce05deceaeece16b090ab>'
p735
aS'<http://bio2rdf.org/drugbank_resource:2bb918dc70a2463297a4e6f36e7dd135>'
p736
aS'<http://bio2rdf.org/drugbank_resource:27d328a5bd9c69e112add26158e71514>'
p737
aS'<http://bio2rdf.org/drugbank_resource:4b3e5b0bb6b2c6090e1feac9a620ad53>'
p738
aS'<http://bio2rdf.org/drugbank_resource:8a203079ed48169ca431a986872f8bf7>'
p739
aS'<http://bio2rdf.org/drugbank_resource:b3c831db461ba1b67d4dd2471c9db11c>'
p740
aS'<http://bio2rdf.org/drugbank_resource:9d4fc46bd4a1b485fe2957e7e256a0c7>'
p741
aS'<http://bio2rdf.org/drugbank_resource:0df16712a55f04a7e3b4be2e55225137>'
p742
aS'<http://bio2rdf.org/drugbank_resource:f29137db1a3e8e5e3291d259d56c511e>'
p743
aS'<http://bio2rdf.org/drugbank_resource:bc4b3ef4bfba764d3e438642f2b19e7a>'
p744
aS'<http://bio2rdf.org/drugbank_resource:ba5329f9fe8732bb74efcc9d9763ea12>'
p745
aS'<http://bio2rdf.org/drugbank_resource:c593935639520c9c98c0edddf4fe15e5>'
p746
aS'<http://bio2rdf.org/drugbank_resource:76cabfebe143fa7fbdf5874c783df1f5>'
p747
aS'<http://bio2rdf.org/drugbank_resource:5a41a7029530f74f07bd76a99871c3b1>'
p748
aS'<http://bio2rdf.org/drugbank_resource:1fdae189fe808ddaf0adc4737924f6f1>'
p749
aS'<http://bio2rdf.org/drugbank_resource:3445c6444966072601a8e3b3882388c8>'
p750
aS'<http://bio2rdf.org/drugbank_resource:961002dfddcd3f3de11fe0e3d8b520c8>'
p751
aS'<http://bio2rdf.org/drugbank_resource:aacd4b9d444712106975189ab194d84f>'
p752
aS'<http://bio2rdf.org/drugbank_resource:e838cda1ab0a98daf6a1aa2c5b8a2294>'
p753
aS'<http://bio2rdf.org/drugbank_resource:Vicks-vaporub-lemon-ointment>'
p754
aS'<http://bio2rdf.org/drugbank_resource:Triple-Antibiotic-Plus-Ointment>'
p755
aS'<http://bio2rdf.org/drugbank_resource:256a0acdce2f758e0ddc702f1b50f907>'
p756
aS'<http://bio2rdf.org/drugbank_resource:1187a69c735dbbd1535e0a56f2542ccd>'
p757
aS'<http://bio2rdf.org/drugbank_resource:791fb46b0929733c5cc5083d021aec5d>'
p758
aS'<http://bio2rdf.org/drugbank_resource:40a07b4ca855611d7027ba68e8301c28>'
p759
aS'<http://bio2rdf.org/drugbank_resource:c942757ee56e1e9f8e0b427f89496ca7>'
p760
aS'<http://bio2rdf.org/drugbank_resource:93df00002a9f58b685efa9cb37b036dd>'
p761
aS'<http://bio2rdf.org/drugbank_resource:02f53c0d3938e8e21a796eaee41cb188>'
p762
aS'<http://bio2rdf.org/drugbank_resource:fcd7fc83e24dff08ea38873eca8da9fd>'
p763
aS'<http://bio2rdf.org/drugbank_resource:22d60ada35a27613d7593bbf1cc56efa>'
p764
aS'<http://bio2rdf.org/drugbank_resource:5215ce7960cb38e587aea2bd0b8a7823>'
p765
aS'<http://bio2rdf.org/drugbank_resource:6b40440779777d76de9694ae07cc28b1>'
p766
aS'<http://bio2rdf.org/drugbank_resource:5646d1d7f665ce5c9d8bb587a607b92a>'
p767
aS'<http://bio2rdf.org/drugbank_resource:8089a093c29a75705fc1c7b3398f6137>'
p768
aS'<http://bio2rdf.org/drugbank_resource:04fd935ac5156e5cf5348a0d779c73a6>'
p769
aS'<http://bio2rdf.org/drugbank_resource:Sofracort-Ear/Eye-Ointment>'
p770
aS'<http://bio2rdf.org/drugbank_resource:Sofracort-Sterile-Ear/Eye-Ointment>'
p771
aS'<http://bio2rdf.org/drugbank_resource:c4bdf20f6dd9ec8763cb20cc3e857761>'
p772
aS'<http://bio2rdf.org/drugbank_resource:4952a4621ec605cbc3f2a4f27aa56d94>'
p773
aS'<http://bio2rdf.org/drugbank_resource:892e99c57b74a7d5de8cd1969968096e>'
p774
aS'<http://bio2rdf.org/drugbank_resource:Hemorrhoidal-Ointment>'
p775
aS'<http://bio2rdf.org/drugbank_resource:Proctol-Ointment>'
p776
aS'<http://bio2rdf.org/drugbank_resource:Proctosedyl-Ointment>'
p777
aS'<http://bio2rdf.org/drugbank_resource:Derma-4-Ointment>'
p778
aS'<http://bio2rdf.org/drugbank_resource:Oribiotic-Ointment>'
p779
aS'<http://bio2rdf.org/drugbank_resource:Panolog-Ointment>'
p780
aS'<http://bio2rdf.org/drugbank_resource:Balminil-nasal-ointment>'
p781
aS'<http://bio2rdf.org/drugbank_resource:Camphorated-ointment-compound>'
p782
aS'<http://bio2rdf.org/drugbank_resource:Garasone-Ophthalmic-Ointment>'
p783
aS'<http://bio2rdf.org/drugbank_resource:Instant-rub-ointment>'
p784
aS'<http://bio2rdf.org/drugbank_resource:Medicated-ointment>'
p785
aS'<http://bio2rdf.org/drugbank_resource:Otomax-Ointment>'
p786
aS'<http://bio2rdf.org/drugbank_resource:Pain-relieving-ointment>'
p787
aS'<http://bio2rdf.org/drugbank_resource:Polyderm-Ointment-Usp>'
p788
aS'<http://bio2rdf.org/drugbank_resource:Valisone-G-Ointment>'
p789
aS'<http://bio2rdf.org/drugbank_resource:Dioptimyd-Ointment>'
p790
aS'<http://bio2rdf.org/drugbank_resource:Watkins-medicated-ointment>'
p791
aS'<http://bio2rdf.org/drugbank_resource:Youngflex-massage-ointment-168>'
p792
ag50
ag51
ag77
ag78
ag79
ag52
ag53
ag80
ag81
ag82
ag114
ag115
ag116
ag117
ag118
ag149
ag150
ag151
ag54
ag55
ag83
ag84
ag85
ag119
ag120
ag121
ag122
ag123
ag152
ag153
ag154
ag155
ag156
ag178
ag179
ag180
ag181
ag182
ag198
ag199
ag200
ag201
ag202
ag248
ag249
ag250
ag251
ag252
ag253
ag254
ag255
ag256
ag257
ag258
ag259
ag260
ag261
ag262
ag263
ag264
ag265
ag266
ag267
ag268
ag269
ag270
ag271
ag272
ag303
ag304
ag305
ag306
ag307
ag308
ag309
ag310
ag311
ag312
ag313
ag314
ag315
ag316
ag317
ag318
ag319
ag320
ag321
ag322
ag323
ag324
ag325
ag326
ag327
ag358
ag359
ag360
ag361
ag362
ag363
ag364
ag365
ag366
ag367
ag368
ag369
ag370
ag371
ag372
ag373
ag374
ag375
ag376
ag377
ag378
ag379
ag380
ag381
ag382
ag488
ag489
ag490
ag491
ag492
ag493
ag494
ag495
ag496
ag497
ag498
ag499
ag500
ag501
ag502
ag503
ag504
ag505
ag506
ag507
ag508
ag509
ag510
ag511
ag512
ag513
ag514
ag515
ag516
ag517
ag518
ag519
ag520
ag521
ag522
ag523
ag524
ag525
ag526
ag527
ag528
ag529
ag530
ag531
ag532
ag533
ag534
ag535
ag536
ag537
ag538
ag539
ag540
ag541
ag542
ag543
ag544
ag545
ag546
ag547
ag548
ag549
ag550
ag551
ag552
ag553
ag554
ag555
ag556
ag557
ag558
ag559
ag560
ag561
ag562
ag563
ag564
ag565
ag566
ag567
ag568
ag569
ag570
ag571
ag572
ag573
ag574
ag575
ag576
ag577
ag578
ag579
ag580
ag581
ag582
ag583
ag584
ag585
ag586
ag587
aS'<http://bio2rdf.org/drugbank_resource:DB00519_DB01363>'
p793
aS'<http://bio2rdf.org/drugbank_resource:DB00519_DB01404>'
p794
aS'<http://bio2rdf.org/drugbank_resource:DB00584_DB06196>'
p795
aS'<http://bio2rdf.org/drugbank_resource:DB00575_DB00726>'
p796
aS'<http://bio2rdf.org/drugbank_resource:DB00542_DB06196>'
p797
aS'<http://bio2rdf.org/drugbank_resource:DB00629_DB00726>'
p798
aS'<http://bio2rdf.org/drugbank_resource:DB00633_DB00726>'
p799
aS'<http://bio2rdf.org/drugbank_resource:DB00697_DB00726>'
p800
aS'<http://bio2rdf.org/drugbank_resource:DB00726_DB01018>'
p801
aS'<http://bio2rdf.org/drugbank_resource:DB00691_DB06196>'
p802
aS'<http://bio2rdf.org/drugbank_resource:DB00790_DB06196>'
p803
aS'<http://bio2rdf.org/drugbank_resource:DB00881_DB06196>'
p804
aS'<http://bio2rdf.org/drugbank_resource:DB01197_DB06196>'
p805
aS'<http://bio2rdf.org/drugbank_resource:DB00206_DB00374>'
p806
aS'<http://bio2rdf.org/drugbank_resource:DB00178_DB00374>'
p807
aS'<http://bio2rdf.org/drugbank_resource:DB00177_DB00374>'
p808
aS'<http://bio2rdf.org/drugbank_resource:DB00187_DB00374>'
p809
aS'<http://bio2rdf.org/drugbank_resource:DB00178_DB06196>'
p810
aS'<http://bio2rdf.org/drugbank_resource:DB00195_DB00374>'
p811
aS'<http://bio2rdf.org/drugbank_resource:DB00214_DB00374>'
p812
aS'<http://bio2rdf.org/drugbank_resource:DB00232_DB00374>'
p813
aS'<http://bio2rdf.org/drugbank_resource:DB00275_DB00374>'
p814
aS'<http://bio2rdf.org/drugbank_resource:DB00270_DB00374>'
p815
aS'<http://bio2rdf.org/drugbank_resource:DB00264_DB00374>'
p816
aS'<http://bio2rdf.org/drugbank_resource:DB00343_DB00374>'
p817
aS'<http://bio2rdf.org/drugbank_resource:DB00335_DB00374>'
p818
aS'<http://bio2rdf.org/drugbank_resource:DB00325_DB00374>'
p819
aS'<http://bio2rdf.org/drugbank_resource:DB00350_DB00374>'
p820
aS'<http://bio2rdf.org/drugbank_resource:DB00310_DB00374>'
p821
aS'<http://bio2rdf.org/drugbank_resource:DB00374_DB00575>'
p822
aS'<http://bio2rdf.org/drugbank_resource:DB00374_DB00678>'
p823
aS'<http://bio2rdf.org/drugbank_resource:DB00374_DB00887>'
p824
aS'<http://bio2rdf.org/drugbank_resource:DB00374_DB01197>'
p825
aS'<http://bio2rdf.org/drugbank_resource:DB00374_DB00903>'
p826
aS'<http://bio2rdf.org/drugbank_resource:DB00374_DB00819>'
p827
aS'<http://bio2rdf.org/drugbank_resource:DB00374_DB00691>'
p828
aS'<http://bio2rdf.org/drugbank_resource:DB00374_DB00492>'
p829
aS'<http://bio2rdf.org/drugbank_resource:DB00374_DB00881>'
p830
aS'<http://bio2rdf.org/drugbank_resource:DB00374_DB00999>'
p831
aS'<http://bio2rdf.org/drugbank_resource:DB00374_DB01054>'
p832
aS'<http://bio2rdf.org/drugbank_resource:DB00374_DB00700>'
p833
aS'<http://bio2rdf.org/drugbank_resource:DB00374_DB01580>'
p834
aS'<http://bio2rdf.org/drugbank_resource:DB00374_DB00742>'
p835
aS'<http://bio2rdf.org/drugbank_resource:DB00374_DB00612>'
p836
aS'<http://bio2rdf.org/drugbank_resource:DB00374_DB00401>'
p837
aS'<http://bio2rdf.org/drugbank_resource:DB00374_DB04920>'
p838
aS'<http://bio2rdf.org/drugbank_resource:DB00374_DB00808>'
p839
aS'<http://bio2rdf.org/drugbank_resource:DB00374_DB00629>'
p840
aS'<http://bio2rdf.org/drugbank_resource:DB00374_DB00484>'
p841
aS'<http://bio2rdf.org/drugbank_resource:DB00374_DB01203>'
p842
aS'<http://bio2rdf.org/drugbank_resource:DB00374_DB00384>'
p843
aS'<http://bio2rdf.org/drugbank_resource:DB00374_DB00876>'
p844
aS'<http://bio2rdf.org/drugbank_resource:DB00374_DB01018>'
p845
aS'<http://bio2rdf.org/drugbank_resource:DB00374_DB01395>'
p846
aS'<http://bio2rdf.org/drugbank_resource:DB00374_DB00960>'
p847
aS'<http://bio2rdf.org/drugbank_resource:DB00374_DB00964>'
p848
aS'<http://bio2rdf.org/drugbank_resource:DB00373_DB00374>'
p849
aS'<http://bio2rdf.org/drugbank_resource:DB00374_DB00727>'
p850
aS'<http://bio2rdf.org/drugbank_resource:DB00374_DB00722>'
p851
aS'<http://bio2rdf.org/drugbank_resource:DB00374_DB00584>'
p852
aS'<http://bio2rdf.org/drugbank_resource:DB00374_DB01340>'
p853
aS'<http://bio2rdf.org/drugbank_resource:DB00374_DB00524>'
p854
aS'<http://bio2rdf.org/drugbank_resource:DB00374_DB01193>'
p855
aS'<http://bio2rdf.org/drugbank_resource:DB00374_DB00774>'
p856
aS'<http://bio2rdf.org/drugbank_resource:DB00374_DB00594>'
p857
aS'<http://bio2rdf.org/drugbank_resource:DB00374_DB00661>'
p858
aS'<http://bio2rdf.org/drugbank_resource:DB00374_DB00883>'
p859
aS'<http://bio2rdf.org/drugbank_resource:DB00374_DB01136>'
p860
aS'<http://bio2rdf.org/drugbank_resource:DB00374_DB00421>'
p861
aS'<http://bio2rdf.org/drugbank_resource:DB00374_DB01324>'
p862
aS'<http://bio2rdf.org/drugbank_resource:DB00374_DB00966>'
p863
aS'<http://bio2rdf.org/drugbank_resource:DB00374_DB04846>'
p864
aS'<http://bio2rdf.org/drugbank_resource:DB00374_DB00489>'
p865
aS'<http://bio2rdf.org/drugbank_resource:DB00374_DB00590>'
p866
aS'<http://bio2rdf.org/drugbank_resource:DB00374_DB00542>'
p867
aS'<http://bio2rdf.org/drugbank_resource:DB00374_DB00880>'
p868
aS'<http://bio2rdf.org/drugbank_resource:DB00374_DB01210>'
p869
aS'<http://bio2rdf.org/drugbank_resource:DB00374_DB00697>'
p870
aS'<http://bio2rdf.org/drugbank_resource:DB00374_DB01162>'
p871
aS'<http://bio2rdf.org/drugbank_resource:DB00374_DB00381>'
p872
aS'<http://bio2rdf.org/drugbank_resource:DB00374_DB00790>'
p873
aS'<http://bio2rdf.org/drugbank_resource:DB00374_DB01144>'
p874
aS'<http://bio2rdf.org/drugbank_resource:DB00374_DB00521>'
p875
aS'<http://bio2rdf.org/drugbank_resource:DB00374_DB00457>'
p876
aS'<http://bio2rdf.org/drugbank_resource:DB00374_DB01258>'
p877
aS'<http://bio2rdf.org/drugbank_resource:DB00374_DB00436>'
p878
aS'<http://bio2rdf.org/drugbank_resource:DB00374_DB00797>'
p879
aS'<http://bio2rdf.org/drugbank_resource:DB00374_DB01029>'
p880
aS'<http://bio2rdf.org/drugbank_resource:DB00374_DB01021>'
p881
aS'<http://bio2rdf.org/drugbank_resource:DB00374_DB01359>'
p882
aS'<http://bio2rdf.org/drugbank_resource:DB00374_DB01020>'
p883
aS'<http://bio2rdf.org/drugbank_resource:DB00374_DB00692>'
p884
aS'<http://bio2rdf.org/drugbank_resource:DB00374_DB01023>'
p885
aS'<http://bio2rdf.org/drugbank_resource:DB00374_DB00633>'
p886
aS'<http://bio2rdf.org/drugbank_resource:DB00374_DB00598>'
p887
aS'<http://bio2rdf.org/drugbank_resource:DB00374_DB01113>'
p888
aS'<http://bio2rdf.org/drugbank_resource:DB00374_DB00695>'
p889
aS'<http://bio2rdf.org/drugbank_resource:DB00374_DB03904>'
p890
aS'<http://bio2rdf.org/drugbank_resource:DB00374_DB01214>'
p891
aS'<http://bio2rdf.org/drugbank_resource:DB00374_DB00796>'
p892
aS'<http://bio2rdf.org/drugbank_resource:DB00374_DB00393>'
p893
aS'<http://bio2rdf.org/drugbank_resource:DB00374_DB01115>'
p894
aS'<http://bio2rdf.org/drugbank_resource:DB00374_DB00703>'
p895
aS'<http://bio2rdf.org/drugbank_resource:DB00374_DB04838>'
p896
aS'<http://bio2rdf.org/drugbank_resource:DB00374_DB00925>'
p897
aS'<http://bio2rdf.org/drugbank_resource:DB00374_DB01275>'
p898
aS'<http://bio2rdf.org/drugbank_resource:DB00374_DB04861>'
p899
aS'<http://bio2rdf.org/drugbank_resource:DB00422_DB00519>'
p900
aS'<http://bio2rdf.org/drugbank_resource:DB00374_DB04899>'
p901
aS'<http://bio2rdf.org/drugbank_resource:DB00374_DB00622>'
p902
aS'<http://bio2rdf.org/drugbank_resource:DB00374_DB01612>'
p903
aS'<http://bio2rdf.org/drugbank_resource:DB00492_DB06196>'
p904
aS'<http://bio2rdf.org/drugbank_resource:DB00519_DB01363>'
p905
aS'<http://bio2rdf.org/drugbank_resource:DB00519_DB06196>'
p906
aS'<http://bio2rdf.org/drugbank_resource:DB00519_DB01404>'
p907
aS'<http://bio2rdf.org/drugbank_resource:DB00575_DB00726>'
p908
aS'<http://bio2rdf.org/drugbank_resource:DB00584_DB06196>'
p909
aS'<http://bio2rdf.org/drugbank_resource:DB00542_DB06196>'
p910
aS'<http://bio2rdf.org/drugbank_resource:DB00629_DB00726>'
p911
aS'<http://bio2rdf.org/drugbank_resource:DB00633_DB00726>'
p912
aS'<http://bio2rdf.org/drugbank_resource:DB00691_DB06196>'
p913
aS'<http://bio2rdf.org/drugbank_resource:DB00697_DB00726>'
p914
aS'<http://bio2rdf.org/drugbank_resource:DB00726_DB01018>'
p915
aS'<http://bio2rdf.org/drugbank_resource:DB00790_DB06196>'
p916
aS'<http://bio2rdf.org/drugbank_resource:DB00881_DB06196>'
p917
aS'<http://bio2rdf.org/drugbank_resource:DB01197_DB06196>'
p918
aS'<http://bio2rdf.org/drugbank_resource:DB00214_DB01050>'
p919
aS'<http://bio2rdf.org/drugbank_resource:DB00214_DB00328>'
p920
aS'<http://bio2rdf.org/drugbank_resource:DB00328_DB00887>'
p921
aS'<http://bio2rdf.org/drugbank_resource:DB00328_DB00903>'
p922
aS'<http://bio2rdf.org/drugbank_resource:DB00328_DB00695>'
p923
aS'<http://bio2rdf.org/drugbank_resource:DB00328_DB00519>'
p924
aS'<http://bio2rdf.org/drugbank_resource:DB00373_DB00482>'
p925
aS'<http://bio2rdf.org/drugbank_resource:DB00373_DB00939>'
p926
aS'<http://bio2rdf.org/drugbank_resource:DB00373_DB00712>'
p927
aS'<http://bio2rdf.org/drugbank_resource:DB00373_DB00814>'
p928
aS'<http://bio2rdf.org/drugbank_resource:DB00373_DB00500>'
p929
aS'<http://bio2rdf.org/drugbank_resource:DB00373_DB00605>'
p930
aS'<http://bio2rdf.org/drugbank_resource:DB00373_DB00749>'
p931
aS'<http://bio2rdf.org/drugbank_resource:DB00373_DB01600>'
p932
aS'<http://bio2rdf.org/drugbank_resource:DB00373_DB01283>'
p933
aS'<http://bio2rdf.org/drugbank_resource:DB00373_DB00573>'
p934
aS'<http://bio2rdf.org/drugbank_resource:DB00373_DB00861>'
p935
aS'<http://bio2rdf.org/drugbank_resource:DB00373_DB00991>'
p936
aS'<http://bio2rdf.org/drugbank_resource:DB00373_DB00788>'
p937
aS'<http://bio2rdf.org/drugbank_resource:DB00373_DB00586>'
p938
aS'<http://bio2rdf.org/drugbank_resource:DB00373_DB00461>'
p939
aS'<http://bio2rdf.org/drugbank_resource:DB00373_DB01009>'
p940
aS'<http://bio2rdf.org/drugbank_resource:DB00373_DB00465>'
p941
aS'<http://bio2rdf.org/drugbank_resource:DB00519_DB00784>'
p942
aS'<http://bio2rdf.org/drugbank_resource:DB00482_DB00519>'
p943
aS'<http://bio2rdf.org/drugbank_resource:DB00461_DB00519>'
p944
aS'<http://bio2rdf.org/drugbank_resource:DB00519_DB01283>'
p945
aS'<http://bio2rdf.org/drugbank_resource:DB00519_DB00861>'
p946
aS'<http://bio2rdf.org/drugbank_resource:DB00519_DB01050>'
p947
aS'<http://bio2rdf.org/drugbank_resource:DB00519_DB00749>'
p948
aS'<http://bio2rdf.org/drugbank_resource:DB00519_DB00939>'
p949
aS'<http://bio2rdf.org/drugbank_resource:DB00465_DB00519>'
p950
aS'<http://bio2rdf.org/drugbank_resource:DB00519_DB00586>'
p951
aS'<http://bio2rdf.org/drugbank_resource:DB00519_DB00814>'
p952
aS'<http://bio2rdf.org/drugbank_resource:DB00519_DB00573>'
p953
aS'<http://bio2rdf.org/drugbank_resource:DB00519_DB01009>'
p954
aS'<http://bio2rdf.org/drugbank_resource:DB00519_DB00712>'
p955
aS'<http://bio2rdf.org/drugbank_resource:DB00519_DB00788>'
p956
aS'<http://bio2rdf.org/drugbank_resource:DB00500_DB00519>'
p957
aS'<http://bio2rdf.org/drugbank_resource:DB00519_DB00991>'
p958
aS'<http://bio2rdf.org/drugbank_resource:DB00519_DB00554>'
p959
aS'<http://bio2rdf.org/drugbank_resource:DB00519_DB00605>'
p960
aS'<http://bio2rdf.org/drugbank_resource:DB00519_DB01600>'
p961
aS'<http://bio2rdf.org/drugbank_resource:DB00605_DB00695>'
p962
aS'<http://bio2rdf.org/drugbank_resource:DB00605_DB00903>'
p963
aS'<http://bio2rdf.org/drugbank_resource:DB00605_DB00887>'
p964
aS'<http://bio2rdf.org/drugbank_resource:DB00695_DB01050>'
p965
aS'<http://bio2rdf.org/drugbank_resource:DB00887_DB01050>'
p966
aS'<http://bio2rdf.org/drugbank_resource:DB00903_DB01050>'
p967
aS'<http://bio2rdf.org/drugbank_resource:DB00880_DB01143>'
p968
aS'<http://bio2rdf.org/drugbank_resource:DB00214_DB00328>'
p969
aS'<http://bio2rdf.org/drugbank_resource:DB00214_DB01050>'
p970
aS'<http://bio2rdf.org/drugbank_resource:DB00328_DB00903>'
p971
aS'<http://bio2rdf.org/drugbank_resource:DB00328_DB00695>'
p972
aS'<http://bio2rdf.org/drugbank_resource:DB00328_DB00887>'
p973
aS'<http://bio2rdf.org/drugbank_resource:DB00328_DB00519>'
p974
aS'<http://bio2rdf.org/drugbank_resource:DB00373_DB00788>'
p975
aS'<http://bio2rdf.org/drugbank_resource:DB00373_DB00712>'
p976
aS'<http://bio2rdf.org/drugbank_resource:DB00373_DB01009>'
p977
aS'<http://bio2rdf.org/drugbank_resource:DB00373_DB00461>'
p978
aS'<http://bio2rdf.org/drugbank_resource:DB00373_DB00749>'
p979
aS'<http://bio2rdf.org/drugbank_resource:DB00373_DB00605>'
p980
aS'<http://bio2rdf.org/drugbank_resource:DB00373_DB00465>'
p981
aS'<http://bio2rdf.org/drugbank_resource:DB00373_DB00586>'
p982
aS'<http://bio2rdf.org/drugbank_resource:DB00373_DB00482>'
p983
aS'<http://bio2rdf.org/drugbank_resource:DB00373_DB00991>'
p984
aS'<http://bio2rdf.org/drugbank_resource:DB00373_DB00939>'
p985
aS'<http://bio2rdf.org/drugbank_resource:DB00373_DB00500>'
p986
aS'<http://bio2rdf.org/drugbank_resource:DB00373_DB01600>'
p987
aS'<http://bio2rdf.org/drugbank_resource:DB00373_DB00814>'
p988
aS'<http://bio2rdf.org/drugbank_resource:DB00373_DB00861>'
p989
aS'<http://bio2rdf.org/drugbank_resource:DB00373_DB00573>'
p990
aS'<http://bio2rdf.org/drugbank_resource:DB00373_DB01283>'
p991
aS'<http://bio2rdf.org/drugbank_resource:DB00519_DB00788>'
p992
asa(dp993
g24
(g25
(g27
S'\x01\x00\x00\x00\x00\x00\x00\x00'
tRp994
g29
(g30
(I0
tS'b'
tRp995
(I1
(I4
tg32
I00
S'\x0c=\xa9i\xc4\xa27@\xc7y\xce\xb3\xcc\x9d7@a\xecu\x89\x1f[8@\xba1\xab\x8e\xcaP;@'
tbtp996
sS'n'
I700
sg34
I1111
sg35
(lp997
g37
ag38
ag61
ag62
ag63
ag91
ag92
ag93
ag94
ag95
ag129
ag130
ag131
ag132
ag133
ag162
ag39
ag40
ag64
ag41
ag42
ag65
ag66
ag67
ag96
ag97
ag98
ag99
ag100
ag134
ag135
ag136
ag137
ag138
ag163
ag164
ag165
ag166
ag167
ag188
ag189
ag190
ag191
ag192
ag208
ag209
ag210
ag211
ag212
ag213
ag214
ag215
ag216
ag217
ag218
ag219
ag220
ag221
ag222
ag43
ag44
ag68
ag69
ag70
ag101
ag102
ag103
ag45
ag46
ag71
ag72
ag73
ag104
ag105
ag106
ag107
ag108
ag139
ag140
ag141
ag142
ag143
ag168
ag169
ag170
ag171
ag172
ag47
ag48
ag49
ag74
ag75
ag76
ag109
ag110
ag111
ag112
ag113
ag144
ag145
ag146
ag147
ag148
ag173
ag174
ag175
ag176
ag177
ag193
ag194
ag195
ag196
ag197
ag223
ag224
ag225
ag226
ag227
ag228
ag229
ag230
ag231
ag232
ag233
ag234
ag235
ag236
ag237
ag238
ag239
ag240
ag241
ag242
ag243
ag244
ag245
ag246
ag247
ag278
ag279
ag280
ag281
ag282
ag283
ag284
ag285
ag286
ag287
ag288
ag289
ag290
ag291
ag292
ag293
ag294
ag295
ag296
ag297
ag298
ag299
ag300
ag301
ag302
ag333
ag334
ag335
ag336
ag337
ag338
ag339
ag340
ag341
ag342
ag343
ag344
ag345
ag346
ag347
ag348
ag349
ag350
ag351
ag352
ag353
ag354
ag355
ag356
ag357
ag388
ag389
ag390
ag391
ag392
ag393
ag394
ag395
ag396
ag397
ag398
ag399
ag400
ag401
ag402
ag403
ag404
ag405
ag406
ag407
ag408
ag409
ag410
ag411
ag412
ag413
ag414
ag415
ag416
ag417
ag418
ag419
ag420
ag421
ag422
ag423
ag424
ag425
ag426
ag427
ag428
ag429
ag430
ag431
ag432
ag433
ag434
ag435
ag436
ag437
ag438
ag439
ag440
ag441
ag442
ag443
ag444
ag445
ag446
ag447
ag448
ag449
ag450
ag451
ag452
ag453
ag454
ag455
ag456
ag457
ag458
ag459
ag460
ag461
ag462
ag463
ag464
ag465
ag466
ag467
ag468
ag469
ag470
ag471
ag472
ag473
ag474
ag475
ag476
ag477
ag478
ag479
ag480
ag481
ag482
ag483
ag484
ag485
ag486
ag487
ag593
ag594
ag595
ag596
ag597
ag598
ag599
ag600
ag601
ag602
ag603
ag604
ag605
ag606
ag607
ag608
ag609
ag610
ag611
ag612
ag613
ag614
ag615
ag616
ag617
ag618
ag619
ag620
ag621
ag622
ag623
ag624
ag625
ag626
ag627
ag628
ag629
ag630
ag631
ag632
ag633
ag634
ag635
ag636
ag637
ag638
ag639
ag640
ag641
ag642
ag643
ag644
ag645
ag646
ag647
ag648
ag649
ag650
ag651
ag652
ag653
ag654
ag655
ag656
ag657
ag658
ag659
ag660
ag661
ag662
ag663
ag664
ag665
ag666
ag667
ag668
ag669
ag670
ag671
ag672
ag673
ag674
ag675
ag676
ag677
ag678
ag679
ag680
ag681
ag682
ag683
ag684
ag685
ag686
ag687
ag688
ag689
ag690
ag691
ag692
ag693
ag694
ag695
ag696
ag697
ag698
ag699
ag700
ag701
ag702
ag703
ag704
ag705
ag706
ag707
ag708
ag709
ag710
ag711
ag712
ag713
ag714
ag715
ag716
ag717
ag718
ag719
ag720
ag721
ag722
ag723
ag724
ag725
ag726
ag727
ag728
ag729
ag730
ag731
ag732
ag733
ag734
ag735
ag736
ag737
ag738
ag739
ag740
ag741
ag742
ag743
ag744
ag745
ag746
ag747
ag748
ag749
ag750
ag751
ag752
ag753
ag754
ag755
ag756
ag757
ag758
ag759
ag760
ag761
ag762
ag763
ag764
ag765
ag766
ag767
ag768
ag769
ag770
ag771
ag772
ag773
ag774
ag775
ag776
ag777
ag778
ag779
ag780
ag781
ag782
ag783
ag784
ag785
ag786
ag787
ag788
ag789
ag790
ag791
ag792
aS'<http://bio2rdf.org/drugbank_resource:Diosporin-ointment>'
p998
aS'<http://bio2rdf.org/drugbank_resource:GyneCure-Vaginal-Ointment-Tandempak-6.5%>'
p999
aS'<http://bio2rdf.org/drugbank_resource:Bebia-Ointment-Pommade>'
p1000
aS'<http://bio2rdf.org/drugbank_resource:Vicks-vaporub-lemon-ointment>'
p1001
aS'<http://bio2rdf.org/drugbank_resource:Triple-Antibiotic-Plus-Ointment>'
p1002
aS'<http://bio2rdf.org/drugbank_resource:Sofracort-Ear/Eye-Ointment>'
p1003
aS'<http://bio2rdf.org/drugbank_resource:Sofracort-Sterile-Ear/Eye-Ointment>'
p1004
aS'<http://bio2rdf.org/drugbank_resource:Vicks-vaporub-lemon-ointment>'
p1005
aS'<http://bio2rdf.org/drugbank_resource:Triple-Antibiotic-Plus-Ointment>'
p1006
aS'<http://bio2rdf.org/drugbank_resource:Sofracort-Ear/Eye-Ointment>'
p1007
aS'<http://bio2rdf.org/drugbank_resource:Hemorrhoidal-Ointment>'
p1008
aS'<http://bio2rdf.org/drugbank_resource:Proctol-Ointment>'
p1009
aS'<http://bio2rdf.org/drugbank_resource:Proctosedyl-Ointment>'
p1010
aS'<http://bio2rdf.org/drugbank_resource:Panolog-Ointment>'
p1011
aS'<http://bio2rdf.org/drugbank_resource:Oribiotic-Ointment>'
p1012
aS'<http://bio2rdf.org/drugbank_resource:Polyderm-Ointment-Usp>'
p1013
aS'<http://bio2rdf.org/drugbank_resource:Otomax-Ointment>'
p1014
aS'<http://bio2rdf.org/drugbank_resource:Camphorated-ointment-compound>'
p1015
aS'<http://bio2rdf.org/drugbank_resource:Medicated-ointment>'
p1016
aS'<http://bio2rdf.org/drugbank_resource:Dioptimyd-Ointment>'
p1017
aS'<http://bio2rdf.org/drugbank_resource:Diosporin-ointment>'
p1018
aS'<http://bio2rdf.org/drugbank_resource:Bebia-Ointment-Pommade>'
p1019
aS'<http://bio2rdf.org/drugbank_resource:341c06f2a161f6b2162e162b72be8610>'
p1020
aS'<http://bio2rdf.org/drugbank_resource:c80daf10b69cd043c7338c31dc0b8b91>'
p1021
aS'<http://bio2rdf.org/drugbank_resource:Sofracort-Sterile-Ear/Eye-Ointment>'
p1022
aS'<http://bio2rdf.org/drugbank_resource:Derma-4-Ointment>'
p1023
aS'<http://bio2rdf.org/drugbank_resource:Valisone-G-Ointment>'
p1024
aS'<http://bio2rdf.org/drugbank_resource:Garasone-Ophthalmic-Ointment>'
p1025
aS'<http://bio2rdf.org/drugbank_resource:Instant-rub-ointment>'
p1026
aS'<http://bio2rdf.org/drugbank_resource:Pain-relieving-ointment>'
p1027
aS'<http://bio2rdf.org/drugbank_resource:Balminil-nasal-ointment>'
p1028
aS'<http://bio2rdf.org/drugbank_resource:Vicks-vaporub-lemon-ointment>'
p1029
aS'<http://bio2rdf.org/drugbank_resource:Watkins-medicated-ointment>'
p1030
aS'<http://bio2rdf.org/drugbank_resource:Youngflex-massage-ointment-168>'
p1031
aS'<http://bio2rdf.org/drugbank_resource:Triple-Antibiotic-Plus-Ointment>'
p1032
aS'<http://bio2rdf.org/drugbank_resource:GyneCure-Vaginal-Ointment-Tandempak-6.5%>'
p1033
aS'<http://bio2rdf.org/drugbank_resource:Sofracort-Ear/Eye-Ointment>'
p1034
aS'<http://bio2rdf.org/drugbank_resource:Sofracort-Sterile-Ear/Eye-Ointment>'
p1035
aS'<http://bio2rdf.org/drugbank_resource:e8151dcd5b4304f95124d28b7ff4cfe7>'
p1036
aS'<http://bio2rdf.org/drugbank_resource:85c6423b419c9de7787725480dae7e2c>'
p1037
aS'<http://bio2rdf.org/drugbank_resource:0d0be13239813545294aa5c3349f887f>'
p1038
aS'<http://bio2rdf.org/drugbank_resource:134e44cb74684c2b4d8de454d6414e9d>'
p1039
aS'<http://bio2rdf.org/drugbank_resource:c59c47b8cddc2aecca9736cda723c79f>'
p1040
aS'<http://bio2rdf.org/drugbank_resource:a2235591b007d277489f5b82d2d27691>'
p1041
aS'<http://bio2rdf.org/drugbank_resource:f7f1c493d0cacf4181db61b9633a8b8e>'
p1042
aS'<http://bio2rdf.org/drugbank_resource:2f7135ceaa318f6e03dde3d0575b4c78>'
p1043
aS'<http://bio2rdf.org/drugbank_resource:Neosporin-Ointment>'
p1044
aS'<http://bio2rdf.org/drugbank_vocabulary:d0a647d520dd74a42861ea1ae7e344bc>'
p1045
aS'<http://bio2rdf.org/drugbank_vocabulary:d0a647d520dd74a42861ea1ae7e344bc>'
p1046
aS'<http://bio2rdf.org/drugbank_resource:Polyderm-Antibiotic-Ointment>'
p1047
aS'<http://bio2rdf.org/drugbank_resource:Neosporin-Ophthalmic-Ointment>'
p1048
aS'<http://bio2rdf.org/drugbank_resource:Ozonol-Antibiotic-Plus---Ointment>'
p1049
aS'<http://bio2rdf.org/drugbank_resource:Neosporin-Ointment>'
p1050
aS'<http://bio2rdf.org/drugbank_resource:Neosporin-Ointment>'
p1051
aS'<http://bio2rdf.org/drugbank_resource:Polyderm-Antibiotic-Ointment>'
p1052
aS'<http://bio2rdf.org/drugbank_resource:Neosporin-Ophthalmic-Ointment>'
p1053
aS'<http://bio2rdf.org/drugbank_resource:Polyderm-Antibiotic-Ointment>'
p1054
aS'<http://bio2rdf.org/drugbank_resource:Neosporin-Ophthalmic-Ointment>'
p1055
aS'<http://bio2rdf.org/drugbank_resource:Ozonol-Antibiotic-Plus---Ointment>'
p1056
aS'<http://bio2rdf.org/drugbank_resource:Polyderm-Antibiotic-Ointment>'
p1057
aS'<http://bio2rdf.org/drugbank_resource:Neosporin-Ointment>'
p1058
aS'<http://bio2rdf.org/drugbank_resource:Neosporin-Ophthalmic-Ointment>'
p1059
aS'<http://bio2rdf.org/drugbank_resource:Ozonol-Antibiotic-Plus---Ointment>'
p1060
aS'<http://bio2rdf.org/drugbank_resource:Ozonol-Antibiotic-Plus---Ointment>'
p1061
aS'<http://bio2rdf.org/drugbank_resource:Neosporin-Ointment>'
p1062
aS'<http://bio2rdf.org/drugbank_resource:Polyderm-Antibiotic-Ointment>'
p1063
aS'<http://bio2rdf.org/drugbank_resource:Ozonol-Antibiotic-Plus---Ointment>'
p1064
aS'<http://bio2rdf.org/drugbank_resource:Neosporin-Ophthalmic-Ointment>'
p1065
aS'<http://bio2rdf.org/drugbank_resource:Neotopic-Ointment>'
p1066
aS'<http://bio2rdf.org/drugbank_resource:Solvaderm-Ointment>'
p1067
aS'<http://bio2rdf.org/drugbank_resource:Kenacomb-Ointment>'
p1068
aS'<http://bio2rdf.org/drugbank_resource:Antibiotic-Ointment>'
p1069
aS'<http://bio2rdf.org/drugbank_resource:Polycidin-Ophthalmic-Ointment>'
p1070
aS'<http://bio2rdf.org/drugbank_resource:Kenacomb-Mild-Ointment>'
p1071
aS'<http://bio2rdf.org/drugbank_resource:Polysporin-Antibiotic-Ointment>'
p1072
aS'<http://bio2rdf.org/drugbank_resource:Neo-Bace-Ophthalmic-Ointment>'
p1073
aS'<http://bio2rdf.org/drugbank_resource:First-Aid-Antibiotic-Ointment>'
p1074
aS'<http://bio2rdf.org/drugbank_resource:Polysporin-Sterile-Ophthalmic-Ointment>'
p1075
aS'<http://bio2rdf.org/drugbank_resource:Polysporin-Triple-Antibiotic-Ointment>'
p1076
aS'<http://bio2rdf.org/drugbank_resource:Polysporin-Topical-First-Aid-Antibiotic-Ointment>'
p1077
aS'<http://bio2rdf.org/drugbank_resource:a42359087325b7b4a74cd37470868bdb>'
p1078
aS'<http://bio2rdf.org/drugbank_resource:a42359087325b7b4a74cd37470868bdb>'
p1079
aS'<http://bio2rdf.org/drugbank_resource:a42359087325b7b4a74cd37470868bdb>'
p1080
aS'<http://bio2rdf.org/drugbank_resource:Antibiotic-Ointment>'
p1081
aS'<http://bio2rdf.org/drugbank_resource:Kenacomb-Ointment>'
p1082
aS'<http://bio2rdf.org/drugbank_resource:Neotopic-Ointment>'
p1083
aS'<http://bio2rdf.org/drugbank_resource:Solvaderm-Ointment>'
p1084
aS'<http://bio2rdf.org/drugbank_resource:Antibiotic-Ointment>'
p1085
aS'<http://bio2rdf.org/drugbank_resource:Kenacomb-Ointment>'
p1086
aS'<http://bio2rdf.org/drugbank_resource:Neotopic-Ointment>'
p1087
aS'<http://bio2rdf.org/drugbank_resource:Solvaderm-Ointment>'
p1088
aS'<http://bio2rdf.org/drugbank_resource:b6415fcd03f768f657b12313e6d11c72>'
p1089
aS'<http://bio2rdf.org/drugbank_resource:Kenacomb-Mild-Ointment>'
p1090
aS'<http://bio2rdf.org/drugbank_resource:Polycidin-Ophthalmic-Ointment>'
p1091
aS'<http://bio2rdf.org/drugbank_resource:Polysporin-Antibiotic-Ointment>'
p1092
aS'<http://bio2rdf.org/drugbank_resource:b6415fcd03f768f657b12313e6d11c72>'
p1093
aS'<http://bio2rdf.org/drugbank_resource:Kenacomb-Mild-Ointment>'
p1094
aS'<http://bio2rdf.org/drugbank_resource:Polycidin-Ophthalmic-Ointment>'
p1095
aS'<http://bio2rdf.org/drugbank_resource:Polysporin-Antibiotic-Ointment>'
p1096
aS'<http://bio2rdf.org/drugbank:DB00591>'
p1097
aS'<http://bio2rdf.org/drugbank_resource:89b69f2d18c45901a98cc6e9b752e4b7>'
p1098
aS'<http://bio2rdf.org/drugbank_resource:First-Aid-Antibiotic-Ointment>'
p1099
aS'<http://bio2rdf.org/drugbank_resource:Neo-Bace-Ophthalmic-Ointment>'
p1100
aS'<http://bio2rdf.org/drugbank_resource:Polysporin-Sterile-Ophthalmic-Ointment>'
p1101
aS'<http://bio2rdf.org/drugbank_resource:Polysporin-Triple-Antibiotic-Ointment>'
p1102
aS'<http://bio2rdf.org/drugbank_resource:89b69f2d18c45901a98cc6e9b752e4b7>'
p1103
aS'<http://bio2rdf.org/drugbank_resource:Antibiotic-Ointment>'
p1104
aS'<http://bio2rdf.org/drugbank_resource:Kenacomb-Mild-Ointment>'
p1105
aS'<http://bio2rdf.org/drugbank_resource:Kenacomb-Ointment>'
p1106
aS'<http://bio2rdf.org/drugbank_resource:Neotopic-Ointment>'
p1107
aS'<http://bio2rdf.org/drugbank_resource:Polycidin-Ophthalmic-Ointment>'
p1108
aS'<http://bio2rdf.org/drugbank_resource:Polysporin-Antibiotic-Ointment>'
p1109
aS'<http://bio2rdf.org/drugbank_resource:Solvaderm-Ointment>'
p1110
aS'<http://bio2rdf.org/drugbank_resource:First-Aid-Antibiotic-Ointment>'
p1111
aS'<http://bio2rdf.org/drugbank_resource:Neo-Bace-Ophthalmic-Ointment>'
p1112
aS'<http://bio2rdf.org/drugbank_resource:Polysporin-Sterile-Ophthalmic-Ointment>'
p1113
aS'<http://bio2rdf.org/drugbank_resource:Polysporin-Triple-Antibiotic-Ointment>'
p1114
aS'<http://bio2rdf.org/drugbank_resource:Polysporin-Topical-First-Aid-Antibiotic-Ointment>'
p1115
aS'<http://bio2rdf.org/drugbank_resource:Polysporin-Sterile-Ophthalmic-Ointment>'
p1116
aS'<http://bio2rdf.org/drugbank_resource:First-Aid-Antibiotic-Ointment>'
p1117
aS'<http://bio2rdf.org/drugbank_resource:Neo-Bace-Ophthalmic-Ointment>'
p1118
aS'<http://bio2rdf.org/drugbank_resource:Polysporin-Triple-Antibiotic-Ointment>'
p1119
aS'<http://bio2rdf.org/drugbank_resource:Polysporin-Topical-First-Aid-Antibiotic-Ointment>'
p1120
aS'<http://bio2rdf.org/drugbank_resource:Solvaderm-Ointment>'
p1121
aS'<http://bio2rdf.org/drugbank_resource:Antibiotic-Ointment>'
p1122
aS'<http://bio2rdf.org/drugbank_resource:Neotopic-Ointment>'
p1123
aS'<http://bio2rdf.org/drugbank_resource:Kenacomb-Ointment>'
p1124
aS'<http://bio2rdf.org/drugbank_resource:Polysporin-Topical-First-Aid-Antibiotic-Ointment>'
p1125
aS'<http://bio2rdf.org/drugbank_resource:Kenacomb-Mild-Ointment>'
p1126
aS'<http://bio2rdf.org/drugbank_resource:Neo-Bace-Ophthalmic-Ointment>'
p1127
aS'<http://bio2rdf.org/drugbank_resource:First-Aid-Antibiotic-Ointment>'
p1128
aS'<http://bio2rdf.org/drugbank_resource:Polycidin-Ophthalmic-Ointment>'
p1129
aS'<http://bio2rdf.org/drugbank_resource:Polysporin-Triple-Antibiotic-Ointment>'
p1130
aS'<http://bio2rdf.org/drugbank_resource:Polysporin-Antibiotic-Ointment>'
p1131
aS'<http://bio2rdf.org/drugbank_resource:Polysporin-Sterile-Ophthalmic-Ointment>'
p1132
aS'<http://bio2rdf.org/drugbank_resource:Polysporin-Topical-First-Aid-Antibiotic-Ointment>'
p1133
aS'<http://bio2rdf.org/drugbank_resource:DB00262_DB00864>'
p1134
aS'<http://bio2rdf.org/drugbank_resource:DB00242_DB00864>'
p1135
aS'<http://bio2rdf.org/drugbank_resource:DB00290_DB00864>'
p1136
aS'<http://bio2rdf.org/drugbank_resource:DB00291_DB00864>'
p1137
aS'<http://bio2rdf.org/drugbank_resource:DB00631_DB00864>'
p1138
aS'<http://bio2rdf.org/drugbank_resource:DB00864_DB00958>'
p1139
aS'<http://bio2rdf.org/drugbank_resource:DB00290_DB00864>'
p1140
aS'<http://bio2rdf.org/drugbank_resource:DB00242_DB00864>'
p1141
aS'<http://bio2rdf.org/drugbank_resource:DB00291_DB00864>'
p1142
aS'<http://bio2rdf.org/drugbank_resource:DB00262_DB00864>'
p1143
aS'<http://bio2rdf.org/drugbank_resource:DB00631_DB00864>'
p1144
aS'<http://bio2rdf.org/drugbank_resource:DB00864_DB00958>'
p1145
aS'<http://bio2rdf.org/drugbank:DB01256>'
p1146
aS'<http://bio2rdf.org/drugbank:DB00846>'
p1147
aS'<http://bio2rdf.org/drugbank:DB00793>'
p1148
ag50
ag51
ag77
ag78
ag79
ag52
ag53
ag80
ag81
ag82
ag114
ag115
ag116
ag117
ag118
ag149
ag150
ag151
ag54
ag55
ag83
ag84
ag85
ag119
ag120
ag121
ag122
ag123
ag152
ag153
ag154
ag155
ag156
ag178
ag179
ag180
ag181
ag182
ag198
ag199
ag200
ag201
ag202
ag248
ag249
ag250
ag251
ag252
ag253
ag254
ag255
ag256
ag257
ag258
ag259
ag260
ag261
ag262
ag263
ag264
ag265
ag266
ag267
ag268
ag269
ag270
ag271
ag272
ag303
ag304
ag305
ag306
ag307
ag308
ag309
ag310
ag311
ag312
ag313
ag314
ag315
ag316
ag317
ag318
ag319
ag320
ag321
ag322
ag323
ag324
ag325
ag326
ag327
ag358
ag359
ag360
ag361
ag362
ag363
ag364
ag365
ag366
ag367
ag368
ag369
ag370
ag371
ag372
ag373
ag374
ag375
ag376
ag377
ag378
ag379
ag380
ag381
ag382
ag488
ag489
ag490
ag491
ag492
ag493
ag494
ag495
ag496
ag497
ag498
ag499
ag500
ag501
ag502
ag503
ag504
ag505
ag506
ag507
ag508
ag509
ag510
ag511
ag512
ag513
ag514
ag515
ag516
ag517
ag518
ag519
ag520
ag521
ag522
ag523
ag524
ag525
ag526
ag527
ag528
ag529
ag530
ag531
ag532
ag533
ag534
ag535
ag536
ag537
ag538
ag539
ag540
ag541
ag542
ag543
ag544
ag545
ag546
ag547
ag548
ag549
ag550
ag551
ag552
ag553
ag554
ag555
ag556
ag557
ag558
ag559
ag560
ag561
ag562
ag563
ag564
ag565
ag566
ag567
ag568
ag569
ag570
ag571
ag572
ag573
ag574
ag575
ag576
ag577
ag578
ag579
ag580
ag581
ag582
ag583
ag584
ag585
ag586
ag587
ag793
ag794
ag795
ag796
ag797
ag798
ag799
ag800
ag801
ag802
ag803
ag804
ag805
ag806
ag807
ag808
ag809
ag810
ag811
ag812
ag813
ag814
ag815
ag816
ag817
ag818
ag819
ag820
ag821
ag822
ag823
ag824
ag825
ag826
ag827
ag828
ag829
ag830
ag831
ag832
ag833
ag834
ag835
ag836
ag837
ag838
ag839
ag840
ag841
ag842
ag843
ag844
ag845
ag846
ag847
ag848
ag849
ag850
ag851
ag852
ag853
ag854
ag855
ag856
ag857
ag858
ag859
ag860
ag861
ag862
ag863
ag864
ag865
ag866
ag867
ag868
ag869
ag870
ag871
ag872
ag873
ag874
ag875
ag876
ag877
ag878
ag879
ag880
ag881
ag882
ag883
ag884
ag885
ag886
ag887
ag888
ag889
ag890
ag891
ag892
ag893
ag894
ag895
ag896
ag897
ag898
ag899
ag900
ag901
ag902
ag903
ag904
ag905
ag906
ag907
ag908
ag909
ag910
ag911
ag912
ag913
ag914
ag915
ag916
ag917
ag918
ag919
ag920
ag921
ag922
ag923
ag924
ag925
ag926
ag927
ag928
ag929
ag930
ag931
ag932
ag933
ag934
ag935
ag936
ag937
ag938
ag939
ag940
ag941
ag942
ag943
ag944
ag945
ag946
ag947
ag948
ag949
ag950
ag951
ag952
ag953
ag954
ag955
ag956
ag957
ag958
ag959
ag960
ag961
ag962
ag963
ag964
ag965
ag966
ag967
ag968
ag969
ag970
ag971
ag972
ag973
ag974
ag975
ag976
ag977
ag978
ag979
ag980
ag981
ag982
ag983
ag984
ag985
ag986
ag987
ag988
ag989
ag990
ag991
ag992
aS'<http://bio2rdf.org/drugbank_resource:DB00519_DB00749>'
p1149
aS'<http://bio2rdf.org/drugbank_resource:DB00465_DB00519>'
p1150
aS'<http://bio2rdf.org/drugbank_resource:DB00519_DB00712>'
p1151
aS'<http://bio2rdf.org/drugbank_resource:DB00519_DB00939>'
p1152
aS'<http://bio2rdf.org/drugbank_resource:DB00519_DB00554>'
p1153
aS'<http://bio2rdf.org/drugbank_resource:DB00519_DB00861>'
p1154
aS'<http://bio2rdf.org/drugbank_resource:DB00519_DB01283>'
p1155
aS'<http://bio2rdf.org/drugbank_resource:DB00519_DB01050>'
p1156
aS'<http://bio2rdf.org/drugbank_resource:DB00519_DB00573>'
p1157
aS'<http://bio2rdf.org/drugbank_resource:DB00461_DB00519>'
p1158
aS'<http://bio2rdf.org/drugbank_resource:DB00519_DB01009>'
p1159
aS'<http://bio2rdf.org/drugbank_resource:DB00519_DB00784>'
p1160
aS'<http://bio2rdf.org/drugbank_resource:DB00500_DB00519>'
p1161
aS'<http://bio2rdf.org/drugbank_resource:DB00519_DB00586>'
p1162
aS'<http://bio2rdf.org/drugbank_resource:DB00519_DB00991>'
p1163
aS'<http://bio2rdf.org/drugbank_resource:DB00519_DB00814>'
p1164
aS'<http://bio2rdf.org/drugbank_resource:DB00482_DB00519>'
p1165
aS'<http://bio2rdf.org/drugbank_resource:DB00519_DB00605>'
p1166
aS'<http://bio2rdf.org/drugbank_resource:DB00519_DB01600>'
p1167
aS'<http://bio2rdf.org/drugbank_resource:DB00605_DB00903>'
p1168
aS'<http://bio2rdf.org/drugbank_resource:DB00605_DB00695>'
p1169
aS'<http://bio2rdf.org/drugbank_resource:DB00605_DB00887>'
p1170
aS'<http://bio2rdf.org/drugbank_resource:DB00695_DB01050>'
p1171
aS'<http://bio2rdf.org/drugbank_resource:DB00903_DB01050>'
p1172
aS'<http://bio2rdf.org/drugbank_resource:DB00880_DB01143>'
p1173
aS'<http://bio2rdf.org/drugbank_resource:DB00887_DB01050>'
p1174
aS'<http://bio2rdf.org/drugbank_resource:DB00073_DB00195>'
p1175
aS'<http://bio2rdf.org/drugbank_resource:DB00195_DB01050>'
p1176
aS'<http://bio2rdf.org/drugbank_resource:DB00195_DB00328>'
p1177
aS'<http://bio2rdf.org/drugbank_resource:DB00195_DB00554>'
p1178
aS'<http://bio2rdf.org/drugbank_resource:DB00298_DB00706>'
p1179
aS'<http://bio2rdf.org/drugbank_resource:DB00346_DB00706>'
p1180
aS'<http://bio2rdf.org/drugbank_resource:DB00457_DB00706>'
p1181
aS'<http://bio2rdf.org/drugbank_resource:DB00590_DB00706>'
p1182
aS'<http://bio2rdf.org/drugbank_resource:DB00706_DB01162>'
p1183
aS'<http://bio2rdf.org/drugbank_resource:DB00706_DB00925>'
p1184
aS'<http://bio2rdf.org/drugbank_resource:DB00692_DB00706>'
p1185
aS'<http://bio2rdf.org/drugbank_resource:DB00073_DB00195>'
p1186
aS'<http://bio2rdf.org/drugbank_resource:DB00195_DB00328>'
p1187
aS'<http://bio2rdf.org/drugbank_resource:DB00195_DB01050>'
p1188
aS'<http://bio2rdf.org/drugbank_resource:DB00195_DB00554>'
p1189
aS'<http://bio2rdf.org/drugbank_resource:DB00298_DB00706>'
p1190
aS'<http://bio2rdf.org/drugbank_resource:DB00346_DB00706>'
p1191
aS'<http://bio2rdf.org/drugbank_resource:DB00457_DB00706>'
p1192
aS'<http://bio2rdf.org/drugbank_resource:DB00590_DB00706>'
p1193
aS'<http://bio2rdf.org/drugbank_resource:DB00706_DB01162>'
p1194
aS'<http://bio2rdf.org/drugbank_resource:DB00706_DB00925>'
p1195
aS'<http://bio2rdf.org/drugbank_resource:DB00692_DB00706>'
p1196
aS'<http://bio2rdf.org/drugbank_resource:DB00073_DB00880>'
p1197
aS'<http://bio2rdf.org/drugbank_resource:DB00073_DB00880>'
p1198
aS'<http://bio2rdf.org/drugbank:DB01214>'
p1199
aS'<http://bio2rdf.org/drugbank_resource:DB00374_DB00975>'
p1200
aS'<http://bio2rdf.org/drugbank_resource:DB00374_DB00975>'
p1201
aS'<http://bio2rdf.org/drugbank:DB00629>'
p1202
asa(dp1203
g24
(g25
(g27
S'\x01\x00\x00\x00\x00\x00\x00\x00'
tRp1204
g29
(g30
(I0
tS'b'
tRp1205
(I1
(I4
tg32
I00
S'\x0c=\xa9i\xc4\xa27@\xc7y\xce\xb3\xcc\x9d7@a\xecu\x89\x1f[8@\xba1\xab\x8e\xcaP;@'
tbtp1206
sS'n'
I1000
sg34
I1111
sg35
(lp1207
g37
ag38
ag61
ag62
ag63
ag91
ag92
ag93
ag94
ag95
ag129
ag130
ag131
ag132
ag133
ag162
ag39
ag40
ag64
ag41
ag42
ag65
ag66
ag67
ag96
ag97
ag98
ag99
ag100
ag134
ag135
ag136
ag137
ag138
ag163
ag164
ag165
ag166
ag167
ag188
ag189
ag190
ag191
ag192
ag208
ag209
ag210
ag211
ag212
ag213
ag214
ag215
ag216
ag217
ag218
ag219
ag220
ag221
ag222
ag43
ag44
ag68
ag69
ag70
ag101
ag102
ag103
ag45
ag46
ag71
ag72
ag73
ag104
ag105
ag106
ag107
ag108
ag139
ag140
ag141
ag142
ag143
ag168
ag169
ag170
ag171
ag172
ag47
ag48
ag49
ag74
ag75
ag76
ag109
ag110
ag111
ag112
ag113
ag144
ag145
ag146
ag147
ag148
ag173
ag174
ag175
ag176
ag177
ag193
ag194
ag195
ag196
ag197
ag223
ag224
ag225
ag226
ag227
ag228
ag229
ag230
ag231
ag232
ag233
ag234
ag235
ag236
ag237
ag238
ag239
ag240
ag241
ag242
ag243
ag244
ag245
ag246
ag247
ag278
ag279
ag280
ag281
ag282
ag283
ag284
ag285
ag286
ag287
ag288
ag289
ag290
ag291
ag292
ag293
ag294
ag295
ag296
ag297
ag298
ag299
ag300
ag301
ag302
ag333
ag334
ag335
ag336
ag337
ag338
ag339
ag340
ag341
ag342
ag343
ag344
ag345
ag346
ag347
ag348
ag349
ag350
ag351
ag352
ag353
ag354
ag355
ag356
ag357
ag388
ag389
ag390
ag391
ag392
ag393
ag394
ag395
ag396
ag397
ag398
ag399
ag400
ag401
ag402
ag403
ag404
ag405
ag406
ag407
ag408
ag409
ag410
ag411
ag412
ag413
ag414
ag415
ag416
ag417
ag418
ag419
ag420
ag421
ag422
ag423
ag424
ag425
ag426
ag427
ag428
ag429
ag430
ag431
ag432
ag433
ag434
ag435
ag436
ag437
ag438
ag439
ag440
ag441
ag442
ag443
ag444
ag445
ag446
ag447
ag448
ag449
ag450
ag451
ag452
ag453
ag454
ag455
ag456
ag457
ag458
ag459
ag460
ag461
ag462
ag463
ag464
ag465
ag466
ag467
ag468
ag469
ag470
ag471
ag472
ag473
ag474
ag475
ag476
ag477
ag478
ag479
ag480
ag481
ag482
ag483
ag484
ag485
ag486
ag487
ag593
ag594
ag595
ag596
ag597
ag598
ag599
ag600
ag601
ag602
ag603
ag604
ag605
ag606
ag607
ag608
ag609
ag610
ag611
ag612
ag613
ag614
ag615
ag616
ag617
ag618
ag619
ag620
ag621
ag622
ag623
ag624
ag625
ag626
ag627
ag628
ag629
ag630
ag631
ag632
ag633
ag634
ag635
ag636
ag637
ag638
ag639
ag640
ag641
ag642
ag643
ag644
ag645
ag646
ag647
ag648
ag649
ag650
ag651
ag652
ag653
ag654
ag655
ag656
ag657
ag658
ag659
ag660
ag661
ag662
ag663
ag664
ag665
ag666
ag667
ag668
ag669
ag670
ag671
ag672
ag673
ag674
ag675
ag676
ag677
ag678
ag679
ag680
ag681
ag682
ag683
ag684
ag685
ag686
ag687
ag688
ag689
ag690
ag691
ag692
ag693
ag694
ag695
ag696
ag697
ag698
ag699
ag700
ag701
ag702
ag703
ag704
ag705
ag706
ag707
ag708
ag709
ag710
ag711
ag712
ag713
ag714
ag715
ag716
ag717
ag718
ag719
ag720
ag721
ag722
ag723
ag724
ag725
ag726
ag727
ag728
ag729
ag730
ag731
ag732
ag733
ag734
ag735
ag736
ag737
ag738
ag739
ag740
ag741
ag742
ag743
ag744
ag745
ag746
ag747
ag748
ag749
ag750
ag751
ag752
ag753
ag754
ag755
ag756
ag757
ag758
ag759
ag760
ag761
ag762
ag763
ag764
ag765
ag766
ag767
ag768
ag769
ag770
ag771
ag772
ag773
ag774
ag775
ag776
ag777
ag778
ag779
ag780
ag781
ag782
ag783
ag784
ag785
ag786
ag787
ag788
ag789
ag790
ag791
ag792
ag998
ag999
ag1000
ag1001
ag1002
ag1003
ag1004
ag1005
ag1006
ag1007
ag1008
ag1009
ag1010
ag1011
ag1012
ag1013
ag1014
ag1015
ag1016
ag1017
ag1018
ag1019
ag1020
ag1021
ag1022
ag1023
ag1024
ag1025
ag1026
ag1027
ag1028
ag1029
ag1030
ag1031
ag1032
ag1033
ag1034
ag1035
ag1036
ag1037
ag1038
ag1039
ag1040
ag1041
ag1042
ag1043
ag1044
ag1045
ag1046
ag1047
ag1048
ag1049
ag1050
ag1051
ag1052
ag1053
ag1054
ag1055
ag1056
ag1057
ag1058
ag1059
ag1060
ag1061
ag1062
ag1063
ag1064
ag1065
ag1066
ag1067
ag1068
ag1069
ag1070
ag1071
ag1072
ag1073
ag1074
ag1075
ag1076
ag1077
ag1078
ag1079
ag1080
ag1081
ag1082
ag1083
ag1084
ag1085
ag1086
ag1087
ag1088
ag1089
ag1090
ag1091
ag1092
ag1093
ag1094
ag1095
ag1096
ag1097
ag1098
ag1099
ag1100
ag1101
ag1102
ag1103
ag1104
ag1105
ag1106
ag1107
ag1108
ag1109
ag1110
ag1111
ag1112
ag1113
ag1114
ag1115
ag1116
ag1117
ag1118
ag1119
ag1120
ag1121
ag1122
ag1123
ag1124
ag1125
ag1126
ag1127
ag1128
ag1129
ag1130
ag1131
ag1132
ag1133
ag1134
ag1135
ag1136
ag1137
ag1138
ag1139
ag1140
ag1141
ag1142
ag1143
ag1144
ag1145
ag1146
ag1147
ag1148
ag50
ag51
ag77
ag78
ag79
ag52
ag53
ag80
ag81
ag82
ag114
ag115
ag116
ag117
ag118
ag149
ag150
ag151
ag54
ag55
ag83
ag84
ag85
ag119
ag120
ag121
ag122
ag123
ag152
ag153
ag154
ag155
ag156
ag178
ag179
ag180
ag181
ag182
ag198
ag199
ag200
ag201
ag202
ag248
ag249
ag250
ag251
ag252
ag253
ag254
ag255
ag256
ag257
ag258
ag259
ag260
ag261
ag262
ag263
ag264
ag265
ag266
ag267
ag268
ag269
ag270
ag271
ag272
ag303
ag304
ag305
ag306
ag307
ag308
ag309
ag310
ag311
ag312
ag313
ag314
ag315
ag316
ag317
ag318
ag319
ag320
ag321
ag322
ag323
ag324
ag325
ag326
ag327
ag358
ag359
ag360
ag361
ag362
ag363
ag364
ag365
ag366
ag367
ag368
ag369
ag370
ag371
ag372
ag373
ag374
ag375
ag376
ag377
ag378
ag379
ag380
ag381
ag382
ag488
ag489
ag490
ag491
ag492
ag493
ag494
ag495
ag496
ag497
ag498
ag499
ag500
ag501
ag502
ag503
ag504
ag505
ag506
ag507
ag508
ag509
ag510
ag511
ag512
ag513
ag514
ag515
ag516
ag517
ag518
ag519
ag520
ag521
ag522
ag523
ag524
ag525
ag526
ag527
ag528
ag529
ag530
ag531
ag532
ag533
ag534
ag535
ag536
ag537
ag538
ag539
ag540
ag541
ag542
ag543
ag544
ag545
ag546
ag547
ag548
ag549
ag550
ag551
ag552
ag553
ag554
ag555
ag556
ag557
ag558
ag559
ag560
ag561
ag562
ag563
ag564
ag565
ag566
ag567
ag568
ag569
ag570
ag571
ag572
ag573
ag574
ag575
ag576
ag577
ag578
ag579
ag580
ag581
ag582
ag583
ag584
ag585
ag586
ag587
ag793
ag794
ag795
ag796
ag797
ag798
ag799
ag800
ag801
ag802
ag803
ag804
ag805
ag806
ag807
ag808
ag809
ag810
ag811
ag812
ag813
ag814
ag815
ag816
ag817
ag818
ag819
ag820
ag821
ag822
ag823
ag824
ag825
ag826
ag827
ag828
ag829
ag830
ag831
ag832
ag833
ag834
ag835
ag836
ag837
ag838
ag839
ag840
ag841
ag842
ag843
ag844
ag845
ag846
ag847
ag848
ag849
ag850
ag851
ag852
ag853
ag854
ag855
ag856
ag857
ag858
ag859
ag860
ag861
ag862
ag863
ag864
ag865
ag866
ag867
ag868
ag869
ag870
ag871
ag872
ag873
ag874
ag875
ag876
ag877
ag878
ag879
ag880
ag881
ag882
ag883
ag884
ag885
ag886
ag887
ag888
ag889
ag890
ag891
ag892
ag893
ag894
ag895
ag896
ag897
ag898
ag899
ag900
ag901
ag902
ag903
ag904
ag905
ag906
ag907
ag908
ag909
ag910
ag911
ag912
ag913
ag914
ag915
ag916
ag917
ag918
ag919
ag920
ag921
ag922
ag923
ag924
ag925
ag926
ag927
ag928
ag929
ag930
ag931
ag932
ag933
ag934
ag935
ag936
ag937
ag938
ag939
ag940
ag941
ag942
ag943
ag944
ag945
ag946
ag947
ag948
ag949
ag950
ag951
ag952
ag953
ag954
ag955
ag956
ag957
ag958
ag959
ag960
ag961
ag962
ag963
ag964
ag965
ag966
ag967
ag968
ag969
ag970
ag971
ag972
ag973
ag974
ag975
ag976
ag977
ag978
ag979
ag980
ag981
ag982
ag983
ag984
ag985
ag986
ag987
ag988
ag989
ag990
ag991
ag992
ag1149
ag1150
ag1151
ag1152
ag1153
ag1154
ag1155
ag1156
ag1157
ag1158
ag1159
ag1160
ag1161
ag1162
ag1163
ag1164
ag1165
ag1166
ag1167
ag1168
ag1169
ag1170
ag1171
ag1172
ag1173
ag1174
ag1175
ag1176
ag1177
ag1178
ag1179
ag1180
ag1181
ag1182
ag1183
ag1184
ag1185
ag1186
ag1187
ag1188
ag1189
ag1190
ag1191
ag1192
ag1193
ag1194
ag1195
ag1196
ag1197
ag1198
ag1199
ag1200
ag1201
ag1202
asa(dp1208
g24
(g25
(g27
S'\x01\x00\x00\x00\x00\x00\x00\x00'
tRp1209
g29
(g30
(I0
tS'b'
tRp1210
(I1
(I4
tg32
I00
S'\x0c=\xa9i\xc4\xa27@\xc7y\xce\xb3\xcc\x9d7@a\xecu\x89\x1f[8@\xba1\xab\x8e\xcaP;@'
tbtp1211
sS'n'
I1500
sg34
I1111
sg35
(lp1212
g37
ag38
ag61
ag62
ag63
ag91
ag92
ag93
ag94
ag95
ag129
ag130
ag131
ag132
ag133
ag162
ag39
ag40
ag64
ag41
ag42
ag65
ag66
ag67
ag96
ag97
ag98
ag99
ag100
ag134
ag135
ag136
ag137
ag138
ag163
ag164
ag165
ag166
ag167
ag188
ag189
ag190
ag191
ag192
ag208
ag209
ag210
ag211
ag212
ag213
ag214
ag215
ag216
ag217
ag218
ag219
ag220
ag221
ag222
ag43
ag44
ag68
ag69
ag70
ag101
ag102
ag103
ag45
ag46
ag71
ag72
ag73
ag104
ag105
ag106
ag107
ag108
ag139
ag140
ag141
ag142
ag143
ag168
ag169
ag170
ag171
ag172
ag47
ag48
ag49
ag74
ag75
ag76
ag109
ag110
ag111
ag112
ag113
ag144
ag145
ag146
ag147
ag148
ag173
ag174
ag175
ag176
ag177
ag193
ag194
ag195
ag196
ag197
ag223
ag224
ag225
ag226
ag227
ag228
ag229
ag230
ag231
ag232
ag233
ag234
ag235
ag236
ag237
ag238
ag239
ag240
ag241
ag242
ag243
ag244
ag245
ag246
ag247
ag278
ag279
ag280
ag281
ag282
ag283
ag284
ag285
ag286
ag287
ag288
ag289
ag290
ag291
ag292
ag293
ag294
ag295
ag296
ag297
ag298
ag299
ag300
ag301
ag302
ag333
ag334
ag335
ag336
ag337
ag338
ag339
ag340
ag341
ag342
ag343
ag344
ag345
ag346
ag347
ag348
ag349
ag350
ag351
ag352
ag353
ag354
ag355
ag356
ag357
ag388
ag389
ag390
ag391
ag392
ag393
ag394
ag395
ag396
ag397
ag398
ag399
ag400
ag401
ag402
ag403
ag404
ag405
ag406
ag407
ag408
ag409
ag410
ag411
ag412
ag413
ag414
ag415
ag416
ag417
ag418
ag419
ag420
ag421
ag422
ag423
ag424
ag425
ag426
ag427
ag428
ag429
ag430
ag431
ag432
ag433
ag434
ag435
ag436
ag437
ag438
ag439
ag440
ag441
ag442
ag443
ag444
ag445
ag446
ag447
ag448
ag449
ag450
ag451
ag452
ag453
ag454
ag455
ag456
ag457
ag458
ag459
ag460
ag461
ag462
ag463
ag464
ag465
ag466
ag467
ag468
ag469
ag470
ag471
ag472
ag473
ag474
ag475
ag476
ag477
ag478
ag479
ag480
ag481
ag482
ag483
ag484
ag485
ag486
ag487
ag593
ag594
ag595
ag596
ag597
ag598
ag599
ag600
ag601
ag602
ag603
ag604
ag605
ag606
ag607
ag608
ag609
ag610
ag611
ag612
ag613
ag614
ag615
ag616
ag617
ag618
ag619
ag620
ag621
ag622
ag623
ag624
ag625
ag626
ag627
ag628
ag629
ag630
ag631
ag632
ag633
ag634
ag635
ag636
ag637
ag638
ag639
ag640
ag641
ag642
ag643
ag644
ag645
ag646
ag647
ag648
ag649
ag650
ag651
ag652
ag653
ag654
ag655
ag656
ag657
ag658
ag659
ag660
ag661
ag662
ag663
ag664
ag665
ag666
ag667
ag668
ag669
ag670
ag671
ag672
ag673
ag674
ag675
ag676
ag677
ag678
ag679
ag680
ag681
ag682
ag683
ag684
ag685
ag686
ag687
ag688
ag689
ag690
ag691
ag692
ag693
ag694
ag695
ag696
ag697
ag698
ag699
ag700
ag701
ag702
ag703
ag704
ag705
ag706
ag707
ag708
ag709
ag710
ag711
ag712
ag713
ag714
ag715
ag716
ag717
ag718
ag719
ag720
ag721
ag722
ag723
ag724
ag725
ag726
ag727
ag728
ag729
ag730
ag731
ag732
ag733
ag734
ag735
ag736
ag737
ag738
ag739
ag740
ag741
ag742
ag743
ag744
ag745
ag746
ag747
ag748
ag749
ag750
ag751
ag752
ag753
ag754
ag755
ag756
ag757
ag758
ag759
ag760
ag761
ag762
ag763
ag764
ag765
ag766
ag767
ag768
ag769
ag770
ag771
ag772
ag773
ag774
ag775
ag776
ag777
ag778
ag779
ag780
ag781
ag782
ag783
ag784
ag785
ag786
ag787
ag788
ag789
ag790
ag791
ag792
ag998
ag999
ag1000
ag1001
ag1002
ag1003
ag1004
ag1005
ag1006
ag1007
ag1008
ag1009
ag1010
ag1011
ag1012
ag1013
ag1014
ag1015
ag1016
ag1017
ag1018
ag1019
ag1020
ag1021
ag1022
ag1023
ag1024
ag1025
ag1026
ag1027
ag1028
ag1029
ag1030
ag1031
ag1032
ag1033
ag1034
ag1035
ag1036
ag1037
ag1038
ag1039
ag1040
ag1041
ag1042
ag1043
ag1044
ag1045
ag1046
ag1047
ag1048
ag1049
ag1050
ag1051
ag1052
ag1053
ag1054
ag1055
ag1056
ag1057
ag1058
ag1059
ag1060
ag1061
ag1062
ag1063
ag1064
ag1065
ag1066
ag1067
ag1068
ag1069
ag1070
ag1071
ag1072
ag1073
ag1074
ag1075
ag1076
ag1077
ag1078
ag1079
ag1080
ag1081
ag1082
ag1083
ag1084
ag1085
ag1086
ag1087
ag1088
ag1089
ag1090
ag1091
ag1092
ag1093
ag1094
ag1095
ag1096
ag1097
ag1098
ag1099
ag1100
ag1101
ag1102
ag1103
ag1104
ag1105
ag1106
ag1107
ag1108
ag1109
ag1110
ag1111
ag1112
ag1113
ag1114
ag1115
ag1116
ag1117
ag1118
ag1119
ag1120
ag1121
ag1122
ag1123
ag1124
ag1125
ag1126
ag1127
ag1128
ag1129
ag1130
ag1131
ag1132
ag1133
ag1134
ag1135
ag1136
ag1137
ag1138
ag1139
ag1140
ag1141
ag1142
ag1143
ag1144
ag1145
ag1146
ag1147
ag1148
ag50
ag51
ag77
ag78
ag79
ag52
ag53
ag80
ag81
ag82
ag114
ag115
ag116
ag117
ag118
ag149
ag150
ag151
ag54
ag55
ag83
ag84
ag85
ag119
ag120
ag121
ag122
ag123
ag152
ag153
ag154
ag155
ag156
ag178
ag179
ag180
ag181
ag182
ag198
ag199
ag200
ag201
ag202
ag248
ag249
ag250
ag251
ag252
ag253
ag254
ag255
ag256
ag257
ag258
ag259
ag260
ag261
ag262
ag263
ag264
ag265
ag266
ag267
ag268
ag269
ag270
ag271
ag272
ag303
ag304
ag305
ag306
ag307
ag308
ag309
ag310
ag311
ag312
ag313
ag314
ag315
ag316
ag317
ag318
ag319
ag320
ag321
ag322
ag323
ag324
ag325
ag326
ag327
ag358
ag359
ag360
ag361
ag362
ag363
ag364
ag365
ag366
ag367
ag368
ag369
ag370
ag371
ag372
ag373
ag374
ag375
ag376
ag377
ag378
ag379
ag380
ag381
ag382
ag488
ag489
ag490
ag491
ag492
ag493
ag494
ag495
ag496
ag497
ag498
ag499
ag500
ag501
ag502
ag503
ag504
ag505
ag506
ag507
ag508
ag509
ag510
ag511
ag512
ag513
ag514
ag515
ag516
ag517
ag518
ag519
ag520
ag521
ag522
ag523
ag524
ag525
ag526
ag527
ag528
ag529
ag530
ag531
ag532
ag533
ag534
ag535
ag536
ag537
ag538
ag539
ag540
ag541
ag542
ag543
ag544
ag545
ag546
ag547
ag548
ag549
ag550
ag551
ag552
ag553
ag554
ag555
ag556
ag557
ag558
ag559
ag560
ag561
ag562
ag563
ag564
ag565
ag566
ag567
ag568
ag569
ag570
ag571
ag572
ag573
ag574
ag575
ag576
ag577
ag578
ag579
ag580
ag581
ag582
ag583
ag584
ag585
ag586
ag587
ag793
ag794
ag795
ag796
ag797
ag798
ag799
ag800
ag801
ag802
ag803
ag804
ag805
ag806
ag807
ag808
ag809
ag810
ag811
ag812
ag813
ag814
ag815
ag816
ag817
ag818
ag819
ag820
ag821
ag822
ag823
ag824
ag825
ag826
ag827
ag828
ag829
ag830
ag831
ag832
ag833
ag834
ag835
ag836
ag837
ag838
ag839
ag840
ag841
ag842
ag843
ag844
ag845
ag846
ag847
ag848
ag849
ag850
ag851
ag852
ag853
ag854
ag855
ag856
ag857
ag858
ag859
ag860
ag861
ag862
ag863
ag864
ag865
ag866
ag867
ag868
ag869
ag870
ag871
ag872
ag873
ag874
ag875
ag876
ag877
ag878
ag879
ag880
ag881
ag882
ag883
ag884
ag885
ag886
ag887
ag888
ag889
ag890
ag891
ag892
ag893
ag894
ag895
ag896
ag897
ag898
ag899
ag900
ag901
ag902
ag903
ag904
ag905
ag906
ag907
ag908
ag909
ag910
ag911
ag912
ag913
ag914
ag915
ag916
ag917
ag918
ag919
ag920
ag921
ag922
ag923
ag924
ag925
ag926
ag927
ag928
ag929
ag930
ag931
ag932
ag933
ag934
ag935
ag936
ag937
ag938
ag939
ag940
ag941
ag942
ag943
ag944
ag945
ag946
ag947
ag948
ag949
ag950
ag951
ag952
ag953
ag954
ag955
ag956
ag957
ag958
ag959
ag960
ag961
ag962
ag963
ag964
ag965
ag966
ag967
ag968
ag969
ag970
ag971
ag972
ag973
ag974
ag975
ag976
ag977
ag978
ag979
ag980
ag981
ag982
ag983
ag984
ag985
ag986
ag987
ag988
ag989
ag990
ag991
ag992
ag1149
ag1150
ag1151
ag1152
ag1153
ag1154
ag1155
ag1156
ag1157
ag1158
ag1159
ag1160
ag1161
ag1162
ag1163
ag1164
ag1165
ag1166
ag1167
ag1168
ag1169
ag1170
ag1171
ag1172
ag1173
ag1174
ag1175
ag1176
ag1177
ag1178
ag1179
ag1180
ag1181
ag1182
ag1183
ag1184
ag1185
ag1186
ag1187
ag1188
ag1189
ag1190
ag1191
ag1192
ag1193
ag1194
ag1195
ag1196
ag1197
ag1198
ag1199
ag1200
ag1201
ag1202
asasS'summary'
p1213
S'Degree-based weights and average-median qa weights'
p1214
sS'trials'
p1215
(lp1216
I2
aI5
aI10
aI15
aI20
aI25
aI50
aI75
aI100
aI200
aI400
aI700
aI1000
aI1500
asS'q_text_entities'
p1217
(lp1218
S'renal mechanisms'
p1219
aS'hypoxanthine metabolite'
p1220
aS'antiviral agent'
p1221
aS'keratoconjunctivitis'
p1222
aS'HSV'
p1223
aS'encephalitis'
p1224
aS'ointment'
p1225
aS'coronary vascular disease'
p1226
aS'hyperlipidemia'
p1227
aS'antihypertensive'
p1228
asS'weights'
p1229
S'deg_weight'
p1230
sS'graph'
p1231
S'drugbank-ext-v2.graphml'
p1232
sS'date'
p1233
S'2014/07/16 02:47'
p1234
sS'correct'
p1235
I0
sS'description'
p1236
S"\n        The four multiple choice answers are all medicines that are all present in Drugbank. \n        They can be found using `qa.find_drugbank_entity`. \n        The question text, on the other hand, does not contain entities in Drugbank. \n        However, some entities might have entities from the question text in their description. \n        So we try to identify relevant drugbank entities by doing a full-text search over drugbank \n        (using Virtuoso's built-in Precision Search). \n        Clearly, this representation is not perfect: if we select only a few entities, \n        which are actually unrelated, a good result seems implausible. \n        So we examine this: **what is the (very rough) effect of the number of \n        entities we pick from the ranked full-text search results?**\n        "
p1237
s.