(dp1
S'expid'
p2
S'e3-q5'
p3
sS'description'
p4
S"\n        The four multiple choice answers are all medicines that are all present in Drugbank. \n        They can be found using `qa.find_drugbank_entity`. \n        The question text, on the other hand, does not contain entities in Drugbank. \n        However, some entities might have entities from the question text in their description. \n        So we try to identify relevant drugbank entities by doing a full-text search over drugbank \n        (using Virtuoso's built-in Precision Search). \n        Clearly, this representation is not perfect: if we select only a few entities, \n        which are actually unrelated, a good result seems implausible. \n        So we examine this: **what is the (very rough) effect of the number of \n        entities we pick from the ranked full-text search results?**\n        "
p5
sS'qid'
p6
S'Q26#11'
p7
sS'qa_dist_fn'
p8
S'avg_med_qa_dist'
p9
sS'results'
p10
(lp11
(dp12
S'output'
p13
(cnumpy.core.multiarray
scalar
p14
(cnumpy
dtype
p15
(S'i8'
I0
I1
tRp16
(I3
S'<'
NNNI-1
I-1
I0
tbS'\x02\x00\x00\x00\x00\x00\x00\x00'
tRp17
cnumpy.core.multiarray
_reconstruct
p18
(cnumpy
ndarray
p19
(I0
tS'b'
tRp20
(I1
(I4
tg15
(S'f8'
I0
I1
tRp21
(I3
S'<'
NNNI-1
I-1
I0
tbI00
S'\xad\x9b\xf68w\xf74@\x17\xc6\xc9\xb0=65@\xfb\x0f\x9c\xe6\xd0e4@\x92\xc1\xeb\x94\xa8\x884@'
tbtp22
sS'n'
I2
sS'q_len'
p23
I18
sS'q_entities'
p24
(lp25
S'<http://bio2rdf.org/drugbank:DB01023>'
p26
aS'<http://bio2rdf.org/drugbank_resource:f4784b71e690722f5385f6351b05095b>'
p27
aS'<http://bio2rdf.org/drugbank:DB01115>'
p28
aS'<http://bio2rdf.org/drugbank:DB00678>'
p29
aS'<http://bio2rdf.org/drugbank:DB01136>'
p30
aS'<http://bio2rdf.org/drugbank:DB00390>'
p31
aS'<http://bio2rdf.org/drugbank_resource:3cde30b36852f7b9c00dee4344ac848e>'
p32
aS'<http://bio2rdf.org/drugbank_resource:9c25146e638946f623aa713bd8eaef2d>'
p33
aS'<http://bio2rdf.org/drugbank_resource:3f8eb2e4747689da12a3e58c951d53cd>'
p34
aS'<http://bio2rdf.org/drugbank_resource:bd687af4edd76bff2316ee27418c98a3>'
p35
aS'<http://bio2rdf.org/drugbank:DB01016>'
p36
aS'<http://bio2rdf.org/drugbank:DB00731>'
p37
aS'<http://bio2rdf.org/drugbank_resource:3cdb6e37c5a64bd24165a1d0df8c6873>'
p38
aS'<http://bio2rdf.org/drugbank_resource:2b0c1c9e8dff063b04ebdc967dfe01ac>'
p39
aS'<http://bio2rdf.org/drugbank_resource:7c3a178340714b6330c61dde5efdbdbe>'
p40
aS'<http://bio2rdf.org/drugbank_resource:99fc1f444fee76b2bfb46c98fb05e208>'
p41
aS'<http://bio2rdf.org/drugbank_vocabulary:Antihypertensive-Agents>'
p42
aS'<http://bio2rdf.org/drugbank_vocabulary:Antihypertensive-Agents>'
p43
asa(dp44
g13
(g14
(g16
S'\x02\x00\x00\x00\x00\x00\x00\x00'
tRp45
g18
(g19
(I0
tS'b'
tRp46
(I1
(I4
tg21
I00
S'\xabl%h\xabK6@y\x1a<4#U6@R\x18yV\xd8\x006@\xaa\xf7Q\x13q\x026@'
tbtp47
sS'n'
I5
sg23
I45
sg24
(lp48
g26
ag27
aS'<http://bio2rdf.org/drugbank_resource:f2d2b0bc429f8df04fe026b64751fba6>'
p49
aS'<http://bio2rdf.org/drugbank_resource:29d0d8044f3418a15a77736a346663d1>'
p50
aS'<http://bio2rdf.org/drugbank_resource:b88946e879453f0d2fc30fa953111a35>'
p51
ag28
ag29
aS'<http://bio2rdf.org/drugbank:DB01023>'
p52
aS'<http://bio2rdf.org/drugbank:DB06712>'
p53
aS'<http://bio2rdf.org/drugbank:DB00381>'
p54
ag30
ag31
aS'<http://bio2rdf.org/drugbank_resource:80985cfad56fac1945569b97114e1194>'
p55
aS'<http://bio2rdf.org/drugbank_resource:037d9dd34c21815cd05d8fcb2269071c>'
p56
aS'<http://bio2rdf.org/drugbank_resource:5d4c60692ad73558d01f32fd04701cf0>'
p57
ag32
ag33
aS'<http://bio2rdf.org/drugbank_resource:da78c0c733f9f0549823a4544b70b0e8>'
p58
aS'<http://bio2rdf.org/drugbank_resource:394554f25814552e29853617322ba9f8>'
p59
aS'<http://bio2rdf.org/drugbank_resource:08b96ff860ec216db5ee37229eb349ca>'
p60
ag34
ag35
aS'<http://bio2rdf.org/drugbank:DB00331>'
p61
aS'<http://bio2rdf.org/drugbank:DB01016>'
p62
aS'<http://bio2rdf.org/drugbank:DB00731>'
p63
ag36
ag37
aS'<http://bio2rdf.org/drugbank_resource:a54668ed63f25636f1ee13ebea2065e9>'
p64
aS'<http://bio2rdf.org/drugbank:DB06292>'
p65
aS'<http://bio2rdf.org/drugbank_resource:8720b17dc648d75f0b5736a6ca581101>'
p66
ag38
ag39
aS'<http://bio2rdf.org/drugbank_resource:2f4dea377b1f3f006eb39dcb28fe368e>'
p67
aS'<http://bio2rdf.org/drugbank:DB00758>'
p68
aS'<http://bio2rdf.org/drugbank:DB00843>'
p69
ag40
ag41
aS'<http://bio2rdf.org/drugbank_resource:b8aa593aa534794a6c1230548cf41e08>'
p70
aS'<http://bio2rdf.org/drugbank_resource:90736d5f791d2c2b2fa6be2f2eddd863>'
p71
aS'<http://bio2rdf.org/drugbank_resource:e75d6dccef0b1d442bfd35b1b07a6cef>'
p72
ag42
ag43
aS'<http://bio2rdf.org/drugbank_vocabulary:Antihypertensive-Agents>'
p73
aS'<http://bio2rdf.org/drugbank_vocabulary:Antihypertensive-Agents>'
p74
aS'<http://bio2rdf.org/drugbank_vocabulary:Antihypertensive-Agents>'
p75
asa(dp76
g13
(g14
(g16
S'\x02\x00\x00\x00\x00\x00\x00\x00'
tRp77
g18
(g19
(I0
tS'b'
tRp78
(I1
(I4
tg21
I00
S'\x96\xf0\xd9\xabq\x826@\x1e\x83\x8a"\x94_6@\t\x1e\xbe\x98\xc5\xa35@K\x06\xe6&\xad\xee5@'
tbtp79
sS'n'
I10
sg23
I80
sg24
(lp80
g26
ag27
ag49
ag50
ag51
aS'<http://bio2rdf.org/drugbank_resource:d48495557076378f38cfff871bb58073>'
p81
aS'<http://bio2rdf.org/drugbank_resource:0e6898b9380d9a8c266a2069a8a0eea0>'
p82
aS'<http://bio2rdf.org/drugbank_resource:68b989b6d84158720154eae08aec6a9f>'
p83
aS'<http://bio2rdf.org/drugbank_resource:1d0350a4a243f64af1ed13b9f8c6c1e8>'
p84
aS'<http://bio2rdf.org/drugbank_resource:bb9f4674de3b56834a2d5a3e9f1e4d2c>'
p85
ag28
ag29
ag52
ag53
ag54
aS'<http://bio2rdf.org/drugbank:DB00457>'
p86
aS'<http://bio2rdf.org/drugbank:DB00571>'
p87
aS'<http://bio2rdf.org/drugbank:DB00203>'
p88
aS'<http://bio2rdf.org/drugbank:DB00575>'
p89
aS'<http://bio2rdf.org/drugbank_resource:2fb337324d0986261b73a880dfc35911>'
p90
ag30
ag31
ag55
ag56
ag57
aS'<http://bio2rdf.org/drugbank_resource:b5cbd711b8fadf47b16cfb0a821f0d82>'
p91
aS'<http://bio2rdf.org/drugbank_resource:b3e88402ac0ccd51467d91a110815231>'
p92
aS'<http://bio2rdf.org/drugbank_resource:4272b6046651399107755ccbfacd145e>'
p93
aS'<http://bio2rdf.org/drugbank_resource:556bcdb4b16fa8b641eb6302e23b30ac>'
p94
aS'<http://bio2rdf.org/drugbank_resource:c880f63786c45cdc28ccfbd3f0ad2800>'
p95
ag32
ag33
ag58
ag59
ag60
ag34
ag35
ag61
ag62
ag63
aS'<http://bio2rdf.org/drugbank:DB01124>'
p96
aS'<http://bio2rdf.org/drugbank:DB00672>'
p97
aS'<http://bio2rdf.org/drugbank:DB00912>'
p98
aS'<http://bio2rdf.org/drugbank:DB01120>'
p99
aS'<http://bio2rdf.org/drugbank_resource:a4b52b5d555015f56395c0ddd7a76e19>'
p100
ag36
ag37
ag64
ag65
ag66
aS'<http://bio2rdf.org/drugbank:DB08838>'
p101
aS'<http://bio2rdf.org/drugbank_resource:2e6ca09bc72ee96ce408c066d3cf1b10>'
p102
aS'<http://bio2rdf.org/drugbank_resource:88828ffcce0ae52c7726ef32b9da2b33>'
p103
aS'<http://bio2rdf.org/drugbank_resource:665981306258cbda80a9cebc4f50281a>'
p104
aS'<http://bio2rdf.org/drugbank_resource:580ef4a6538b1a66b66ed89441c883f9>'
p105
ag38
ag39
ag67
ag68
ag69
ag40
ag41
ag70
ag71
ag72
aS'<http://bio2rdf.org/drugbank_resource:95ab1b5abb9a3e7ce18f5876f4420c54>'
p106
aS'<http://bio2rdf.org/drugbank_resource:17a46c07cf163e99bdfc71b319b7e5b2>'
p107
aS'<http://bio2rdf.org/drugbank_resource:4321b0e588a071a285a0894233fb4818>'
p108
aS'<http://bio2rdf.org/drugbank_resource:488a38d3ab5f61e2dfc0364ad688014e>'
p109
aS'<http://bio2rdf.org/drugbank:DB08869>'
p110
ag42
ag43
ag73
ag74
ag75
aS'<http://bio2rdf.org/drugbank:DB00622>'
p111
aS'<http://bio2rdf.org/drugbank:DB01054>'
p112
aS'<http://bio2rdf.org/drugbank:DB01244>'
p113
aS'<http://bio2rdf.org/drugbank_resource:4eec8a1d53f93a2f22a59af87ad2b861>'
p114
aS'<http://bio2rdf.org/drugbank_resource:43acffd9abcc94d57ef8b28570255ac8>'
p115
asa(dp116
g13
(g14
(g16
S'\x02\x00\x00\x00\x00\x00\x00\x00'
tRp117
g18
(g19
(I0
tS'b'
tRp118
(I1
(I4
tg21
I00
S'>n}\x97(\xf96@\xe1e\xd7\xad\xeb\xb96@\x8c\xc3\x963\xe0f6@\x15@\xe8&S\x816@'
tbtp119
sS'n'
I15
sg23
I113
sg24
(lp120
g26
ag27
ag49
ag50
ag51
ag81
ag82
ag83
ag84
ag85
aS'<http://bio2rdf.org/drugbank_resource:2186f63a5711eff4957243b530570270>'
p121
aS'<http://bio2rdf.org/drugbank:DB08822>'
p122
aS'<http://bio2rdf.org/drugbank:DB05796>'
p123
aS'<http://bio2rdf.org/drugbank_resource:32337b11ec454f045ec27c069cc80fd0>'
p124
aS'<http://bio2rdf.org/drugbank_resource:2f4dea377b1f3f006eb39dcb28fe368e>'
p125
ag28
ag29
ag52
ag53
ag54
ag86
ag87
ag88
ag89
ag90
aS'<http://bio2rdf.org/drugbank_resource:95dcc2657600165e73e0bd005f009c52>'
p126
aS'<http://bio2rdf.org/drugbank_resource:dafc1ad108874dacf5c8f4c30cc466ad>'
p127
aS'<http://bio2rdf.org/drugbank_resource:e9d103abbff2386a2c488d329cdf35c5>'
p128
aS'<http://bio2rdf.org/drugbank_resource:ba5538849302b8ab3e77f736371c0774>'
p129
aS'<http://bio2rdf.org/drugbank_resource:d48495557076378f38cfff871bb58073>'
p130
ag30
ag31
ag55
ag56
ag57
ag91
ag92
ag93
ag94
ag95
aS'<http://bio2rdf.org/drugbank_resource:20cfe1f5fd0cf14c12890be2fb72043b>'
p131
aS'<http://bio2rdf.org/drugbank_resource:e9d103abbff2386a2c488d329cdf35c5>'
p132
aS'<http://bio2rdf.org/drugbank_resource:9e3ff7d31866128e07d8de5f47afc6f2>'
p133
aS'<http://bio2rdf.org/drugbank_resource:96e20bfa980274d48ce5d8f23ea5d561>'
p134
aS'<http://bio2rdf.org/drugbank_resource:841112d6fcc3bb3c194a4f285677a6d4>'
p135
ag32
ag33
ag58
ag59
ag60
ag34
ag35
ag61
ag62
ag63
ag96
ag97
ag98
ag99
ag100
aS'<http://bio2rdf.org/drugbank_resource:7e9d48e07cdc5a25a947584abe10e8e8>'
p136
aS'<http://bio2rdf.org/drugbank:DB04963>'
p137
aS'<http://bio2rdf.org/drugbank_resource:885509d63e8d5bc26674263e307fa00d>'
p138
aS'<http://bio2rdf.org/drugbank:DB00284>'
p139
aS'<http://bio2rdf.org/drugbank_resource:d52520d6d550ab5ad35f52bc9981342f>'
p140
ag36
ag37
ag64
ag65
ag66
ag101
ag102
ag103
ag104
ag105
aS'<http://bio2rdf.org/drugbank_resource:dddb5d564456a913b85424f253a26820>'
p141
aS'<http://bio2rdf.org/drugbank_resource:5fffc1ad26e9ecb24fe9cbb57f390af7>'
p142
aS'<http://bio2rdf.org/drugbank_resource:fabdca78c3d2c0362293494cd090ea33>'
p143
aS'<http://bio2rdf.org/drugbank_resource:b6dee6af4dd8c705ff571f6341c2cdc0>'
p144
aS'<http://bio2rdf.org/drugbank_resource:28b6780a20bf4c8228b0965be9f4a2ca>'
p145
ag38
ag39
ag67
ag68
ag69
ag40
ag41
ag70
ag71
ag72
ag106
ag107
ag108
ag109
ag110
aS'<http://bio2rdf.org/drugbank_resource:0d2a44da2b2f6a574547df98e127ee50>'
p146
aS'<http://bio2rdf.org/drugbank_resource:e3366f1e91e29ba801a886a2be9dad64>'
p147
aS'<http://bio2rdf.org/drugbank_resource:5f3be7b16495ba58cfb6e691478c9ea5>'
p148
ag42
ag43
ag73
ag74
ag75
ag111
ag112
ag113
ag114
ag115
aS'<http://bio2rdf.org/drugbank_resource:f3207eabdc64a2dbbaf9ed45b5e9fc41>'
p149
aS'<http://bio2rdf.org/drugbank_resource:dd727d027bb26d173be7d4cef20e5fbc>'
p150
aS'<http://bio2rdf.org/drugbank_resource:08ec4557f07d559641a852e9f8149d74>'
p151
aS'<http://bio2rdf.org/drugbank_resource:0d5dd7e0f457e18bc1e194ada27bb711>'
p152
aS'<http://bio2rdf.org/drugbank_resource:55d5f3df2fa62407e66884467ddf0390>'
p153
asa(dp154
g13
(g14
(g16
S'\x02\x00\x00\x00\x00\x00\x00\x00'
tRp155
g18
(g19
(I0
tS'b'
tRp156
(I1
(I4
tg21
I00
S'3\xda\x08\xdc.\x1a7@4\xa7r#\xa4\xea6@\xc1\x90\x83;\x1f\xba6@\xfa\xe0\x96\x82\xd8\xc46@'
tbtp157
sS'n'
I20
sg23
I140
sg24
(lp158
g26
ag27
ag49
ag50
ag51
ag81
ag82
ag83
ag84
ag85
ag121
ag122
ag123
ag124
ag125
aS'<http://bio2rdf.org/drugbank_resource:4d3acd4b9b38ce84534afedeb7991227>'
p159
aS'<http://bio2rdf.org/drugbank_resource:9b2ec8161543fc868b69db6e0ec6386c>'
p160
aS'<http://bio2rdf.org/drugbank_resource:f1207efb7c0d76fcae9a9a9680e2ab90>'
p161
aS'<http://bio2rdf.org/drugbank_resource:014c83f76d9d2a2abf65f047943c055d>'
p162
aS'<http://bio2rdf.org/drugbank:DB00270>'
p163
ag28
ag29
ag52
ag53
ag54
ag86
ag87
ag88
ag89
ag90
ag126
ag127
ag128
ag129
ag130
aS'<http://bio2rdf.org/drugbank_resource:bf6e32064726f81f096ec8266ba90d48>'
p164
aS'<http://bio2rdf.org/drugbank_resource:c735323075aadc2b8e387ac750fedb3f>'
p165
aS'<http://bio2rdf.org/drugbank_resource:af65f8198767a6b42dc3b5a3ce51f6a5>'
p166
aS'<http://bio2rdf.org/drugbank_resource:19c3555ae3cac9666e1459d719bbe5e8>'
p167
aS'<http://bio2rdf.org/drugbank_resource:b2eb25caa74ffe16ecaa44525234ed41>'
p168
ag30
ag31
ag55
ag56
ag57
ag91
ag92
ag93
ag94
ag95
ag131
ag132
ag133
ag134
ag135
aS'<http://bio2rdf.org/drugbank_resource:a6fe94f2dc7570cc603a3ffa830b3f8f>'
p169
aS'<http://bio2rdf.org/drugbank_resource:09a99f3c4c1c39a48b2bffac774a8844>'
p170
aS'<http://bio2rdf.org/drugbank_resource:43dc194d2b85d7e7b1fcb4075a942c26>'
p171
aS'<http://bio2rdf.org/drugbank_resource:e83ed156901fa72e00d38fe8ff8b8780>'
p172
aS'<http://bio2rdf.org/drugbank_resource:cf28f473dcf33ea27c3c58ac76f94aec>'
p173
ag32
ag33
ag58
ag59
ag60
ag34
ag35
ag61
ag62
ag63
ag96
ag97
ag98
ag99
ag100
ag136
ag137
ag138
ag139
ag140
aS'<http://bio2rdf.org/drugbank_resource:f82423f84239be5e7d05b82ba8f90119>'
p174
aS'<http://bio2rdf.org/drugbank_resource:88bbffb9b6da160e836524557c0f8ff0>'
p175
ag36
ag37
ag64
ag65
ag66
ag101
ag102
ag103
ag104
ag105
ag141
ag142
ag143
ag144
ag145
aS'<http://bio2rdf.org/drugbank_resource:1ace0b3c033dd9c0e8f921de569f17d3>'
p176
aS'<http://bio2rdf.org/drugbank_resource:da78c0c733f9f0549823a4544b70b0e8>'
p177
aS'<http://bio2rdf.org/drugbank_resource:2d808bd969a9dae3056481d803de492c>'
p178
aS'<http://bio2rdf.org/drugbank_resource:08c5c14b6f52c2f5a7d59a20b4269cf3>'
p179
aS'<http://bio2rdf.org/drugbank_resource:999e142729022909fbabf9d97452beb5>'
p180
ag38
ag39
ag67
ag68
ag69
ag40
ag41
ag70
ag71
ag72
ag106
ag107
ag108
ag109
ag110
ag146
ag147
ag148
ag42
ag43
ag73
ag74
ag75
ag111
ag112
ag113
ag114
ag115
ag149
ag150
ag151
ag152
ag153
aS'<http://bio2rdf.org/drugbank_resource:81ae6685028fb307b37fb9f4e8b50810>'
p181
aS'<http://bio2rdf.org/drugbank_resource:704e29893916a46f6644b93bee94b5ff>'
p182
aS'<http://bio2rdf.org/drugbank_resource:5f08192b75d470e5fc7a564e3853dc02>'
p183
aS'<http://bio2rdf.org/drugbank_resource:074fba1330eef367813e19c20ce45379>'
p184
aS'<http://bio2rdf.org/drugbank:DB01180>'
p185
asa(dp186
g13
(g14
(g16
S'\x03\x00\x00\x00\x00\x00\x00\x00'
tRp187
g18
(g19
(I0
tS'b'
tRp188
(I1
(I4
tg21
I00
S'\xbf{\x94\xbd>\t7@d\x90)Tl\xf16@\xf6\x89\x14\xc8\xd7\xe66@\x84#`\x8c`\xe36@'
tbtp189
sS'n'
I25
sg23
I164
sg24
(lp190
g26
ag27
ag49
ag50
ag51
ag81
ag82
ag83
ag84
ag85
ag121
ag122
ag123
ag124
ag125
ag159
ag160
ag161
ag162
ag163
aS'<http://bio2rdf.org/drugbank:DB00584>'
p191
aS'<http://bio2rdf.org/drugbank:DB00790>'
p192
aS'<http://bio2rdf.org/drugbank:DB01349>'
p193
aS'<http://bio2rdf.org/drugbank:DB00881>'
p194
ag28
ag29
ag52
ag53
ag54
ag86
ag87
ag88
ag89
ag90
ag126
ag127
ag128
ag129
ag130
ag164
ag165
ag166
ag167
ag168
aS'<http://bio2rdf.org/drugbank_resource:9f5d1392ef811899ea8bf6eb0558eb9a>'
p195
aS'<http://bio2rdf.org/drugbank_resource:98569e67c8a0a3de078fb13d2e66aec0>'
p196
aS'<http://bio2rdf.org/drugbank_resource:d0ee4e65ffed76fdb9fe0ff3e2ae6452>'
p197
aS'<http://bio2rdf.org/drugbank_resource:dfd03cd339d86fde0cb8db41bc9af965>'
p198
aS'<http://bio2rdf.org/drugbank_resource:822f047978b3deddb333857be560ee8a>'
p199
ag30
ag31
ag55
ag56
ag57
ag91
ag92
ag93
ag94
ag95
ag131
ag132
ag133
ag134
ag135
ag169
ag170
ag171
ag172
ag173
aS'<http://bio2rdf.org/drugbank_resource:c8cc15085abdf3d096ceae87bf1eaca1>'
p200
aS'<http://bio2rdf.org/drugbank_resource:f6e09d48403bc65ac0b1fab3a85fb888>'
p201
aS'<http://bio2rdf.org/drugbank_resource:9793646f0a24e9de0774475a0246631f>'
p202
aS'<http://bio2rdf.org/drugbank_resource:a498fa20e37a78af9697e244db4d70fe>'
p203
aS'<http://bio2rdf.org/drugbank_resource:792ea0ecc11124df17af98bd3586e687>'
p204
ag32
ag33
ag58
ag59
ag60
ag34
ag35
ag61
ag62
ag63
ag96
ag97
ag98
ag99
ag100
ag136
ag137
ag138
ag139
ag140
ag174
ag175
ag36
ag37
ag64
ag65
ag66
ag101
ag102
ag103
ag104
ag105
ag141
ag142
ag143
ag144
ag145
ag176
ag177
ag178
ag179
ag180
aS'<http://bio2rdf.org/drugbank_resource:9e7374dd1a054c1a67a7641aff63220d>'
p205
aS'<http://bio2rdf.org/drugbank_resource:0526c904ea69479822d6f628b7401dfa>'
p206
aS'<http://bio2rdf.org/drugbank_resource:1378ad4b272428d17a316630da754e69>'
p207
aS'<http://bio2rdf.org/drugbank_resource:09337a033dd56d93e61a1ca3bf0a9c08>'
p208
aS'<http://bio2rdf.org/drugbank_resource:60816309588fa9e91740be0f3f53ca36>'
p209
ag38
ag39
ag67
ag68
ag69
ag40
ag41
ag70
ag71
ag72
ag106
ag107
ag108
ag109
ag110
ag146
ag147
ag148
ag42
ag43
ag73
ag74
ag75
ag111
ag112
ag113
ag114
ag115
ag149
ag150
ag151
ag152
ag153
ag181
ag182
ag183
ag184
ag185
aS'<http://bio2rdf.org/drugbank_resource:f279d027bd5d680374fae6ddbc5b5ab9>'
p210
aS'<http://bio2rdf.org/drugbank_resource:4c8f89fe1cd307779aff11b7fb7b15b8>'
p211
aS'<http://bio2rdf.org/drugbank_resource:23ddaba4f4fdf3f325735fa73db9cf07>'
p212
aS'<http://bio2rdf.org/drugbank_resource:d9babcca79e4aea2a9be1482dc15f886>'
p213
aS'<http://bio2rdf.org/drugbank_resource:afaff38f7d2a9e813435ff2fc71757f0>'
p214
asa(dp215
g13
(g14
(g16
S'\x00\x00\x00\x00\x00\x00\x00\x00'
tRp216
g18
(g19
(I0
tS'b'
tRp217
(I1
(I4
tg21
I00
S'u\xf0\xd5J\x8f+7@\x82X\x07\xc8\x82X7@N\xd1\xf9h\x86R7@\xd0\x18\x98\xfb\x86V7@'
tbtp218
sS'n'
I50
sg23
I264
sg24
(lp219
g26
ag27
ag49
ag50
ag51
ag81
ag82
ag83
ag84
ag85
ag121
ag122
ag123
ag124
ag125
ag159
ag160
ag161
ag162
ag163
ag191
ag192
ag193
ag194
ag28
ag29
ag52
ag53
ag54
ag86
ag87
ag88
ag89
ag90
ag126
ag127
ag128
ag129
ag130
ag164
ag165
ag166
ag167
ag168
ag195
ag196
ag197
ag198
ag199
aS'<http://bio2rdf.org/drugbank_resource:afcd81656d361b614e2de5326acf55de>'
p220
aS'<http://bio2rdf.org/drugbank_resource:5a15aa945c5ba51da1e525ab93673969>'
p221
aS'<http://bio2rdf.org/drugbank_resource:04f69dc0910ede8e4ad8953634db2df3>'
p222
aS'<http://bio2rdf.org/drugbank_resource:23ddaba4f4fdf3f325735fa73db9cf07>'
p223
aS'<http://bio2rdf.org/drugbank_resource:1b7bdc369c909f5ce2985845bd40ee71>'
p224
aS'<http://bio2rdf.org/drugbank_resource:4741858e014946a5dad69126658574b8>'
p225
aS'<http://bio2rdf.org/drugbank_resource:9793646f0a24e9de0774475a0246631f>'
p226
aS'<http://bio2rdf.org/drugbank_resource:0e6898b9380d9a8c266a2069a8a0eea0>'
p227
aS'<http://bio2rdf.org/drugbank_resource:afaff38f7d2a9e813435ff2fc71757f0>'
p228
aS'<http://bio2rdf.org/drugbank_resource:aa0041b5f83ff6c1c636c3b4b567a786>'
p229
aS'<http://bio2rdf.org/drugbank_resource:471fc0177a0bb11bdedbf59316d4a69d>'
p230
aS'<http://bio2rdf.org/drugbank_resource:7f41fec92817d8e6870946f2419eac6a>'
p231
aS'<http://bio2rdf.org/drugbank_resource:fedec2b89e4eea01f3eb304fdb771a18>'
p232
aS'<http://bio2rdf.org/drugbank_resource:1e34480561427febd170706a5fcc04dc>'
p233
aS'<http://bio2rdf.org/drugbank_resource:fb701f9760229ff692178b28684c8bb1>'
p234
aS'<http://bio2rdf.org/drugbank_resource:b93222c31cf085c1d85875d231b1479a>'
p235
aS'<http://bio2rdf.org/drugbank_resource:ddc8d103eb56d6a0467c18b100fed469>'
p236
aS'<http://bio2rdf.org/drugbank_resource:d8e34b14ed871f401871bd965e4e0518>'
p237
aS'<http://bio2rdf.org/drugbank_resource:4d9e07ecead7a727f7b3aeb3207f73e6>'
p238
aS'<http://bio2rdf.org/drugbank_resource:22526dea52e22a7f87bb24563c0ba9a0>'
p239
aS'<http://bio2rdf.org/drugbank_resource:a65ec7dfe6945e24b6f747dc9fcc8f7f>'
p240
aS'<http://bio2rdf.org/drugbank_resource:dd0fb7ed60a218860bf1cc77087e8aae>'
p241
aS'<http://bio2rdf.org/drugbank_resource:5c89e061fb3d04ca247827a6673530bc>'
p242
aS'<http://bio2rdf.org/drugbank_resource:325806f70a5698531f044ab072cef99e>'
p243
aS'<http://bio2rdf.org/drugbank_resource:b0b662132dc434afdad2d162374b5cfc>'
p244
ag30
ag31
ag55
ag56
ag57
ag91
ag92
ag93
ag94
ag95
ag131
ag132
ag133
ag134
ag135
ag169
ag170
ag171
ag172
ag173
ag200
ag201
ag202
ag203
ag204
aS'<http://bio2rdf.org/drugbank_resource:513a4c97a924598479799ca7f294b45a>'
p245
aS'<http://bio2rdf.org/drugbank_resource:665415b211ebaf8e587bebea1cd5ccc5>'
p246
aS'<http://bio2rdf.org/drugbank_resource:f16eb12dfc14e0aadd3ed79f560f8cdd>'
p247
aS'<http://bio2rdf.org/drugbank_resource:7e5c7499c5ecd8fb4a30606740cab1ed>'
p248
aS'<http://bio2rdf.org/drugbank_resource:bd693ccbfb6e58db55a088fd12217932>'
p249
aS'<http://bio2rdf.org/drugbank_resource:285f10eec19f5ff11affe1d24c14518e>'
p250
aS'<http://bio2rdf.org/drugbank_resource:5910dc64bbbf8ff0f91f3f275a853a2d>'
p251
aS'<http://bio2rdf.org/drugbank_resource:afcd81656d361b614e2de5326acf55de>'
p252
aS'<http://bio2rdf.org/drugbank_resource:325806f70a5698531f044ab072cef99e>'
p253
aS'<http://bio2rdf.org/drugbank_resource:b88946e879453f0d2fc30fa953111a35>'
p254
aS'<http://bio2rdf.org/drugbank_resource:ab66c2051c8dc396b12ec46325d8d736>'
p255
aS'<http://bio2rdf.org/drugbank_resource:0e6898b9380d9a8c266a2069a8a0eea0>'
p256
aS'<http://bio2rdf.org/drugbank_resource:d90bc3dcf12ef6dec30b9635204f17d6>'
p257
aS'<http://bio2rdf.org/drugbank_resource:930f18f340d174d1f4d52ab43be3ecd6>'
p258
aS'<http://bio2rdf.org/drugbank_resource:a28ecf1feed5322ab617149de00cc3f6>'
p259
aS'<http://bio2rdf.org/drugbank_resource:62e984375cb29c7297133efa48c1cc8b>'
p260
aS'<http://bio2rdf.org/drugbank_resource:befc09e2e09bb5a917b9335a34d2d032>'
p261
aS'<http://bio2rdf.org/drugbank_resource:95dcc2657600165e73e0bd005f009c52>'
p262
aS'<http://bio2rdf.org/drugbank:DB00457>'
p263
aS'<http://bio2rdf.org/drugbank_resource:fb24142eef388a6365ba7ed02bf933c0>'
p264
aS'<http://bio2rdf.org/drugbank:DB00511>'
p265
aS'<http://bio2rdf.org/drugbank_resource:3068f6dae1b19d629d66afcbe9ab52e9>'
p266
aS'<http://bio2rdf.org/drugbank_resource:7f92e5c963b9420139ba2dfb11be7371>'
p267
aS'<http://bio2rdf.org/drugbank_resource:6f9dc9b2e0c3e44ff15e7ddcc2c30800>'
p268
aS'<http://bio2rdf.org/drugbank_resource:710a7e66cd2e26d98ce7260ac304ffe5>'
p269
ag32
ag33
ag58
ag59
ag60
ag34
ag35
ag61
ag62
ag63
ag96
ag97
ag98
ag99
ag100
ag136
ag137
ag138
ag139
ag140
ag174
ag175
ag36
ag37
ag64
ag65
ag66
ag101
ag102
ag103
ag104
ag105
ag141
ag142
ag143
ag144
ag145
ag176
ag177
ag178
ag179
ag180
ag205
ag206
ag207
ag208
ag209
aS'<http://bio2rdf.org/drugbank_resource:03b3ff75c4a02936a5d6bbdc4f8e0058>'
p270
aS'<http://bio2rdf.org/drugbank_resource:70a40b9ec01efc97f581aeecc8e08d03>'
p271
aS'<http://bio2rdf.org/drugbank_resource:1976d46c73b30a835a2e375cbdfe9408>'
p272
aS'<http://bio2rdf.org/drugbank_resource:266a9da000e897d6e6cdb803012b9b5b>'
p273
aS'<http://bio2rdf.org/drugbank_resource:7c9b963d2ab0d3ca87be7674c396fab1>'
p274
aS'<http://bio2rdf.org/drugbank_resource:3cde30b36852f7b9c00dee4344ac848e>'
p275
aS'<http://bio2rdf.org/drugbank_resource:1623cbe062c568e57dacdd9b38f63898>'
p276
aS'<http://bio2rdf.org/drugbank_resource:f2a30f76a373192265e4b663c8339602>'
p277
aS'<http://bio2rdf.org/drugbank_resource:f4caf7c9754829d838c8cbadd30a9308>'
p278
aS'<http://bio2rdf.org/drugbank_resource:2fbb6a983604cd0cc9af9e026921f2be>'
p279
aS'<http://bio2rdf.org/drugbank_resource:3f8eb2e4747689da12a3e58c951d53cd>'
p280
aS'<http://bio2rdf.org/drugbank_resource:72f486e0f664539e65698fed1293c0bb>'
p281
aS'<http://bio2rdf.org/drugbank_resource:885509d63e8d5bc26674263e307fa00d>'
p282
aS'<http://bio2rdf.org/drugbank_resource:bd687af4edd76bff2316ee27418c98a3>'
p283
aS'<http://bio2rdf.org/drugbank_resource:1d389fde209323d8ee4e5ae115f55b98>'
p284
aS'<http://bio2rdf.org/drugbank_resource:77477880035ada279eafcfed5777b313>'
p285
aS'<http://bio2rdf.org/drugbank_resource:b30388641a69db9d71ffb0fc1d6cb053>'
p286
aS'<http://bio2rdf.org/drugbank_resource:73f7aa758b14b1fee0ca787d3adf7051>'
p287
aS'<http://bio2rdf.org/drugbank_resource:af58e77046fea6f53d2f5032cb7368c4>'
p288
aS'<http://bio2rdf.org/drugbank_resource:90562abc2c8436e807553f34343b5e20>'
p289
aS'<http://bio2rdf.org/drugbank_resource:ae84cbec2dcd4d85eb7ee1c3dd84f875>'
p290
aS'<http://bio2rdf.org/drugbank_resource:572719ba95d0baee0f39407aa65e3898>'
p291
aS'<http://bio2rdf.org/drugbank_resource:200b880c93b7bcf5277807d5f92a881b>'
p292
aS'<http://bio2rdf.org/drugbank_resource:761bae136fbe0dae4389313f3e6740e0>'
p293
aS'<http://bio2rdf.org/drugbank_resource:157e37b96b527d0145f207418a3cb8d4>'
p294
ag38
ag39
ag67
ag68
ag69
ag40
ag41
ag70
ag71
ag72
ag106
ag107
ag108
ag109
ag110
ag146
ag147
ag148
ag42
ag43
ag73
ag74
ag75
ag111
ag112
ag113
ag114
ag115
ag149
ag150
ag151
ag152
ag153
ag181
ag182
ag183
ag184
ag185
ag210
ag211
ag212
ag213
ag214
aS'<http://bio2rdf.org/drugbank_resource:aa0041b5f83ff6c1c636c3b4b567a786>'
p295
aS'<http://bio2rdf.org/drugbank_resource:1f89bd8aff1b81fca39dc07e9cc8127b>'
p296
aS'<http://bio2rdf.org/drugbank_resource:dd6570002a90956db0339d46fb775ea4>'
p297
aS'<http://bio2rdf.org/drugbank:DB01342>'
p298
aS'<http://bio2rdf.org/drugbank_resource:fc84216811a27a270d96e86d3ca60470>'
p299
aS'<http://bio2rdf.org/drugbank_resource:5c89e061fb3d04ca247827a6673530bc>'
p300
aS'<http://bio2rdf.org/drugbank_resource:dfd03cd339d86fde0cb8db41bc9af965>'
p301
aS'<http://bio2rdf.org/drugbank:DB01089>'
p302
aS'<http://bio2rdf.org/drugbank_resource:2a35712b1ad3d12dad7ace99e9aa96ce>'
p303
aS'<http://bio2rdf.org/drugbank_resource:c529b8304f04bcaf40c2c9a831e7c160>'
p304
aS'<http://bio2rdf.org/drugbank_resource:6800dd8fdaea5b6ca29aa9afc1a6eb39>'
p305
aS'<http://bio2rdf.org/drugbank_resource:133fd7de75b9278bf710d7dc68a19bcc>'
p306
aS'<http://bio2rdf.org/drugbank_resource:d031dd8350b40be8085a2cd9bdaca344>'
p307
aS'<http://bio2rdf.org/drugbank_resource:32337b11ec454f045ec27c069cc80fd0>'
p308
aS'<http://bio2rdf.org/drugbank_resource:e241e20e961a2056047efd31b0d7a763>'
p309
aS'<http://bio2rdf.org/drugbank_resource:2e7cc5062d9daa52291fb3f4d58a9121>'
p310
aS'<http://bio2rdf.org/drugbank_resource:e83ed156901fa72e00d38fe8ff8b8780>'
p311
aS'<http://bio2rdf.org/drugbank_resource:067055e2d7fc4aea9df8aa2fecea3f04>'
p312
aS'<http://bio2rdf.org/drugbank_resource:f104446b9f43695d63f4b4758d6ec57c>'
p313
aS'<http://bio2rdf.org/drugbank_resource:ab66c2051c8dc396b12ec46325d8d736>'
p314
aS'<http://bio2rdf.org/drugbank_resource:f6e09d48403bc65ac0b1fab3a85fb888>'
p315
aS'<http://bio2rdf.org/drugbank_resource:a498fa20e37a78af9697e244db4d70fe>'
p316
aS'<http://bio2rdf.org/drugbank_resource:d90bc3dcf12ef6dec30b9635204f17d6>'
p317
aS'<http://bio2rdf.org/drugbank_resource:f2a561f6b80747ed01b9e45a0fd7263c>'
p318
aS'<http://bio2rdf.org/drugbank_resource:33de50389a8636424ce4fcd8737f301c>'
p319
asa(dp320
g13
(g14
(g16
S'\x00\x00\x00\x00\x00\x00\x00\x00'
tRp321
g18
(g19
(I0
tS'b'
tRp322
(I1
(I4
tg21
I00
S'\xef\xeaQTm\x1d7@\x80$\xb4>I\x867@\xadW\x88\x94E|7@~\xf4\xa4\xfeB\x807@'
tbtp323
sS'n'
I75
sg23
I364
sg24
(lp324
g26
ag27
ag49
ag50
ag51
ag81
ag82
ag83
ag84
ag85
ag121
ag122
ag123
ag124
ag125
ag159
ag160
ag161
ag162
ag163
ag191
ag192
ag193
ag194
ag28
ag29
ag52
ag53
ag54
ag86
ag87
ag88
ag89
ag90
ag126
ag127
ag128
ag129
ag130
ag164
ag165
ag166
ag167
ag168
ag195
ag196
ag197
ag198
ag199
ag220
ag221
ag222
ag223
ag224
ag225
ag226
ag227
ag228
ag229
ag230
ag231
ag232
ag233
ag234
ag235
ag236
ag237
ag238
ag239
ag240
ag241
ag242
ag243
ag244
aS'<http://bio2rdf.org/drugbank_resource:574fbf7ce897bb08ac67df4b785fc860>'
p325
aS'<http://bio2rdf.org/drugbank_resource:f4784b71e690722f5385f6351b05095b>'
p326
aS'<http://bio2rdf.org/drugbank_resource:e96bfdeb74978fa5710f44efed02b92d>'
p327
aS'<http://bio2rdf.org/drugbank_resource:f2d2b0bc429f8df04fe026b64751fba6>'
p328
aS'<http://bio2rdf.org/drugbank_resource:df5c19882877cdf2345eb8f1b3a1a0d5>'
p329
aS'<http://bio2rdf.org/drugbank_resource:6800dd8fdaea5b6ca29aa9afc1a6eb39>'
p330
aS'<http://bio2rdf.org/drugbank_resource:29d0d8044f3418a15a77736a346663d1>'
p331
aS'<http://bio2rdf.org/drugbank_resource:486fae7489c2bd781061baec8d9b58c8>'
p332
aS'<http://bio2rdf.org/drugbank_resource:3068f6dae1b19d629d66afcbe9ab52e9>'
p333
aS'<http://bio2rdf.org/drugbank_resource:dc1ab234eb81a0aab9b5a00320b64431>'
p334
aS'<http://bio2rdf.org/drugbank_resource:b88946e879453f0d2fc30fa953111a35>'
p335
aS'<http://bio2rdf.org/drugbank_resource:fa304d80c621acc5d1aad339e9ccbae1>'
p336
aS'<http://bio2rdf.org/drugbank_resource:3f9754b2a769cca47f7e853144abd96b>'
p337
aS'<http://bio2rdf.org/drugbank_resource:cc34e1f4ba913b4e87b624e0db2c6fd2>'
p338
aS'<http://bio2rdf.org/drugbank_resource:d1ef6f79932c17d9ed20f123ece3c65c>'
p339
aS'<http://bio2rdf.org/drugbank_resource:aecdc7db577877b110bdcdbb71861d63>'
p340
aS'<http://bio2rdf.org/drugbank_resource:a830af55c1b1585d3e1934fcbd9da9bd>'
p341
aS'<http://bio2rdf.org/drugbank_resource:68b989b6d84158720154eae08aec6a9f>'
p342
aS'<http://bio2rdf.org/drugbank_resource:cdbcb38bccb3dec2de15b12b8bd7383a>'
p343
aS'<http://bio2rdf.org/drugbank_resource:937f51c32b87314db12143720bf3826e>'
p344
aS'<http://bio2rdf.org/drugbank_resource:126e8eee88dfab781fd405258581abe6>'
p345
aS'<http://bio2rdf.org/drugbank_resource:2a35712b1ad3d12dad7ace99e9aa96ce>'
p346
aS'<http://bio2rdf.org/drugbank_resource:1d0350a4a243f64af1ed13b9f8c6c1e8>'
p347
aS'<http://bio2rdf.org/drugbank_resource:fa480cc9c1dc2a17b31ffcfbe1dd985b>'
p348
aS'<http://bio2rdf.org/drugbank_resource:a4f62fbf8986dd020c34439ff8bce8f1>'
p349
ag30
ag31
ag55
ag56
ag57
ag91
ag92
ag93
ag94
ag95
ag131
ag132
ag133
ag134
ag135
ag169
ag170
ag171
ag172
ag173
ag200
ag201
ag202
ag203
ag204
ag245
ag246
ag247
ag248
ag249
ag250
ag251
ag252
ag253
ag254
ag255
ag256
ag257
ag258
ag259
ag260
ag261
ag262
ag263
ag264
ag265
ag266
ag267
ag268
ag269
aS'<http://bio2rdf.org/drugbank_resource:fedec2b89e4eea01f3eb304fdb771a18>'
p350
aS'<http://bio2rdf.org/drugbank_resource:ff0248fe9c419e0c883087dddd1e0c59>'
p351
aS'<http://bio2rdf.org/drugbank_resource:198a4d7eb092eafbc0886e83a53bcecb>'
p352
aS'<http://bio2rdf.org/drugbank_resource:be210885832d5f4227f3b634f6254e01>'
p353
aS'<http://bio2rdf.org/drugbank:DB04883>'
p354
aS'<http://bio2rdf.org/drugbank_resource:40fbcdaebdba1fa57838eeaa33cbf240>'
p355
aS'<http://bio2rdf.org/drugbank_resource:148fa0904c0c63795057ac1dcfe061f1>'
p356
aS'<http://bio2rdf.org/drugbank_resource:633d378ca796de2162d0ed000e33dff6>'
p357
aS'<http://bio2rdf.org/drugbank_resource:2e9d495e1ce17451c7631fb58be35658>'
p358
aS'<http://bio2rdf.org/drugbank_resource:f6767ebdce3d0b8ea0c986c1f8c42e9c>'
p359
aS'<http://bio2rdf.org/drugbank_resource:0906bfbd0b8d10a0be4d08588d9e4082>'
p360
aS'<http://bio2rdf.org/drugbank_resource:1d0350a4a243f64af1ed13b9f8c6c1e8>'
p361
aS'<http://bio2rdf.org/drugbank:DB05360>'
p362
aS'<http://bio2rdf.org/drugbank_resource:1d690b77d2cd43ab46e57cbfb9a0e392>'
p363
aS'<http://bio2rdf.org/drugbank_resource:9ac878a2e73952b2ddccf1f2a5549dd6>'
p364
aS'<http://bio2rdf.org/drugbank_resource:afaff38f7d2a9e813435ff2fc71757f0>'
p365
aS'<http://bio2rdf.org/drugbank_resource:b7d53acb8e800b1db7038764f4b8d1c9>'
p366
aS'<http://bio2rdf.org/drugbank_resource:30608d57204f3cde1e6ba95bcf813383>'
p367
aS'<http://bio2rdf.org/drugbank:DB04880>'
p368
aS'<http://bio2rdf.org/drugbank:DB05796>'
p369
aS'<http://bio2rdf.org/drugbank_resource:6800dd8fdaea5b6ca29aa9afc1a6eb39>'
p370
aS'<http://bio2rdf.org/drugbank_resource:d031dd8350b40be8085a2cd9bdaca344>'
p371
aS'<http://bio2rdf.org/drugbank_resource:b4e1792af5fb540e6baff8a886ac38ca>'
p372
aS'<http://bio2rdf.org/drugbank_resource:5be8d2030ac9721a7ad51a5fbd28b229>'
p373
aS'<http://bio2rdf.org/drugbank_resource:aa0041b5f83ff6c1c636c3b4b567a786>'
p374
ag32
ag33
ag58
ag59
ag60
ag34
ag35
ag61
ag62
ag63
ag96
ag97
ag98
ag99
ag100
ag136
ag137
ag138
ag139
ag140
ag174
ag175
ag36
ag37
ag64
ag65
ag66
ag101
ag102
ag103
ag104
ag105
ag141
ag142
ag143
ag144
ag145
ag176
ag177
ag178
ag179
ag180
ag205
ag206
ag207
ag208
ag209
ag270
ag271
ag272
ag273
ag274
ag275
ag276
ag277
ag278
ag279
ag280
ag281
ag282
ag283
ag284
ag285
ag286
ag287
ag288
ag289
ag290
ag291
ag292
ag293
ag294
aS'<http://bio2rdf.org/drugbank_resource:b92f04280473bb5353eddd8044083647>'
p375
aS'<http://bio2rdf.org/drugbank_resource:1857193cd5ba401a95d1355dfc0a10a5>'
p376
aS'<http://bio2rdf.org/drugbank_resource:a0b77efa8e5191cff620b9890ee9ca83>'
p377
aS'<http://bio2rdf.org/drugbank_resource:0c70b2a2e3bdc9a5d9d53bf3cf38ccbb>'
p378
aS'<http://bio2rdf.org/drugbank_resource:e317cae9206a1ba3f38e0d792c9a3dfb>'
p379
aS'<http://bio2rdf.org/drugbank_resource:60941cbfdec9b9c2defd12ae4eb64a40>'
p380
aS'<http://bio2rdf.org/drugbank_resource:cb69f066505af673cd160af7fc091e49>'
p381
aS'<http://bio2rdf.org/drugbank_resource:09a99f3c4c1c39a48b2bffac774a8844>'
p382
aS'<http://bio2rdf.org/drugbank_resource:63736335bbb7a7f19b50414f305f8554>'
p383
aS'<http://bio2rdf.org/drugbank_resource:41a5393c0f656d9281747f83ba5bc8cc>'
p384
aS'<http://bio2rdf.org/drugbank_resource:54f02c16e546b82b8de44071367dc4c7>'
p385
aS'<http://bio2rdf.org/drugbank_resource:97a5398a662c618df859e9b243b96303>'
p386
aS'<http://bio2rdf.org/drugbank_resource:3e048f5144d70e8908080c71c0980176>'
p387
aS'<http://bio2rdf.org/drugbank_resource:9c25146e638946f623aa713bd8eaef2d>'
p388
aS'<http://bio2rdf.org/drugbank_resource:c59216cecced7c2d46839f63d5212a21>'
p389
aS'<http://bio2rdf.org/drugbank_resource:21bcceedcfe018ea4cfb89ed9d349f75>'
p390
aS'<http://bio2rdf.org/drugbank_resource:c27d2f2814272d1b479bfb6bbe385572>'
p391
aS'<http://bio2rdf.org/drugbank_resource:d18a212726fec7ae9ca34ef595fbd5b9>'
p392
aS'<http://bio2rdf.org/drugbank_resource:bc6769f12a977c34adcbcb405ca9f66d>'
p393
aS'<http://bio2rdf.org/drugbank:DB05064>'
p394
aS'<http://bio2rdf.org/drugbank:DB05073>'
p395
aS'<http://bio2rdf.org/drugbank:DB05053>'
p396
aS'<http://bio2rdf.org/drugbank_resource:6ed2dc25254e63c930b527b44374cb3a>'
p397
aS'<http://bio2rdf.org/drugbank:DB06127>'
p398
aS'<http://bio2rdf.org/drugbank_resource:7c39924ef379b724a80c5d5aaccbb7e8>'
p399
ag38
ag39
ag67
ag68
ag69
ag40
ag41
ag70
ag71
ag72
ag106
ag107
ag108
ag109
ag110
ag146
ag147
ag148
ag42
ag43
ag73
ag74
ag75
ag111
ag112
ag113
ag114
ag115
ag149
ag150
ag151
ag152
ag153
ag181
ag182
ag183
ag184
ag185
ag210
ag211
ag212
ag213
ag214
ag295
ag296
ag297
ag298
ag299
ag300
ag301
ag302
ag303
ag304
ag305
ag306
ag307
ag308
ag309
ag310
ag311
ag312
ag313
ag314
ag315
ag316
ag317
ag318
ag319
aS'<http://bio2rdf.org/drugbank_resource:54f313233364eb8e85fe68a24e17bf44>'
p400
aS'<http://bio2rdf.org/drugbank_resource:236ca982179c37228149c68985e4efdb>'
p401
aS'<http://bio2rdf.org/drugbank_resource:8cc19f6ee96178566cdb60f664894141>'
p402
aS'<http://bio2rdf.org/drugbank_resource:1a81e86caa7ad7b2b10cab15df7de1e0>'
p403
aS'<http://bio2rdf.org/drugbank_resource:0608119dcfb6fa2cd2bbe902f2a502f5>'
p404
aS'<http://bio2rdf.org/drugbank_resource:6ab3e974adffc3f4495da44988a08429>'
p405
aS'<http://bio2rdf.org/drugbank_resource:ce8ac174ac0fa56d5eb3b26a97ca4a98>'
p406
aS'<http://bio2rdf.org/drugbank_resource:955d031c23cd941cabcca488d57e6e2f>'
p407
aS'<http://bio2rdf.org/drugbank_resource:0e245d567924fc725034ebc2a26f1fe9>'
p408
aS'<http://bio2rdf.org/drugbank_resource:f0c6d4b74881be4f8f889933799bfeb3>'
p409
aS'<http://bio2rdf.org/drugbank_resource:61b0f3bf692a73adf440b2c5c4525e35>'
p410
aS'<http://bio2rdf.org/drugbank_resource:b65e700d6415337416af91a1a47b4ee2>'
p411
aS'<http://bio2rdf.org/drugbank_resource:5f2a8ea81bf3463bece12c29dfb642ad>'
p412
aS'<http://bio2rdf.org/drugbank_resource:198a4d7eb092eafbc0886e83a53bcecb>'
p413
aS'<http://bio2rdf.org/drugbank_resource:949bd03adad105ab05821ddbc60602ee>'
p414
aS'<http://bio2rdf.org/drugbank_resource:5b9d67207eea52d4bb03e4b615c89319>'
p415
aS'<http://bio2rdf.org/drugbank_resource:61b707c95406b43c37ccdaa6e27a8b0e>'
p416
aS'<http://bio2rdf.org/drugbank_resource:0d6c2d69694888a1562c27a1ac73e4b2>'
p417
aS'<http://bio2rdf.org/drugbank_resource:9b2ec8161543fc868b69db6e0ec6386c>'
p418
aS'<http://bio2rdf.org/drugbank_resource:6464ceab8ac90dccfbc0cc7ae9afeb1a>'
p419
aS'<http://bio2rdf.org/drugbank_resource:5266c60350b1d93d98f642825cd2f565>'
p420
aS'<http://bio2rdf.org/drugbank:DB00217>'
p421
aS'<http://bio2rdf.org/drugbank:DB00800>'
p422
aS'<http://bio2rdf.org/drugbank:DB00275>'
p423
aS'<http://bio2rdf.org/drugbank:DB00373>'
p424
asa(dp425
g13
(g14
(g16
S'\x00\x00\x00\x00\x00\x00\x00\x00'
tRp426
g18
(g19
(I0
tS'b'
tRp427
(I1
(I4
tg21
I00
S'\xc4\xe0\xf3.\xb2\xf06@\xd7\xa5\x0e/``7@\x9f\x9e\x1aY\x8aE7@\xa5\xac\xceC\x8aD7@'
tbtp428
sS'n'
I100
sg23
I464
sg24
(lp429
g26
ag27
ag49
ag50
ag51
ag81
ag82
ag83
ag84
ag85
ag121
ag122
ag123
ag124
ag125
ag159
ag160
ag161
ag162
ag163
ag191
ag192
ag193
ag194
ag28
ag29
ag52
ag53
ag54
ag86
ag87
ag88
ag89
ag90
ag126
ag127
ag128
ag129
ag130
ag164
ag165
ag166
ag167
ag168
ag195
ag196
ag197
ag198
ag199
ag220
ag221
ag222
ag223
ag224
ag225
ag226
ag227
ag228
ag229
ag230
ag231
ag232
ag233
ag234
ag235
ag236
ag237
ag238
ag239
ag240
ag241
ag242
ag243
ag244
ag325
ag326
ag327
ag328
ag329
ag330
ag331
ag332
ag333
ag334
ag335
ag336
ag337
ag338
ag339
ag340
ag341
ag342
ag343
ag344
ag345
ag346
ag347
ag348
ag349
aS'<http://bio2rdf.org/drugbank_resource:d1d881b5f4e5df5934b7315c9664cc03>'
p430
aS'<http://bio2rdf.org/drugbank_resource:0f4aa693639f0f95f4a657d85575bd11>'
p431
aS'<http://bio2rdf.org/drugbank_resource:3eea28a6b566b3089a0257d76eecaf68>'
p432
aS'<http://bio2rdf.org/drugbank_resource:20cfe1f5fd0cf14c12890be2fb72043b>'
p433
aS'<http://bio2rdf.org/drugbank_resource:1795fa33b9d89e3e9f90de85c753726c>'
p434
aS'<http://bio2rdf.org/drugbank_resource:8e1c08b07fc219ac7293e4da76f5efb4>'
p435
aS'<http://bio2rdf.org/drugbank_resource:4f269d7c80ba9248911654be28a280f1>'
p436
aS'<http://bio2rdf.org/drugbank_resource:8ac7e048d58be190812075dcda2a24f9>'
p437
aS'<http://bio2rdf.org/drugbank_resource:bf747af33395777779e8754844dde627>'
p438
aS'<http://bio2rdf.org/drugbank_resource:f6022b566b5dde200d342f6fb4e5d965>'
p439
aS'<http://bio2rdf.org/drugbank_resource:bb9f4674de3b56834a2d5a3e9f1e4d2c>'
p440
aS'<http://bio2rdf.org/drugbank_resource:61f8fb5e55bec4398690a58da22e4cdf>'
p441
aS'<http://bio2rdf.org/drugbank_resource:236ca982179c37228149c68985e4efdb>'
p442
aS'<http://bio2rdf.org/drugbank_resource:8cc19f6ee96178566cdb60f664894141>'
p443
aS'<http://bio2rdf.org/drugbank_resource:32337b11ec454f045ec27c069cc80fd0>'
p444
aS'<http://bio2rdf.org/drugbank_resource:13a8c8b26d434defb8ec5d810f76c106>'
p445
aS'<http://bio2rdf.org/drugbank_resource:e52d75a5fb505fcf1c921432b79c6ed0>'
p446
aS'<http://bio2rdf.org/drugbank_resource:98291d3abf3bf08958d64111bcf25ffb>'
p447
aS'<http://bio2rdf.org/drugbank_resource:6402ef831fde308ea209e0a0273fc77b>'
p448
aS'<http://bio2rdf.org/drugbank_resource:2eeb0f6d5fa12af0ec70b3d9ed0b822a>'
p449
aS'<http://bio2rdf.org/drugbank_resource:d8f78c322652769570b09b4b969e1dea>'
p450
aS'<http://bio2rdf.org/drugbank_resource:245bb02687277d84b6cf5fe63353433b>'
p451
aS'<http://bio2rdf.org/drugbank_resource:43dc194d2b85d7e7b1fcb4075a942c26>'
p452
aS'<http://bio2rdf.org/drugbank_resource:87841b87128571fb073690030b22a47e>'
p453
aS'<http://bio2rdf.org/drugbank_resource:c94356f5f0899dd15a42588741765874>'
p454
ag30
ag31
ag55
ag56
ag57
ag91
ag92
ag93
ag94
ag95
ag131
ag132
ag133
ag134
ag135
ag169
ag170
ag171
ag172
ag173
ag200
ag201
ag202
ag203
ag204
ag245
ag246
ag247
ag248
ag249
ag250
ag251
ag252
ag253
ag254
ag255
ag256
ag257
ag258
ag259
ag260
ag261
ag262
ag263
ag264
ag265
ag266
ag267
ag268
ag269
ag350
ag351
ag352
ag353
ag354
ag355
ag356
ag357
ag358
ag359
ag360
ag361
ag362
ag363
ag364
ag365
ag366
ag367
ag368
ag369
ag370
ag371
ag372
ag373
ag374
aS'<http://bio2rdf.org/drugbank_resource:d9a7bc9f0e81bee9d108a0f5df6e3b1f>'
p455
aS'<http://bio2rdf.org/drugbank_resource:cdbcb38bccb3dec2de15b12b8bd7383a>'
p456
aS'<http://bio2rdf.org/drugbank_resource:f4784b71e690722f5385f6351b05095b>'
p457
aS'<http://bio2rdf.org/drugbank_resource:ba5538849302b8ab3e77f736371c0774>'
p458
aS'<http://bio2rdf.org/drugbank_resource:6ac8a7e2ef4b576177d80f90cdfd3a1b>'
p459
aS'<http://bio2rdf.org/drugbank_resource:e4735071fc37a940323931a5f05de332>'
p460
aS'<http://bio2rdf.org/drugbank_resource:d499685655c4855a3ae9163c67b7c042>'
p461
aS'<http://bio2rdf.org/drugbank:DB00922>'
p462
aS'<http://bio2rdf.org/drugbank:DB00421>'
p463
aS'<http://bio2rdf.org/drugbank:DB00214>'
p464
aS'<http://bio2rdf.org/drugbank:DB06212>'
p465
aS'<http://bio2rdf.org/drugbank:DB04899>'
p466
aS'<http://bio2rdf.org/drugbank:DB00542>'
p467
aS'<http://bio2rdf.org/drugbank:DB01166>'
p468
aS'<http://bio2rdf.org/drugbank:DB00584>'
p469
aS'<http://bio2rdf.org/drugbank:DB01427>'
p470
aS'<http://bio2rdf.org/drugbank:DB00790>'
p471
aS'<http://bio2rdf.org/drugbank:DB00722>'
p472
aS'<http://bio2rdf.org/drugbank:DB00606>'
p473
aS'<http://bio2rdf.org/drugbank:DB00178>'
p474
aS'<http://bio2rdf.org/drugbank:DB00519>'
p475
aS'<http://bio2rdf.org/drugbank:DB01348>'
p476
aS'<http://bio2rdf.org/drugbank_resource:f96887f3e6e37564f530fbff4c2f83c2>'
p477
aS'<http://bio2rdf.org/drugbank:DB00492>'
p478
aS'<http://bio2rdf.org/drugbank:DB00881>'
p479
ag32
ag33
ag58
ag59
ag60
ag34
ag35
ag61
ag62
ag63
ag96
ag97
ag98
ag99
ag100
ag136
ag137
ag138
ag139
ag140
ag174
ag175
ag36
ag37
ag64
ag65
ag66
ag101
ag102
ag103
ag104
ag105
ag141
ag142
ag143
ag144
ag145
ag176
ag177
ag178
ag179
ag180
ag205
ag206
ag207
ag208
ag209
ag270
ag271
ag272
ag273
ag274
ag275
ag276
ag277
ag278
ag279
ag280
ag281
ag282
ag283
ag284
ag285
ag286
ag287
ag288
ag289
ag290
ag291
ag292
ag293
ag294
ag375
ag376
ag377
ag378
ag379
ag380
ag381
ag382
ag383
ag384
ag385
ag386
ag387
ag388
ag389
ag390
ag391
ag392
ag393
ag394
ag395
ag396
ag397
ag398
ag399
aS'<http://bio2rdf.org/drugbank_resource:96f93c00cf18af9eaed37b9472176dc0>'
p480
aS'<http://bio2rdf.org/drugbank_resource:5ac04f81c84685e7e342360468111f6b>'
p481
aS'<http://bio2rdf.org/drugbank_resource:f05ed9559eb52919c07a22c54ba523ea>'
p482
aS'<http://bio2rdf.org/drugbank_resource:394554f25814552e29853617322ba9f8>'
p483
aS'<http://bio2rdf.org/drugbank_resource:a4b52b5d555015f56395c0ddd7a76e19>'
p484
aS'<http://bio2rdf.org/drugbank_resource:7e9d48e07cdc5a25a947584abe10e8e8>'
p485
aS'<http://bio2rdf.org/drugbank_resource:8079527a48000a20c276609522b8ac07>'
p486
aS'<http://bio2rdf.org/drugbank_resource:4d5f5d3d3b82959c63682fa4558065ff>'
p487
aS'<http://bio2rdf.org/drugbank_resource:026f6c273fc2b00c86f898e4c1aa52be>'
p488
aS'<http://bio2rdf.org/drugbank_resource:b1c90b38f6074f8c588f689e6e1c88ea>'
p489
aS'<http://bio2rdf.org/drugbank_resource:dcb77136cac6d7c5442996e5e68136be>'
p490
aS'<http://bio2rdf.org/drugbank:DB05120>'
p491
aS'<http://bio2rdf.org/drugbank:DB05065>'
p492
aS'<http://bio2rdf.org/drugbank_resource:de8d50b025488420ae1f221a22e3ff22>'
p493
aS'<http://bio2rdf.org/drugbank_resource:bb42fb2562afc27933cbebc5f7a491b8>'
p494
aS'<http://bio2rdf.org/drugbank_resource:81ebbb183f0d48a71d6ce31a4bc93399>'
p495
aS'<http://bio2rdf.org/drugbank_resource:4c5edf8dc734eb72f74206eb1de7330a>'
p496
aS'<http://bio2rdf.org/drugbank_resource:f8604292e8c2656b6a2da3901678be9b>'
p497
aS'<http://bio2rdf.org/drugbank_resource:846b2358c86d2f7f9e90c540a0c25f7b>'
p498
aS'<http://bio2rdf.org/drugbank_resource:147c6fbf96417ff24af5c752b9fe0ae0>'
p499
aS'<http://bio2rdf.org/drugbank_resource:b3addeb67938b640e048407e5d36b177>'
p500
aS'<http://bio2rdf.org/drugbank_resource:01b548815fbbb7618b4590b19348a1bb>'
p501
aS'<http://bio2rdf.org/drugbank_resource:92029e687fd545807aedd0ff890fa8d4>'
p502
aS'<http://bio2rdf.org/drugbank_resource:1e6d464c08b245a0156c590eb1ae090c>'
p503
aS'<http://bio2rdf.org/drugbank_resource:a6d8bc70dff0a6f97d3775fff2513b1b>'
p504
ag38
ag39
ag67
ag68
ag69
ag40
ag41
ag70
ag71
ag72
ag106
ag107
ag108
ag109
ag110
ag146
ag147
ag148
ag42
ag43
ag73
ag74
ag75
ag111
ag112
ag113
ag114
ag115
ag149
ag150
ag151
ag152
ag153
ag181
ag182
ag183
ag184
ag185
ag210
ag211
ag212
ag213
ag214
ag295
ag296
ag297
ag298
ag299
ag300
ag301
ag302
ag303
ag304
ag305
ag306
ag307
ag308
ag309
ag310
ag311
ag312
ag313
ag314
ag315
ag316
ag317
ag318
ag319
ag400
ag401
ag402
ag403
ag404
ag405
ag406
ag407
ag408
ag409
ag410
ag411
ag412
ag413
ag414
ag415
ag416
ag417
ag418
ag419
ag420
ag421
ag422
ag423
ag424
aS'<http://bio2rdf.org/drugbank:DB00598>'
p505
aS'<http://bio2rdf.org/drugbank:DB00206>'
p506
aS'<http://bio2rdf.org/drugbank:DB00866>'
p507
aS'<http://bio2rdf.org/drugbank:DB02587>'
p508
aS'<http://bio2rdf.org/drugbank:DB00606>'
p509
aS'<http://bio2rdf.org/drugbank:DB01348>'
p510
aS'<http://bio2rdf.org/drugbank:DB00521>'
p511
aS'<http://bio2rdf.org/drugbank:DB01018>'
p512
aS'<http://bio2rdf.org/drugbank:DB01275>'
p513
aS'<http://bio2rdf.org/drugbank:DB00968>'
p514
aS'<http://bio2rdf.org/drugbank:DB01170>'
p515
aS'<http://bio2rdf.org/drugbank:DB01612>'
p516
aS'<http://bio2rdf.org/drugbank:DB01626>'
p517
aS'<http://bio2rdf.org/drugbank_resource:DB00073_DB01162>'
p518
aS'<http://bio2rdf.org/drugbank_resource:DB00073_DB00214>'
p519
aS'<http://bio2rdf.org/drugbank_resource:DB00073_DB01021>'
p520
aS'<http://bio2rdf.org/drugbank_resource:DB00346_DB01162>'
p521
aS'<http://bio2rdf.org/drugbank_resource:DB00706_DB06207>'
p522
aS'<http://bio2rdf.org/drugbank_resource:DB01162_DB06207>'
p523
aS'<http://bio2rdf.org/drugbank_resource:DB00073_DB01021>'
p524
aS'<http://bio2rdf.org/drugbank_resource:DB00073_DB01162>'
p525
aS'<http://bio2rdf.org/drugbank_resource:DB00073_DB00214>'
p526
aS'<http://bio2rdf.org/drugbank_resource:DB00346_DB01162>'
p527
aS'<http://bio2rdf.org/drugbank_resource:DB00706_DB06207>'
p528
aS'<http://bio2rdf.org/drugbank_resource:DB01162_DB06207>'
p529
asa(dp530
g13
(g14
(g16
S'\x00\x00\x00\x00\x00\x00\x00\x00'
tRp531
g18
(g19
(I0
tS'b'
tRp532
(I1
(I4
tg21
I00
S'\xd5\x01\x17\xf6\xfd\xa46@\x8a\xff\x80\x7f\x86\r7@\xd5\xe6\x02\x8an\xb07@,\x1a\xb2\xcf\x8a\x177@'
tbtp533
sS'n'
I200
sg23
I764
sg24
(lp534
g26
ag27
ag49
ag50
ag51
ag81
ag82
ag83
ag84
ag85
ag121
ag122
ag123
ag124
ag125
ag159
ag160
ag161
ag162
ag163
ag191
ag192
ag193
ag194
ag28
ag29
ag52
ag53
ag54
ag86
ag87
ag88
ag89
ag90
ag126
ag127
ag128
ag129
ag130
ag164
ag165
ag166
ag167
ag168
ag195
ag196
ag197
ag198
ag199
ag220
ag221
ag222
ag223
ag224
ag225
ag226
ag227
ag228
ag229
ag230
ag231
ag232
ag233
ag234
ag235
ag236
ag237
ag238
ag239
ag240
ag241
ag242
ag243
ag244
ag325
ag326
ag327
ag328
ag329
ag330
ag331
ag332
ag333
ag334
ag335
ag336
ag337
ag338
ag339
ag340
ag341
ag342
ag343
ag344
ag345
ag346
ag347
ag348
ag349
ag430
ag431
ag432
ag433
ag434
ag435
ag436
ag437
ag438
ag439
ag440
ag441
ag442
ag443
ag444
ag445
ag446
ag447
ag448
ag449
ag450
ag451
ag452
ag453
ag454
aS'<http://bio2rdf.org/drugbank_resource:6f8b9c087e37590d6a08e238a3161a42>'
p535
aS'<http://bio2rdf.org/drugbank_resource:60323e1dd884adcbdf3e0e47071122a3>'
p536
aS'<http://bio2rdf.org/drugbank_resource:c529b8304f04bcaf40c2c9a831e7c160>'
p537
aS'<http://bio2rdf.org/drugbank_resource:33de50389a8636424ce4fcd8737f301c>'
p538
aS'<http://bio2rdf.org/drugbank_resource:e002b796e9a32c19bae91f9af18b19bf>'
p539
aS'<http://bio2rdf.org/drugbank_resource:6b457ca9e0fb15af6fc8fb4fa4e4ee1e>'
p540
aS'<http://bio2rdf.org/drugbank_resource:53b8ecedd4cf3a86c72450bf649d0647>'
p541
aS'<http://bio2rdf.org/drugbank_resource:c67cca48fa884713a016ab61319e3f81>'
p542
aS'<http://bio2rdf.org/drugbank_resource:1bb1ba22a2df97002b367c49e426aa86>'
p543
aS'<http://bio2rdf.org/drugbank_resource:68ba3e7b7b3aca40967ac0c9d207ed80>'
p544
aS'<http://bio2rdf.org/drugbank_resource:d9babcca79e4aea2a9be1482dc15f886>'
p545
aS'<http://bio2rdf.org/drugbank_resource:2d1f5d18a46acb849c35a1605acebaa2>'
p546
aS'<http://bio2rdf.org/drugbank_resource:f6767ebdce3d0b8ea0c986c1f8c42e9c>'
p547
aS'<http://bio2rdf.org/drugbank_resource:375f8647232eb1b6eb52c231e6be2760>'
p548
aS'<http://bio2rdf.org/drugbank_resource:6529b38aaa95a89a86de91bcafff931c>'
p549
aS'<http://bio2rdf.org/drugbank_resource:a5b415b4507fb16b1f9213e57933675d>'
p550
aS'<http://bio2rdf.org/drugbank_resource:ab24a219eb783f1b90d77d713ab15ce3>'
p551
aS'<http://bio2rdf.org/drugbank_resource:2186f63a5711eff4957243b530570270>'
p552
aS'<http://bio2rdf.org/drugbank_resource:d9a7bc9f0e81bee9d108a0f5df6e3b1f>'
p553
aS'<http://bio2rdf.org/drugbank_resource:f2b5fd119b0865262ad5f59f682ea42b>'
p554
aS'<http://bio2rdf.org/drugbank_resource:d78f1a725be876a7eda58de806fb8629>'
p555
aS'<http://bio2rdf.org/drugbank_resource:a4825008f7e40cc0a52f0ee914c3cca5>'
p556
aS'<http://bio2rdf.org/drugbank_resource:838f2bede7c7850d48b54de13700b88b>'
p557
aS'<http://bio2rdf.org/drugbank_resource:2e7cc5062d9daa52291fb3f4d58a9121>'
p558
aS'<http://bio2rdf.org/drugbank_resource:148fa0904c0c63795057ac1dcfe061f1>'
p559
aS'<http://bio2rdf.org/drugbank_resource:2f4dea377b1f3f006eb39dcb28fe368e>'
p560
aS'<http://bio2rdf.org/drugbank_resource:c583c4af4ca9cce6b757b18736815d10>'
p561
aS'<http://bio2rdf.org/drugbank_resource:88e059aa22846a73568d8b373d318a06>'
p562
aS'<http://bio2rdf.org/drugbank:DB00287>'
p563
aS'<http://bio2rdf.org/drugbank_resource:6369e6aaa9c32dc1155b5924fd3d9cd8>'
p564
aS'<http://bio2rdf.org/drugbank_resource:41550cc5594a6847e34135804df79bdc>'
p565
aS'<http://bio2rdf.org/drugbank_resource:ef539ddf906022e24e7bdce4b49bea5f>'
p566
aS'<http://bio2rdf.org/drugbank_resource:6ee59a036be6f41ed4df29aa79a132c6>'
p567
aS'<http://bio2rdf.org/drugbank_resource:53e0d1f336f4543cdfae610450558442>'
p568
aS'<http://bio2rdf.org/drugbank_resource:710a7e66cd2e26d98ce7260ac304ffe5>'
p569
aS'<http://bio2rdf.org/drugbank_resource:bf982496e46042041467e35dadb02645>'
p570
aS'<http://bio2rdf.org/drugbank_resource:1a1b9a23cda7dfdcb8e2db2970733642>'
p571
aS'<http://bio2rdf.org/drugbank_resource:299e80366f118983906ca5a07376dc1d>'
p572
aS'<http://bio2rdf.org/drugbank_resource:ab66c2051c8dc396b12ec46325d8d736>'
p573
aS'<http://bio2rdf.org/drugbank_resource:5b393a2e9436c7bde519bacebe516f44>'
p574
aS'<http://bio2rdf.org/drugbank_resource:a498fa20e37a78af9697e244db4d70fe>'
p575
aS'<http://bio2rdf.org/drugbank_resource:d90bc3dcf12ef6dec30b9635204f17d6>'
p576
aS'<http://bio2rdf.org/drugbank_resource:636371262fe93a3a9542e5864c7b2d8f>'
p577
aS'<http://bio2rdf.org/drugbank_resource:1e6d464c08b245a0156c590eb1ae090c>'
p578
aS'<http://bio2rdf.org/drugbank_resource:074fba1330eef367813e19c20ce45379>'
p579
aS'<http://bio2rdf.org/drugbank_resource:26a7796d25b0b43f5022fe7abfe53bd1>'
p580
aS'<http://bio2rdf.org/drugbank_resource:c4f949d3f69d0837aa4378026851a49d>'
p581
aS'<http://bio2rdf.org/drugbank_resource:e5887c814892b5014ea0fabcf086921f>'
p582
aS'<http://bio2rdf.org/drugbank:DB01342>'
p583
aS'<http://bio2rdf.org/drugbank_resource:fc84216811a27a270d96e86d3ca60470>'
p584
aS'<http://bio2rdf.org/drugbank:DB05358>'
p585
aS'<http://bio2rdf.org/drugbank_resource:b87d79f1372b3e16eba1e983789f53b4>'
p586
aS'<http://bio2rdf.org/drugbank_resource:a4ee2f70737d1e4115108d10a22f5900>'
p587
aS'<http://bio2rdf.org/drugbank_resource:72940b26588e166060809cca738a50ac>'
p588
aS'<http://bio2rdf.org/drugbank:DB08822>'
p589
aS'<http://bio2rdf.org/drugbank_resource:101f822b1263821f1e5e9b83b2a324d9>'
p590
aS'<http://bio2rdf.org/drugbank_resource:18c535334b6d41064c406bba7890d7ad>'
p591
aS'<http://bio2rdf.org/drugbank_resource:e83ed156901fa72e00d38fe8ff8b8780>'
p592
aS'<http://bio2rdf.org/drugbank_resource:3a6de746711ba1cacb3d8b5a2606a870>'
p593
aS'<http://bio2rdf.org/drugbank_resource:c5aec6a226487dd98dfd8aed3d3c809d>'
p594
aS'<http://bio2rdf.org/drugbank_resource:fce42af75169087eab60a1e54a81c08f>'
p595
aS'<http://bio2rdf.org/drugbank_resource:eecbb95a6153b8091d582420442fb754>'
p596
aS'<http://bio2rdf.org/drugbank_resource:5be8d2030ac9721a7ad51a5fbd28b229>'
p597
aS'<http://bio2rdf.org/drugbank_resource:343895919a614dfca50e25ef5e7e0fd7>'
p598
aS'<http://bio2rdf.org/drugbank_resource:65dcc740a34f7b16ee46788c18450984>'
p599
aS'<http://bio2rdf.org/drugbank_resource:eb172d657053881f60ebe9cb42788d7f>'
p600
aS'<http://bio2rdf.org/drugbank_resource:5c4fc52f7ac928bcddf3c82225f11be1>'
p601
aS'<http://bio2rdf.org/drugbank_resource:b8d47db4ae2dda2a0d043cd28f2507fe>'
p602
aS'<http://bio2rdf.org/drugbank_resource:ff0248fe9c419e0c883087dddd1e0c59>'
p603
aS'<http://bio2rdf.org/drugbank_resource:5b8791eaa364c4b7c2eef12d87b3eda6>'
p604
aS'<http://bio2rdf.org/drugbank_resource:198a4d7eb092eafbc0886e83a53bcecb>'
p605
aS'<http://bio2rdf.org/drugbank_resource:2539ad450a423f328e67f685272a7fb0>'
p606
aS'<http://bio2rdf.org/drugbank_resource:f2a561f6b80747ed01b9e45a0fd7263c>'
p607
aS'<http://bio2rdf.org/drugbank_resource:7a6fca7cb34cc66a03a13fdccd3a420e>'
p608
aS'<http://bio2rdf.org/drugbank:DB04831>'
p609
aS'<http://bio2rdf.org/drugbank:DB04883>'
p610
aS'<http://bio2rdf.org/drugbank:DB05796>'
p611
aS'<http://bio2rdf.org/drugbank_resource:06a90edd178cb0e304ee0642319c8615>'
p612
aS'<http://bio2rdf.org/drugbank_resource:f3207eabdc64a2dbbaf9ed45b5e9fc41>'
p613
aS'<http://bio2rdf.org/drugbank_resource:1d690b77d2cd43ab46e57cbfb9a0e392>'
p614
aS'<http://bio2rdf.org/drugbank_resource:6201d3370b94208801318b453deaa641>'
p615
aS'<http://bio2rdf.org/drugbank_resource:06c8852ce01cbc8d4826992370e8469f>'
p616
aS'<http://bio2rdf.org/drugbank_resource:85ad288e8751e358cc252d9f5480a18c>'
p617
aS'<http://bio2rdf.org/drugbank_resource:52fa907a54c1287fc043aef3a7769235>'
p618
aS'<http://bio2rdf.org/drugbank:DB00386>'
p619
aS'<http://bio2rdf.org/drugbank_resource:72338a84b781e9cbc7ae9b9b5ae85fd7>'
p620
aS'<http://bio2rdf.org/drugbank:DB00657>'
p621
aS'<http://bio2rdf.org/drugbank_resource:9ed9444df569a97109935f71ae0f7767>'
p622
aS'<http://bio2rdf.org/drugbank_resource:f6e09d48403bc65ac0b1fab3a85fb888>'
p623
aS'<http://bio2rdf.org/drugbank_resource:1df20234382c48d6e1ee36dfe7e8024b>'
p624
aS'<http://bio2rdf.org/drugbank_resource:79ef1a4807dde0aaeebe69cb017b7f45>'
p625
aS'<http://bio2rdf.org/drugbank_resource:0bdda0ad5e529c0990809e5030b4db8b>'
p626
aS'<http://bio2rdf.org/drugbank_resource:00b1b4395706f1088c26e28369bdbeea>'
p627
aS'<http://bio2rdf.org/drugbank_resource:dcc39190a7f1e15694ec8d0ebf3ccee2>'
p628
aS'<http://bio2rdf.org/drugbank_resource:17050c7ba866d460c30457357228f00e>'
p629
aS'<http://bio2rdf.org/drugbank_resource:4ce63f43ce81975fae47383c13cadadd>'
p630
aS'<http://bio2rdf.org/drugbank_resource:8e423b2f1486cb2fdd1b34f5c5412d31>'
p631
aS'<http://bio2rdf.org/drugbank_resource:a2002347f48eaf38edd0d6530ee93216>'
p632
aS'<http://bio2rdf.org/drugbank_resource:17e9d079ba387d99b12af07e98f4f7a3>'
p633
aS'<http://bio2rdf.org/drugbank:DB05423>'
p634
ag30
ag31
ag55
ag56
ag57
ag91
ag92
ag93
ag94
ag95
ag131
ag132
ag133
ag134
ag135
ag169
ag170
ag171
ag172
ag173
ag200
ag201
ag202
ag203
ag204
ag245
ag246
ag247
ag248
ag249
ag250
ag251
ag252
ag253
ag254
ag255
ag256
ag257
ag258
ag259
ag260
ag261
ag262
ag263
ag264
ag265
ag266
ag267
ag268
ag269
ag350
ag351
ag352
ag353
ag354
ag355
ag356
ag357
ag358
ag359
ag360
ag361
ag362
ag363
ag364
ag365
ag366
ag367
ag368
ag369
ag370
ag371
ag372
ag373
ag374
ag455
ag456
ag457
ag458
ag459
ag460
ag461
ag462
ag463
ag464
ag465
ag466
ag467
ag468
ag469
ag470
ag471
ag472
ag473
ag474
ag475
ag476
ag477
ag478
ag479
aS'<http://bio2rdf.org/drugbank_resource:9e96a7a0bf7c9b925a6faddf363c1016>'
p635
aS'<http://bio2rdf.org/drugbank:DB05433>'
p636
ag32
ag33
ag58
ag59
ag60
ag34
ag35
ag61
ag62
ag63
ag96
ag97
ag98
ag99
ag100
ag136
ag137
ag138
ag139
ag140
ag174
ag175
ag36
ag37
ag64
ag65
ag66
ag101
ag102
ag103
ag104
ag105
ag141
ag142
ag143
ag144
ag145
ag176
ag177
ag178
ag179
ag180
ag205
ag206
ag207
ag208
ag209
ag270
ag271
ag272
ag273
ag274
ag275
ag276
ag277
ag278
ag279
ag280
ag281
ag282
ag283
ag284
ag285
ag286
ag287
ag288
ag289
ag290
ag291
ag292
ag293
ag294
ag375
ag376
ag377
ag378
ag379
ag380
ag381
ag382
ag383
ag384
ag385
ag386
ag387
ag388
ag389
ag390
ag391
ag392
ag393
ag394
ag395
ag396
ag397
ag398
ag399
ag480
ag481
ag482
ag483
ag484
ag485
ag486
ag487
ag488
ag489
ag490
ag491
ag492
ag493
ag494
ag495
ag496
ag497
ag498
ag499
ag500
ag501
ag502
ag503
ag504
aS'<http://bio2rdf.org/drugbank_resource:2130ae2661bd3182c83c4edeaca39430>'
p637
aS'<http://bio2rdf.org/drugbank_resource:88bbffb9b6da160e836524557c0f8ff0>'
p638
aS'<http://bio2rdf.org/drugbank_resource:86796af33ca105f54a155ada678ceb05>'
p639
aS'<http://bio2rdf.org/drugbank:DB04878>'
p640
aS'<http://bio2rdf.org/drugbank_resource:a48f81bc0bcf0aaa1c929100ab5554e6>'
p641
aS'<http://bio2rdf.org/drugbank_resource:bee5ab486016b17c8bdcd31e115a0508>'
p642
aS'<http://bio2rdf.org/drugbank:DB05506>'
p643
aS'<http://bio2rdf.org/drugbank:DB05001>'
p644
aS'<http://bio2rdf.org/drugbank_resource:5fe0e5eaa88a31df8ce47f8b947553d8>'
p645
aS'<http://bio2rdf.org/drugbank_resource:090d056cdb65cb0dadb52e36f5b31dc6>'
p646
aS'<http://bio2rdf.org/drugbank_resource:325806f70a5698531f044ab072cef99e>'
p647
aS'<http://bio2rdf.org/drugbank_resource:b52fadb9cbafab19158f2033b78c9ded>'
p648
aS'<http://bio2rdf.org/drugbank_resource:d9a7bc9f0e81bee9d108a0f5df6e3b1f>'
p649
aS'<http://bio2rdf.org/drugbank_resource:cdbcb38bccb3dec2de15b12b8bd7383a>'
p650
aS'<http://bio2rdf.org/drugbank_resource:17050c7ba866d460c30457357228f00e>'
p651
aS'<http://bio2rdf.org/drugbank_resource:7683ff54257ec5f8086383ee85d6ff08>'
p652
aS'<http://bio2rdf.org/drugbank_resource:b844c768e4d12b1f2e93d840440803be>'
p653
aS'<http://bio2rdf.org/drugbank_resource:6f4b0f285d7a05310c7aa1f2b87c950b>'
p654
aS'<http://bio2rdf.org/drugbank:DB05423>'
p655
aS'<http://bio2rdf.org/drugbank_resource:d0954b6897ca0a49b13c9d8418feb8c8>'
p656
aS'<http://bio2rdf.org/drugbank:DB05162>'
p657
aS'<http://bio2rdf.org/drugbank_resource:c57d8af5b154fcd71c674a6435c33c87>'
p658
aS'<http://bio2rdf.org/drugbank_resource:f3f4fc5797fbbe941fc060ecc1cf4ab1>'
p659
aS'<http://bio2rdf.org/drugbank_resource:fedec2b89e4eea01f3eb304fdb771a18>'
p660
aS'<http://bio2rdf.org/drugbank_resource:ee519e31dc34309e81706da07e370053>'
p661
aS'<http://bio2rdf.org/drugbank_resource:ce56c8a7574e51328ca2e7e79da4fe44>'
p662
aS'<http://bio2rdf.org/drugbank_resource:b7d802c9b250aa4003b403f508e3a528>'
p663
aS'<http://bio2rdf.org/drugbank_resource:7d6da211bd92624dac993b5f79e464ed>'
p664
aS'<http://bio2rdf.org/drugbank:DB05098>'
p665
aS'<http://bio2rdf.org/drugbank:DB05115>'
p666
aS'<http://bio2rdf.org/drugbank_resource:eb1138b6fc9984686b7b90592411ec8e>'
p667
aS'<http://bio2rdf.org/drugbank_resource:e43e6a0ff6824fe824e829fe412b07bb>'
p668
aS'<http://bio2rdf.org/drugbank_resource:c33d603fd4424bee302f84be5237f257>'
p669
aS'<http://bio2rdf.org/drugbank_resource:3ccffcdccdc7fa1e647633292e13f5c9>'
p670
aS'<http://bio2rdf.org/drugbank_resource:e16175ca773bbfad3bac8875981a9eaa>'
p671
aS'<http://bio2rdf.org/drugbank_resource:f82423f84239be5e7d05b82ba8f90119>'
p672
aS'<http://bio2rdf.org/drugbank_resource:d33f5150501ed7f709469ef7ced1ba59>'
p673
aS'<http://bio2rdf.org/drugbank_resource:3068f6dae1b19d629d66afcbe9ab52e9>'
p674
aS'<http://bio2rdf.org/drugbank_resource:e3746556e2901ae3a5609b75a49b62c7>'
p675
aS'<http://bio2rdf.org/drugbank_resource:9793646f0a24e9de0774475a0246631f>'
p676
aS'<http://bio2rdf.org/drugbank_resource:37c421830da9ce2267cbc862a9763959>'
p677
aS'<http://bio2rdf.org/drugbank_resource:bf0c2c96bfc841e72ca4fc08a22731e0>'
p678
aS'<http://bio2rdf.org/drugbank_resource:cfea10afbffdaff7a16bd395dc6531f5>'
p679
aS'<http://bio2rdf.org/drugbank:DB05159>'
p680
aS'<http://bio2rdf.org/drugbank_resource:b2b29bf8ce6a497ffdf6ecdeb17ff8f4>'
p681
aS'<http://bio2rdf.org/drugbank_resource:d35a838d794092f3b959f254e6614619>'
p682
aS'<http://bio2rdf.org/drugbank:DB05838>'
p683
aS'<http://bio2rdf.org/drugbank_resource:572556721ce5dc147f3bd8800e0384b1>'
p684
aS'<http://bio2rdf.org/drugbank_resource:e2f82bf6440d1a1576b3df8b4f9e60a7>'
p685
aS'<http://bio2rdf.org/drugbank_resource:1d690b77d2cd43ab46e57cbfb9a0e392>'
p686
aS'<http://bio2rdf.org/drugbank_resource:e3366f1e91e29ba801a886a2be9dad64>'
p687
aS'<http://bio2rdf.org/drugbank_resource:1ce6e8624753aa566e752f5d24b9645b>'
p688
aS'<http://bio2rdf.org/drugbank_resource:c11e4c1c6398a01e42996bf3708dec0b>'
p689
aS'<http://bio2rdf.org/drugbank_resource:02004b0862c3c73cf67e0fa5985f3cd0>'
p690
aS'<http://bio2rdf.org/drugbank:DB04876>'
p691
aS'<http://bio2rdf.org/drugbank_resource:61673a670db9b9d58e7972581097a7a6>'
p692
aS'<http://bio2rdf.org/drugbank_resource:cac1039ea585006cec41f720cd14c3ce>'
p693
aS'<http://bio2rdf.org/drugbank_resource:e8d3f9ba0ceb2a10f1cdc41b91b877d4>'
p694
aS'<http://bio2rdf.org/drugbank_resource:e9311bc548e417929389ce4748ac151b>'
p695
aS'<http://bio2rdf.org/drugbank:DB06062>'
p696
aS'<http://bio2rdf.org/drugbank_resource:693458f38066fb59b245b7f567c16298>'
p697
aS'<http://bio2rdf.org/drugbank_resource:9ccd2c5fc79a5a0e9d4b9e473a81a325>'
p698
aS'<http://bio2rdf.org/drugbank_resource:307f39aad141e24671205aefb5d30948>'
p699
aS'<http://bio2rdf.org/drugbank_resource:08b96ff860ec216db5ee37229eb349ca>'
p700
aS'<http://bio2rdf.org/drugbank:DB01132>'
p701
aS'<http://bio2rdf.org/drugbank:DB01124>'
p702
aS'<http://bio2rdf.org/drugbank:DB00738>'
p703
aS'<http://bio2rdf.org/drugbank:DB00672>'
p704
aS'<http://bio2rdf.org/drugbank_resource:7ed0c8447f4f72117dbefa7527699419>'
p705
aS'<http://bio2rdf.org/drugbank:DB00428>'
p706
aS'<http://bio2rdf.org/drugbank:DB00331>'
p707
aS'<http://bio2rdf.org/drugbank:DB00912>'
p708
aS'<http://bio2rdf.org/drugbank:DB00999>'
p709
aS'<http://bio2rdf.org/drugbank:DB01252>'
p710
aS'<http://bio2rdf.org/drugbank:DB00491>'
p711
aS'<http://bio2rdf.org/drugbank:DB01120>'
p712
aS'<http://bio2rdf.org/drugbank:DB01278>'
p713
aS'<http://bio2rdf.org/drugbank:DB00035>'
p714
aS'<http://bio2rdf.org/drugbank:DB00284>'
p715
aS'<http://bio2rdf.org/drugbank:DB01261>'
p716
aS'<http://bio2rdf.org/drugbank:DB00275>'
p717
aS'<http://bio2rdf.org/drugbank:DB00722>'
p718
aS'<http://bio2rdf.org/drugbank:DB00519>'
p719
aS'<http://bio2rdf.org/drugbank:DB08882>'
p720
aS'<http://bio2rdf.org/drugbank:DB05187>'
p721
aS'<http://bio2rdf.org/drugbank:DB08915>'
p722
aS'<http://bio2rdf.org/drugbank:DB00492>'
p723
aS'<http://bio2rdf.org/drugbank:DB05464>'
p724
aS'<http://bio2rdf.org/drugbank:DB05278>'
p725
aS'<http://bio2rdf.org/drugbank:DB01251>'
p726
aS'<http://bio2rdf.org/drugbank:DB04971>'
p727
aS'<http://bio2rdf.org/drugbank:DB01382>'
p728
aS'<http://bio2rdf.org/drugbank:DB04963>'
p729
aS'<http://bio2rdf.org/drugbank:DB05145>'
p730
aS'<http://bio2rdf.org/drugbank:DB05499>'
p731
aS'<http://bio2rdf.org/drugbank:DB04936>'
p732
aS'<http://bio2rdf.org/drugbank:DB05496>'
p733
aS'<http://bio2rdf.org/drugbank:DB05061>'
p734
ag38
ag39
ag67
ag68
ag69
ag40
ag41
ag70
ag71
ag72
ag106
ag107
ag108
ag109
ag110
ag146
ag147
ag148
ag42
ag43
ag73
ag74
ag75
ag111
ag112
ag113
ag114
ag115
ag149
ag150
ag151
ag152
ag153
ag181
ag182
ag183
ag184
ag185
ag210
ag211
ag212
ag213
ag214
ag295
ag296
ag297
ag298
ag299
ag300
ag301
ag302
ag303
ag304
ag305
ag306
ag307
ag308
ag309
ag310
ag311
ag312
ag313
ag314
ag315
ag316
ag317
ag318
ag319
ag400
ag401
ag402
ag403
ag404
ag405
ag406
ag407
ag408
ag409
ag410
ag411
ag412
ag413
ag414
ag415
ag416
ag417
ag418
ag419
ag420
ag421
ag422
ag423
ag424
ag505
ag506
ag507
ag508
ag509
ag510
ag511
ag512
ag513
ag514
ag515
ag516
ag517
ag518
ag519
ag520
ag521
ag522
ag523
ag524
ag525
ag526
ag527
ag528
ag529
aS'<http://bio2rdf.org/drugbank_resource:DB00206_DB00374>'
p735
aS'<http://bio2rdf.org/drugbank_resource:DB00177_DB00374>'
p736
aS'<http://bio2rdf.org/drugbank_resource:DB00214_DB00374>'
p737
aS'<http://bio2rdf.org/drugbank_resource:DB00195_DB00374>'
p738
aS'<http://bio2rdf.org/drugbank_resource:DB00178_DB06196>'
p739
aS'<http://bio2rdf.org/drugbank_resource:DB00178_DB00374>'
p740
aS'<http://bio2rdf.org/drugbank_resource:DB00187_DB00374>'
p741
aS'<http://bio2rdf.org/drugbank_resource:DB00275_DB00374>'
p742
aS'<http://bio2rdf.org/drugbank_resource:DB00270_DB00374>'
p743
aS'<http://bio2rdf.org/drugbank_resource:DB00232_DB00374>'
p744
aS'<http://bio2rdf.org/drugbank_resource:DB00264_DB00374>'
p745
aS'<http://bio2rdf.org/drugbank_resource:DB00335_DB00374>'
p746
aS'<http://bio2rdf.org/drugbank_resource:DB00343_DB00374>'
p747
aS'<http://bio2rdf.org/drugbank_resource:DB00350_DB00374>'
p748
aS'<http://bio2rdf.org/drugbank_resource:DB00325_DB00374>'
p749
aS'<http://bio2rdf.org/drugbank_resource:DB00310_DB00374>'
p750
aS'<http://bio2rdf.org/drugbank_resource:DB00374_DB00903>'
p751
aS'<http://bio2rdf.org/drugbank_resource:DB00374_DB01324>'
p752
aS'<http://bio2rdf.org/drugbank_resource:DB00374_DB00697>'
p753
aS'<http://bio2rdf.org/drugbank_resource:DB00374_DB00381>'
p754
aS'<http://bio2rdf.org/drugbank_resource:DB00374_DB00633>'
p755
aS'<http://bio2rdf.org/drugbank_resource:DB00374_DB00521>'
p756
aS'<http://bio2rdf.org/drugbank_resource:DB00374_DB00727>'
p757
aS'<http://bio2rdf.org/drugbank_resource:DB00374_DB00492>'
p758
aS'<http://bio2rdf.org/drugbank_resource:DB00374_DB01144>'
p759
aS'<http://bio2rdf.org/drugbank_resource:DB00374_DB01193>'
p760
aS'<http://bio2rdf.org/drugbank_resource:DB00374_DB00964>'
p761
aS'<http://bio2rdf.org/drugbank_resource:DB00374_DB01018>'
p762
aS'<http://bio2rdf.org/drugbank_resource:DB00422_DB00519>'
p763
aS'<http://bio2rdf.org/drugbank_resource:DB00374_DB01203>'
p764
aS'<http://bio2rdf.org/drugbank_resource:DB00374_DB01029>'
p765
aS'<http://bio2rdf.org/drugbank_resource:DB00374_DB00393>'
p766
aS'<http://bio2rdf.org/drugbank_resource:DB00374_DB00700>'
p767
aS'<http://bio2rdf.org/drugbank_resource:DB00374_DB00421>'
p768
aS'<http://bio2rdf.org/drugbank_resource:DB00374_DB01214>'
p769
aS'<http://bio2rdf.org/drugbank_resource:DB00374_DB00808>'
p770
aS'<http://bio2rdf.org/drugbank_resource:DB00374_DB00925>'
p771
aS'<http://bio2rdf.org/drugbank_resource:DB00374_DB03904>'
p772
aS'<http://bio2rdf.org/drugbank_resource:DB00374_DB00457>'
p773
aS'<http://bio2rdf.org/drugbank_resource:DB00374_DB00796>'
p774
aS'<http://bio2rdf.org/drugbank_resource:DB00374_DB00883>'
p775
aS'<http://bio2rdf.org/drugbank_resource:DB00374_DB00629>'
p776
aS'<http://bio2rdf.org/drugbank_resource:DB00374_DB00695>'
p777
aS'<http://bio2rdf.org/drugbank_resource:DB00374_DB01340>'
p778
aS'<http://bio2rdf.org/drugbank_resource:DB00374_DB00887>'
p779
aS'<http://bio2rdf.org/drugbank_resource:DB00374_DB00880>'
p780
aS'<http://bio2rdf.org/drugbank_resource:DB00374_DB00999>'
p781
aS'<http://bio2rdf.org/drugbank_resource:DB00374_DB01162>'
p782
aS'<http://bio2rdf.org/drugbank_resource:DB00374_DB04861>'
p783
aS'<http://bio2rdf.org/drugbank_resource:DB00374_DB00774>'
p784
aS'<http://bio2rdf.org/drugbank_resource:DB00374_DB00524>'
p785
aS'<http://bio2rdf.org/drugbank_resource:DB00374_DB00790>'
p786
aS'<http://bio2rdf.org/drugbank_resource:DB00374_DB04899>'
p787
aS'<http://bio2rdf.org/drugbank_resource:DB00374_DB00692>'
p788
aS'<http://bio2rdf.org/drugbank_resource:DB00374_DB00703>'
p789
aS'<http://bio2rdf.org/drugbank_resource:DB00374_DB01021>'
p790
aS'<http://bio2rdf.org/drugbank_resource:DB00374_DB01020>'
p791
aS'<http://bio2rdf.org/drugbank_resource:DB00374_DB00678>'
p792
aS'<http://bio2rdf.org/drugbank_resource:DB00374_DB00542>'
p793
aS'<http://bio2rdf.org/drugbank_resource:DB00374_DB00584>'
p794
aS'<http://bio2rdf.org/drugbank_resource:DB00374_DB00575>'
p795
aS'<http://bio2rdf.org/drugbank_resource:DB00374_DB01580>'
p796
aS'<http://bio2rdf.org/drugbank_resource:DB00374_DB00797>'
p797
aS'<http://bio2rdf.org/drugbank_resource:DB00374_DB00489>'
p798
aS'<http://bio2rdf.org/drugbank_resource:DB00374_DB00661>'
p799
aS'<http://bio2rdf.org/drugbank_resource:DB00374_DB00594>'
p800
aS'<http://bio2rdf.org/drugbank_resource:DB00374_DB01197>'
p801
aS'<http://bio2rdf.org/drugbank_resource:DB00374_DB00484>'
p802
aS'<http://bio2rdf.org/drugbank_resource:DB00374_DB01258>'
p803
aS'<http://bio2rdf.org/drugbank_resource:DB00374_DB01612>'
p804
aS'<http://bio2rdf.org/drugbank_resource:DB00374_DB01275>'
p805
aS'<http://bio2rdf.org/drugbank_resource:DB00374_DB00876>'
p806
aS'<http://bio2rdf.org/drugbank_resource:DB00374_DB01395>'
p807
aS'<http://bio2rdf.org/drugbank_resource:DB00374_DB00436>'
p808
aS'<http://bio2rdf.org/drugbank_resource:DB00374_DB00742>'
p809
aS'<http://bio2rdf.org/drugbank_resource:DB00374_DB01023>'
p810
aS'<http://bio2rdf.org/drugbank_resource:DB00373_DB00374>'
p811
aS'<http://bio2rdf.org/drugbank_resource:DB00374_DB01136>'
p812
aS'<http://bio2rdf.org/drugbank_resource:DB00374_DB04838>'
p813
aS'<http://bio2rdf.org/drugbank_resource:DB00374_DB00622>'
p814
aS'<http://bio2rdf.org/drugbank_resource:DB00374_DB00966>'
p815
aS'<http://bio2rdf.org/drugbank_resource:DB00374_DB01115>'
p816
aS'<http://bio2rdf.org/drugbank_resource:DB00374_DB00691>'
p817
aS'<http://bio2rdf.org/drugbank_resource:DB00374_DB01113>'
p818
aS'<http://bio2rdf.org/drugbank_resource:DB00374_DB00612>'
p819
aS'<http://bio2rdf.org/drugbank_resource:DB00374_DB01210>'
p820
aS'<http://bio2rdf.org/drugbank_resource:DB00374_DB00722>'
p821
aS'<http://bio2rdf.org/drugbank_resource:DB00374_DB04846>'
p822
aS'<http://bio2rdf.org/drugbank_resource:DB00374_DB00401>'
p823
aS'<http://bio2rdf.org/drugbank_resource:DB00374_DB01054>'
p824
aS'<http://bio2rdf.org/drugbank_resource:DB00374_DB00819>'
p825
aS'<http://bio2rdf.org/drugbank_resource:DB00374_DB00881>'
p826
aS'<http://bio2rdf.org/drugbank_resource:DB00374_DB00384>'
p827
aS'<http://bio2rdf.org/drugbank_resource:DB00374_DB00960>'
p828
aS'<http://bio2rdf.org/drugbank_resource:DB00374_DB01359>'
p829
aS'<http://bio2rdf.org/drugbank_resource:DB00374_DB00590>'
p830
aS'<http://bio2rdf.org/drugbank_resource:DB00374_DB04920>'
p831
aS'<http://bio2rdf.org/drugbank_resource:DB00374_DB00598>'
p832
aS'<http://bio2rdf.org/drugbank_resource:DB00492_DB06196>'
p833
aS'<http://bio2rdf.org/drugbank_resource:DB00519_DB06196>'
p834
asa(dp835
g13
(g14
(g16
S'\x00\x00\x00\x00\x00\x00\x00\x00'
tRp836
g18
(g19
(I0
tS'b'
tRp837
(I1
(I4
tg21
I00
S'\xaev|\xd4y\xc56@M\x11;P\x88\x1d7@E\xd7\xbc\xec\x91\x7f7@\xd6\xdf 7\xf5\x0f7@'
tbtp838
sS'n'
I400
sg23
I1164
sg24
(lp839
g26
ag27
ag49
ag50
ag51
ag81
ag82
ag83
ag84
ag85
ag121
ag122
ag123
ag124
ag125
ag159
ag160
ag161
ag162
ag163
ag191
ag192
ag193
ag194
ag28
ag29
ag52
ag53
ag54
ag86
ag87
ag88
ag89
ag90
ag126
ag127
ag128
ag129
ag130
ag164
ag165
ag166
ag167
ag168
ag195
ag196
ag197
ag198
ag199
ag220
ag221
ag222
ag223
ag224
ag225
ag226
ag227
ag228
ag229
ag230
ag231
ag232
ag233
ag234
ag235
ag236
ag237
ag238
ag239
ag240
ag241
ag242
ag243
ag244
ag325
ag326
ag327
ag328
ag329
ag330
ag331
ag332
ag333
ag334
ag335
ag336
ag337
ag338
ag339
ag340
ag341
ag342
ag343
ag344
ag345
ag346
ag347
ag348
ag349
ag430
ag431
ag432
ag433
ag434
ag435
ag436
ag437
ag438
ag439
ag440
ag441
ag442
ag443
ag444
ag445
ag446
ag447
ag448
ag449
ag450
ag451
ag452
ag453
ag454
ag535
ag536
ag537
ag538
ag539
ag540
ag541
ag542
ag543
ag544
ag545
ag546
ag547
ag548
ag549
ag550
ag551
ag552
ag553
ag554
ag555
ag556
ag557
ag558
ag559
ag560
ag561
ag562
ag563
ag564
ag565
ag566
ag567
ag568
ag569
ag570
ag571
ag572
ag573
ag574
ag575
ag576
ag577
ag578
ag579
ag580
ag581
ag582
ag583
ag584
ag585
ag586
ag587
ag588
ag589
ag590
ag591
ag592
ag593
ag594
ag595
ag596
ag597
ag598
ag599
ag600
ag601
ag602
ag603
ag604
ag605
ag606
ag607
ag608
ag609
ag610
ag611
ag612
ag613
ag614
ag615
ag616
ag617
ag618
ag619
ag620
ag621
ag622
ag623
ag624
ag625
ag626
ag627
ag628
ag629
ag630
ag631
ag632
ag633
ag634
aS'<http://bio2rdf.org/drugbank_resource:19d92645ece517805643683623ee4692>'
p840
aS'<http://bio2rdf.org/drugbank_resource:ac4163807f698930a868fe67f9c10bd3>'
p841
aS'<http://bio2rdf.org/drugbank_resource:b7b7bfe843e085826ef72929209b69aa>'
p842
aS'<http://bio2rdf.org/drugbank_resource:d031dd8350b40be8085a2cd9bdaca344>'
p843
aS'<http://bio2rdf.org/drugbank_resource:d28f62537aa6f62d6f2efea52403bbd8>'
p844
aS'<http://bio2rdf.org/drugbank_resource:2285eb0c33351c1d626cb0420bc13359>'
p845
aS'<http://bio2rdf.org/drugbank_resource:378044cdae6c0f753600b82a0545f4bf>'
p846
aS'<http://bio2rdf.org/drugbank_resource:2bc81d2fe7b581ce04907b9f9efb32a5>'
p847
aS'<http://bio2rdf.org/drugbank_resource:6f15d7c3f4a96a2e3aadc4dd568416f3>'
p848
aS'<http://bio2rdf.org/drugbank_resource:be85d08cd13d599308ca1c3a144cf034>'
p849
aS'<http://bio2rdf.org/drugbank_resource:554b60f1201380c0cae24c25e97bc0b2>'
p850
aS'<http://bio2rdf.org/drugbank_resource:894bb6e1b75988a2c4eb4c0e0d12f1fb>'
p851
aS'<http://bio2rdf.org/drugbank_resource:330f05d5f7ecdba2cc626dd96f111813>'
p852
aS'<http://bio2rdf.org/drugbank_resource:f573ebaf1dfa45794fe6d6921ee221b7>'
p853
aS'<http://bio2rdf.org/drugbank_resource:33e2ec834ef4a36ff78bd207fa0155fb>'
p854
aS'<http://bio2rdf.org/drugbank_resource:5bfa2ba85533d5e6be9ce22bf7124519>'
p855
aS'<http://bio2rdf.org/drugbank_resource:b24d03ddd3c2a26e86e0c4b74fc677bd>'
p856
aS'<http://bio2rdf.org/drugbank_resource:a31807b7c99dcaf845a5ef4d112b47e5>'
p857
aS'<http://bio2rdf.org/drugbank_resource:9aea030e7a73f4af58b382b93286dcc7>'
p858
aS'<http://bio2rdf.org/drugbank_resource:d1a58936c2749488f684e38864374863>'
p859
aS'<http://bio2rdf.org/drugbank_resource:e4e1198cc9874f810f1e39acc1a546d8>'
p860
aS'<http://bio2rdf.org/drugbank_resource:a0595503abbfb27c04cc1834a26c1614>'
p861
aS'<http://bio2rdf.org/drugbank_resource:f1a69256c58dadffe66763b9e2716859>'
p862
aS'<http://bio2rdf.org/drugbank_resource:2e9d495e1ce17451c7631fb58be35658>'
p863
aS'<http://bio2rdf.org/drugbank_resource:a454aa8a3856dbc08854f2a1fa695df5>'
p864
aS'<http://bio2rdf.org/drugbank_resource:eb4df6ff233e959353ebe0bd57f909c9>'
p865
aS'<http://bio2rdf.org/drugbank_resource:307e35bf4627bfccfc16a7c587ed1c65>'
p866
aS'<http://bio2rdf.org/drugbank_resource:5d9ea392a8348054b71f2ac8e2f8ec08>'
p867
aS'<http://bio2rdf.org/drugbank_resource:6ac8a7e2ef4b576177d80f90cdfd3a1b>'
p868
aS'<http://bio2rdf.org/drugbank_resource:e3366f1e91e29ba801a886a2be9dad64>'
p869
aS'<http://bio2rdf.org/drugbank_resource:44f5108ed69df6ad3dd2f43a5731b606>'
p870
aS'<http://bio2rdf.org/drugbank_resource:e4735071fc37a940323931a5f05de332>'
p871
aS'<http://bio2rdf.org/drugbank_resource:2d35bd3eb72bf5a00af411e6cc8d6379>'
p872
aS'<http://bio2rdf.org/drugbank_resource:4d3acd4b9b38ce84534afedeb7991227>'
p873
aS'<http://bio2rdf.org/drugbank_resource:9b2ec8161543fc868b69db6e0ec6386c>'
p874
aS'<http://bio2rdf.org/drugbank_resource:861aab2ccba533d5f845213ec6005882>'
p875
aS'<http://bio2rdf.org/drugbank_resource:f1207efb7c0d76fcae9a9a9680e2ab90>'
p876
aS'<http://bio2rdf.org/drugbank_resource:853f5db612888a66e9a507fe501a44a9>'
p877
aS'<http://bio2rdf.org/drugbank_resource:0b191af8f8078cb9aa8bb1c07ca2bbe3>'
p878
aS'<http://bio2rdf.org/drugbank_resource:883a3966ad4e175e48c92e4a39f266d0>'
p879
aS'<http://bio2rdf.org/drugbank_resource:014c83f76d9d2a2abf65f047943c055d>'
p880
aS'<http://bio2rdf.org/drugbank_resource:fab4aeb76e2477ec20d7a5ca4a709fed>'
p881
aS'<http://bio2rdf.org/drugbank_resource:67963ed5fd2acd6b775bf6c210392b32>'
p882
aS'<http://bio2rdf.org/drugbank_resource:801979e57100be06e4767eefbf2c3f5b>'
p883
aS'<http://bio2rdf.org/drugbank_resource:72ae4788b7628ef16552a6a89032342d>'
p884
aS'<http://bio2rdf.org/drugbank:DB00925>'
p885
aS'<http://bio2rdf.org/drugbank:DB01029>'
p886
aS'<http://bio2rdf.org/drugbank:DB00590>'
p887
aS'<http://bio2rdf.org/drugbank:DB01088>'
p888
aS'<http://bio2rdf.org/drugbank:DB00562>'
p889
aS'<http://bio2rdf.org/drugbank:DB00966>'
p890
aS'<http://bio2rdf.org/drugbank:DB00401>'
p891
aS'<http://bio2rdf.org/drugbank:DB00436>'
p892
aS'<http://bio2rdf.org/drugbank:DB01325>'
p893
aS'<http://bio2rdf.org/drugbank:DB08932>'
p894
aS'<http://bio2rdf.org/drugbank:DB00999>'
p895
aS'<http://bio2rdf.org/drugbank:DB01162>'
p896
aS'<http://bio2rdf.org/drugbank:DB00264>'
p897
aS'<http://bio2rdf.org/drugbank:DB01197>'
p898
aS'<http://bio2rdf.org/drugbank:DB00270>'
p899
aS'<http://bio2rdf.org/drugbank:DB00584>'
p900
aS'<http://bio2rdf.org/drugbank:DB00785>'
p901
aS'<http://bio2rdf.org/drugbank:DB00796>'
p902
aS'<http://bio2rdf.org/drugbank:DB01580>'
p903
aS'<http://bio2rdf.org/drugbank:BE0004105>'
p904
aS'<http://bio2rdf.org/drugbank:DB00869>'
p905
aS'<http://bio2rdf.org/drugbank:DB00374>'
p906
aS'<http://bio2rdf.org/drugbank:DB01340>'
p907
aS'<http://bio2rdf.org/drugbank:DB00790>'
p908
aS'<http://bio2rdf.org/drugbank:DB00177>'
p909
aS'<http://bio2rdf.org/drugbank:DB00905>'
p910
aS'<http://bio2rdf.org/drugbank:DB00214>'
p911
aS'<http://bio2rdf.org/drugbank:DB00691>'
p912
aS'<http://bio2rdf.org/drugbank:DB00559>'
p913
aS'<http://bio2rdf.org/drugbank:DB00606>'
p914
aS'<http://bio2rdf.org/drugbank:DB01194>'
p915
aS'<http://bio2rdf.org/drugbank_resource:7b836602df2f2bace5efa4d7dbb06a47>'
p916
aS'<http://bio2rdf.org/drugbank:DB00574>'
p917
aS'<http://bio2rdf.org/drugbank:DB00542>'
p918
aS'<http://bio2rdf.org/drugbank:DB01412>'
p919
aS'<http://bio2rdf.org/drugbank:DB01240>'
p920
aS'<http://bio2rdf.org/drugbank:DB01359>'
p921
aS'<http://bio2rdf.org/drugbank:DB00722>'
p922
aS'<http://bio2rdf.org/drugbank:DB00178>'
p923
aS'<http://bio2rdf.org/drugbank:DB00519>'
p924
aS'<http://bio2rdf.org/drugbank:DB01090>'
p925
aS'<http://bio2rdf.org/drugbank:DB01348>'
p926
aS'<http://bio2rdf.org/drugbank:DB04861>'
p927
aS'<http://bio2rdf.org/drugbank:DB00654>'
p928
aS'<http://bio2rdf.org/drugbank:DB01203>'
p929
aS'<http://bio2rdf.org/drugbank:DB00483>'
p930
aS'<http://bio2rdf.org/drugbank:DB01295>'
p931
aS'<http://bio2rdf.org/drugbank:DB01349>'
p932
aS'<http://bio2rdf.org/drugbank:DB00797>'
p933
aS'<http://bio2rdf.org/drugbank:DB00492>'
p934
aS'<http://bio2rdf.org/drugbank:DB00820>'
p935
aS'<http://bio2rdf.org/drugbank:DB00881>'
p936
aS'<http://bio2rdf.org/drugbank_resource:9e96a7a0bf7c9b925a6faddf363c1016>'
p937
aS'<http://bio2rdf.org/drugbank:DB00612>'
p938
aS'<http://bio2rdf.org/drugbank_resource:61d44ec8b1c2f550f04543dc25b53273>'
p939
aS'<http://bio2rdf.org/drugbank_resource:750d8584e21ce7a4f9a07d69c49c2120>'
p940
aS'<http://bio2rdf.org/drugbank_resource:DB00187_DB00668>'
p941
aS'<http://bio2rdf.org/drugbank_resource:DB00264_DB00668>'
p942
aS'<http://bio2rdf.org/drugbank_resource:DB00335_DB00668>'
p943
aS'<http://bio2rdf.org/drugbank_resource:DB00373_DB00668>'
p944
aS'<http://bio2rdf.org/drugbank_resource:DB00489_DB00668>'
p945
aS'<http://bio2rdf.org/drugbank_resource:DB00571_DB00668>'
p946
aS'<http://bio2rdf.org/drugbank_resource:DB00521_DB00668>'
p947
aS'<http://bio2rdf.org/drugbank_resource:DB00668_DB01193>'
p948
aS'<http://bio2rdf.org/drugbank_resource:DB00668_DB01295>'
p949
aS'<http://bio2rdf.org/drugbank_resource:DB00668_DB01297>'
p950
aS'<http://bio2rdf.org/drugbank_resource:DB00668_DB01203>'
p951
aS'<http://bio2rdf.org/drugbank_resource:DB00668_DB00960>'
p952
aS'<http://bio2rdf.org/drugbank_resource:DB00668_DB01359>'
p953
aS'<http://bio2rdf.org/drugbank_resource:DB00668_DB01136>'
p954
aS'<http://bio2rdf.org/drugbank_resource:DB00612_DB00668>'
p955
aS'<http://bio2rdf.org/drugbank_resource:DB00668_DB01580>'
p956
aS'<http://bio2rdf.org/drugbank_resource:DB00598_DB00668>'
p957
aS'<http://bio2rdf.org/drugbank_resource:DB00187_DB00668>'
p958
aS'<http://bio2rdf.org/drugbank_resource:DB00264_DB00668>'
p959
aS'<http://bio2rdf.org/drugbank_resource:DB00335_DB00668>'
p960
aS'<http://bio2rdf.org/drugbank_resource:DB00373_DB00668>'
p961
aS'<http://bio2rdf.org/drugbank_resource:DB00489_DB00668>'
p962
aS'<http://bio2rdf.org/drugbank_resource:DB00521_DB00668>'
p963
aS'<http://bio2rdf.org/drugbank_resource:DB00571_DB00668>'
p964
aS'<http://bio2rdf.org/drugbank_resource:DB00668_DB01580>'
p965
aS'<http://bio2rdf.org/drugbank_resource:DB00668_DB01295>'
p966
aS'<http://bio2rdf.org/drugbank_resource:DB00598_DB00668>'
p967
aS'<http://bio2rdf.org/drugbank_resource:DB00668_DB01203>'
p968
aS'<http://bio2rdf.org/drugbank_resource:DB00668_DB01297>'
p969
aS'<http://bio2rdf.org/drugbank_resource:DB00668_DB00960>'
p970
aS'<http://bio2rdf.org/drugbank_resource:DB00612_DB00668>'
p971
aS'<http://bio2rdf.org/drugbank_resource:DB00668_DB01359>'
p972
aS'<http://bio2rdf.org/drugbank_resource:DB00668_DB01193>'
p973
aS'<http://bio2rdf.org/drugbank_resource:DB00668_DB01136>'
p974
aS'<http://bio2rdf.org/drugbank_resource:DB00187_DB00575>'
p975
aS'<http://bio2rdf.org/drugbank_resource:DB00195_DB00575>'
p976
aS'<http://bio2rdf.org/drugbank_resource:DB00264_DB00575>'
p977
aS'<http://bio2rdf.org/drugbank_resource:DB00335_DB00575>'
p978
aS'<http://bio2rdf.org/drugbank_resource:DB00373_DB00575>'
p979
aS'<http://bio2rdf.org/drugbank_resource:DB00489_DB00575>'
p980
aS'<http://bio2rdf.org/drugbank_resource:DB00575_DB01359>'
p981
aS'<http://bio2rdf.org/drugbank_resource:DB00575_DB01203>'
p982
aS'<http://bio2rdf.org/drugbank_resource:DB00575_DB01295>'
p983
aS'<http://bio2rdf.org/drugbank_resource:DB00575_DB00960>'
p984
aS'<http://bio2rdf.org/drugbank_resource:DB00575_DB01580>'
p985
aS'<http://bio2rdf.org/drugbank_resource:DB00521_DB00575>'
p986
aS'<http://bio2rdf.org/drugbank_resource:DB00575_DB01136>'
p987
aS'<http://bio2rdf.org/drugbank_resource:DB00571_DB00575>'
p988
aS'<http://bio2rdf.org/drugbank_resource:DB00575_DB00598>'
p989
aS'<http://bio2rdf.org/drugbank_resource:DB00575_DB01297>'
p990
aS'<http://bio2rdf.org/drugbank_resource:DB00575_DB00612>'
p991
aS'<http://bio2rdf.org/drugbank_resource:DB00575_DB01193>'
p992
aS'<http://bio2rdf.org/drugbank_resource:DB00195_DB00575>'
p993
aS'<http://bio2rdf.org/drugbank_resource:DB00187_DB00575>'
p994
aS'<http://bio2rdf.org/drugbank_resource:DB00264_DB00575>'
p995
aS'<http://bio2rdf.org/drugbank_resource:DB00335_DB00575>'
p996
aS'<http://bio2rdf.org/drugbank_resource:DB00373_DB00575>'
p997
aS'<http://bio2rdf.org/drugbank_resource:DB00489_DB00575>'
p998
aS'<http://bio2rdf.org/drugbank_resource:DB00575_DB00960>'
p999
aS'<http://bio2rdf.org/drugbank_resource:DB00575_DB01203>'
p1000
aS'<http://bio2rdf.org/drugbank_resource:DB00571_DB00575>'
p1001
aS'<http://bio2rdf.org/drugbank_resource:DB00575_DB01359>'
p1002
aS'<http://bio2rdf.org/drugbank_resource:DB00575_DB00598>'
p1003
aS'<http://bio2rdf.org/drugbank_resource:DB00521_DB00575>'
p1004
aS'<http://bio2rdf.org/drugbank_resource:DB00575_DB01580>'
p1005
aS'<http://bio2rdf.org/drugbank_resource:DB00575_DB01295>'
p1006
aS'<http://bio2rdf.org/drugbank_resource:DB00575_DB01136>'
p1007
aS'<http://bio2rdf.org/drugbank_resource:DB00575_DB00612>'
p1008
aS'<http://bio2rdf.org/drugbank_resource:DB00575_DB01297>'
p1009
aS'<http://bio2rdf.org/drugbank_resource:DB00575_DB01193>'
p1010
aS'<http://bio2rdf.org/drugbank_resource:DB00254_DB00926>'
p1011
aS'<http://bio2rdf.org/drugbank_resource:DB00254_DB00982>'
p1012
aS'<http://bio2rdf.org/drugbank_resource:DB00254_DB00459>'
p1013
aS'<http://bio2rdf.org/drugbank_resource:DB00459_DB01301>'
p1014
aS'<http://bio2rdf.org/drugbank_resource:DB00459_DB00931>'
p1015
aS'<http://bio2rdf.org/drugbank_resource:DB00459_DB01017>'
p1016
aS'<http://bio2rdf.org/drugbank_resource:DB00459_DB00618>'
p1017
aS'<http://bio2rdf.org/drugbank_resource:DB00459_DB00595>'
p1018
aS'<http://bio2rdf.org/drugbank_resource:DB00459_DB00759>'
p1019
aS'<http://bio2rdf.org/drugbank_resource:DB00618_DB00982>'
p1020
aS'<http://bio2rdf.org/drugbank_resource:DB00595_DB00982>'
p1021
aS'<http://bio2rdf.org/drugbank_resource:DB00595_DB00926>'
p1022
aS'<http://bio2rdf.org/drugbank_resource:DB00618_DB00926>'
p1023
aS'<http://bio2rdf.org/drugbank_resource:DB00759_DB00926>'
p1024
aS'<http://bio2rdf.org/drugbank_resource:DB00759_DB00982>'
p1025
aS'<http://bio2rdf.org/drugbank_resource:DB00982_DB01017>'
p1026
aS'<http://bio2rdf.org/drugbank_resource:DB00926_DB01301>'
p1027
aS'<http://bio2rdf.org/drugbank_resource:DB00926_DB01017>'
p1028
aS'<http://bio2rdf.org/drugbank_resource:DB00982_DB01301>'
p1029
aS'<http://bio2rdf.org/drugbank_resource:DB00931_DB00982>'
p1030
aS'<http://bio2rdf.org/drugbank_resource:DB00926_DB00931>'
p1031
aS'<http://bio2rdf.org/drugbank_resource:DB00254_DB00459>'
p1032
aS'<http://bio2rdf.org/drugbank_resource:DB00254_DB00926>'
p1033
aS'<http://bio2rdf.org/drugbank_resource:DB00254_DB00982>'
p1034
aS'<http://bio2rdf.org/drugbank_resource:DB00459_DB01301>'
p1035
aS'<http://bio2rdf.org/drugbank_resource:DB00459_DB01017>'
p1036
aS'<http://bio2rdf.org/drugbank_resource:DB00459_DB00931>'
p1037
aS'<http://bio2rdf.org/drugbank_resource:DB00459_DB00595>'
p1038
aS'<http://bio2rdf.org/drugbank_resource:DB00459_DB00618>'
p1039
ag30
ag31
ag55
ag56
ag57
ag91
ag92
ag93
ag94
ag95
ag131
ag132
ag133
ag134
ag135
ag169
ag170
ag171
ag172
ag173
ag200
ag201
ag202
ag203
ag204
ag245
ag246
ag247
ag248
ag249
ag250
ag251
ag252
ag253
ag254
ag255
ag256
ag257
ag258
ag259
ag260
ag261
ag262
ag263
ag264
ag265
ag266
ag267
ag268
ag269
ag350
ag351
ag352
ag353
ag354
ag355
ag356
ag357
ag358
ag359
ag360
ag361
ag362
ag363
ag364
ag365
ag366
ag367
ag368
ag369
ag370
ag371
ag372
ag373
ag374
ag455
ag456
ag457
ag458
ag459
ag460
ag461
ag462
ag463
ag464
ag465
ag466
ag467
ag468
ag469
ag470
ag471
ag472
ag473
ag474
ag475
ag476
ag477
ag478
ag479
ag635
ag636
ag32
ag33
ag58
ag59
ag60
ag34
ag35
ag61
ag62
ag63
ag96
ag97
ag98
ag99
ag100
ag136
ag137
ag138
ag139
ag140
ag174
ag175
ag36
ag37
ag64
ag65
ag66
ag101
ag102
ag103
ag104
ag105
ag141
ag142
ag143
ag144
ag145
ag176
ag177
ag178
ag179
ag180
ag205
ag206
ag207
ag208
ag209
ag270
ag271
ag272
ag273
ag274
ag275
ag276
ag277
ag278
ag279
ag280
ag281
ag282
ag283
ag284
ag285
ag286
ag287
ag288
ag289
ag290
ag291
ag292
ag293
ag294
ag375
ag376
ag377
ag378
ag379
ag380
ag381
ag382
ag383
ag384
ag385
ag386
ag387
ag388
ag389
ag390
ag391
ag392
ag393
ag394
ag395
ag396
ag397
ag398
ag399
ag480
ag481
ag482
ag483
ag484
ag485
ag486
ag487
ag488
ag489
ag490
ag491
ag492
ag493
ag494
ag495
ag496
ag497
ag498
ag499
ag500
ag501
ag502
ag503
ag504
ag637
ag638
ag639
ag640
ag641
ag642
ag643
ag644
ag645
ag646
ag647
ag648
ag649
ag650
ag651
ag652
ag653
ag654
ag655
ag656
ag657
ag658
ag659
ag660
ag661
ag662
ag663
ag664
ag665
ag666
ag667
ag668
ag669
ag670
ag671
ag672
ag673
ag674
ag675
ag676
ag677
ag678
ag679
ag680
ag681
ag682
ag683
ag684
ag685
ag686
ag687
ag688
ag689
ag690
ag691
ag692
ag693
ag694
ag695
ag696
ag697
ag698
ag699
ag700
ag701
ag702
ag703
ag704
ag705
ag706
ag707
ag708
ag709
ag710
ag711
ag712
ag713
ag714
ag715
ag716
ag717
ag718
ag719
ag720
ag721
ag722
ag723
ag724
ag725
ag726
ag727
ag728
ag729
ag730
ag731
ag732
ag733
ag734
ag38
ag39
ag67
ag68
ag69
ag40
ag41
ag70
ag71
ag72
ag106
ag107
ag108
ag109
ag110
ag146
ag147
ag148
ag42
ag43
ag73
ag74
ag75
ag111
ag112
ag113
ag114
ag115
ag149
ag150
ag151
ag152
ag153
ag181
ag182
ag183
ag184
ag185
ag210
ag211
ag212
ag213
ag214
ag295
ag296
ag297
ag298
ag299
ag300
ag301
ag302
ag303
ag304
ag305
ag306
ag307
ag308
ag309
ag310
ag311
ag312
ag313
ag314
ag315
ag316
ag317
ag318
ag319
ag400
ag401
ag402
ag403
ag404
ag405
ag406
ag407
ag408
ag409
ag410
ag411
ag412
ag413
ag414
ag415
ag416
ag417
ag418
ag419
ag420
ag421
ag422
ag423
ag424
ag505
ag506
ag507
ag508
ag509
ag510
ag511
ag512
ag513
ag514
ag515
ag516
ag517
ag518
ag519
ag520
ag521
ag522
ag523
ag524
ag525
ag526
ag527
ag528
ag529
ag735
ag736
ag737
ag738
ag739
ag740
ag741
ag742
ag743
ag744
ag745
ag746
ag747
ag748
ag749
ag750
ag751
ag752
ag753
ag754
ag755
ag756
ag757
ag758
ag759
ag760
ag761
ag762
ag763
ag764
ag765
ag766
ag767
ag768
ag769
ag770
ag771
ag772
ag773
ag774
ag775
ag776
ag777
ag778
ag779
ag780
ag781
ag782
ag783
ag784
ag785
ag786
ag787
ag788
ag789
ag790
ag791
ag792
ag793
ag794
ag795
ag796
ag797
ag798
ag799
ag800
ag801
ag802
ag803
ag804
ag805
ag806
ag807
ag808
ag809
ag810
ag811
ag812
ag813
ag814
ag815
ag816
ag817
ag818
ag819
ag820
ag821
ag822
ag823
ag824
ag825
ag826
ag827
ag828
ag829
ag830
ag831
ag832
ag833
ag834
aS'<http://bio2rdf.org/drugbank_resource:DB00519_DB01363>'
p1040
aS'<http://bio2rdf.org/drugbank_resource:DB00519_DB01404>'
p1041
aS'<http://bio2rdf.org/drugbank_resource:DB00584_DB06196>'
p1042
aS'<http://bio2rdf.org/drugbank_resource:DB00575_DB00726>'
p1043
aS'<http://bio2rdf.org/drugbank_resource:DB00542_DB06196>'
p1044
aS'<http://bio2rdf.org/drugbank_resource:DB00629_DB00726>'
p1045
aS'<http://bio2rdf.org/drugbank_resource:DB00633_DB00726>'
p1046
aS'<http://bio2rdf.org/drugbank_resource:DB00697_DB00726>'
p1047
aS'<http://bio2rdf.org/drugbank_resource:DB00726_DB01018>'
p1048
aS'<http://bio2rdf.org/drugbank_resource:DB00691_DB06196>'
p1049
aS'<http://bio2rdf.org/drugbank_resource:DB00790_DB06196>'
p1050
aS'<http://bio2rdf.org/drugbank_resource:DB00881_DB06196>'
p1051
aS'<http://bio2rdf.org/drugbank_resource:DB01197_DB06196>'
p1052
aS'<http://bio2rdf.org/drugbank_resource:DB00206_DB00374>'
p1053
aS'<http://bio2rdf.org/drugbank_resource:DB00178_DB00374>'
p1054
aS'<http://bio2rdf.org/drugbank_resource:DB00177_DB00374>'
p1055
aS'<http://bio2rdf.org/drugbank_resource:DB00187_DB00374>'
p1056
aS'<http://bio2rdf.org/drugbank_resource:DB00178_DB06196>'
p1057
aS'<http://bio2rdf.org/drugbank_resource:DB00195_DB00374>'
p1058
aS'<http://bio2rdf.org/drugbank_resource:DB00214_DB00374>'
p1059
aS'<http://bio2rdf.org/drugbank_resource:DB00232_DB00374>'
p1060
aS'<http://bio2rdf.org/drugbank_resource:DB00275_DB00374>'
p1061
aS'<http://bio2rdf.org/drugbank_resource:DB00270_DB00374>'
p1062
aS'<http://bio2rdf.org/drugbank_resource:DB00264_DB00374>'
p1063
aS'<http://bio2rdf.org/drugbank_resource:DB00343_DB00374>'
p1064
aS'<http://bio2rdf.org/drugbank_resource:DB00335_DB00374>'
p1065
aS'<http://bio2rdf.org/drugbank_resource:DB00325_DB00374>'
p1066
aS'<http://bio2rdf.org/drugbank_resource:DB00350_DB00374>'
p1067
aS'<http://bio2rdf.org/drugbank_resource:DB00310_DB00374>'
p1068
aS'<http://bio2rdf.org/drugbank_resource:DB00374_DB00575>'
p1069
aS'<http://bio2rdf.org/drugbank_resource:DB00374_DB00678>'
p1070
aS'<http://bio2rdf.org/drugbank_resource:DB00374_DB00887>'
p1071
aS'<http://bio2rdf.org/drugbank_resource:DB00374_DB01197>'
p1072
aS'<http://bio2rdf.org/drugbank_resource:DB00374_DB00903>'
p1073
aS'<http://bio2rdf.org/drugbank_resource:DB00374_DB00819>'
p1074
aS'<http://bio2rdf.org/drugbank_resource:DB00374_DB00691>'
p1075
aS'<http://bio2rdf.org/drugbank_resource:DB00374_DB00492>'
p1076
aS'<http://bio2rdf.org/drugbank_resource:DB00374_DB00881>'
p1077
aS'<http://bio2rdf.org/drugbank_resource:DB00374_DB00999>'
p1078
aS'<http://bio2rdf.org/drugbank_resource:DB00374_DB01054>'
p1079
aS'<http://bio2rdf.org/drugbank_resource:DB00374_DB00700>'
p1080
aS'<http://bio2rdf.org/drugbank_resource:DB00374_DB01580>'
p1081
aS'<http://bio2rdf.org/drugbank_resource:DB00374_DB00742>'
p1082
aS'<http://bio2rdf.org/drugbank_resource:DB00374_DB00612>'
p1083
aS'<http://bio2rdf.org/drugbank_resource:DB00374_DB00401>'
p1084
aS'<http://bio2rdf.org/drugbank_resource:DB00374_DB04920>'
p1085
aS'<http://bio2rdf.org/drugbank_resource:DB00374_DB00808>'
p1086
aS'<http://bio2rdf.org/drugbank_resource:DB00374_DB00629>'
p1087
aS'<http://bio2rdf.org/drugbank_resource:DB00374_DB00484>'
p1088
aS'<http://bio2rdf.org/drugbank_resource:DB00374_DB01203>'
p1089
aS'<http://bio2rdf.org/drugbank_resource:DB00374_DB00384>'
p1090
aS'<http://bio2rdf.org/drugbank_resource:DB00374_DB00876>'
p1091
aS'<http://bio2rdf.org/drugbank_resource:DB00374_DB01018>'
p1092
aS'<http://bio2rdf.org/drugbank_resource:DB00374_DB01395>'
p1093
aS'<http://bio2rdf.org/drugbank_resource:DB00374_DB00960>'
p1094
aS'<http://bio2rdf.org/drugbank_resource:DB00374_DB00964>'
p1095
aS'<http://bio2rdf.org/drugbank_resource:DB00373_DB00374>'
p1096
aS'<http://bio2rdf.org/drugbank_resource:DB00374_DB00727>'
p1097
aS'<http://bio2rdf.org/drugbank_resource:DB00374_DB00722>'
p1098
aS'<http://bio2rdf.org/drugbank_resource:DB00374_DB00584>'
p1099
aS'<http://bio2rdf.org/drugbank_resource:DB00374_DB01340>'
p1100
aS'<http://bio2rdf.org/drugbank_resource:DB00374_DB00524>'
p1101
aS'<http://bio2rdf.org/drugbank_resource:DB00374_DB01193>'
p1102
aS'<http://bio2rdf.org/drugbank_resource:DB00374_DB00774>'
p1103
aS'<http://bio2rdf.org/drugbank_resource:DB00374_DB00594>'
p1104
aS'<http://bio2rdf.org/drugbank_resource:DB00374_DB00661>'
p1105
aS'<http://bio2rdf.org/drugbank_resource:DB00374_DB00883>'
p1106
aS'<http://bio2rdf.org/drugbank_resource:DB00374_DB01136>'
p1107
aS'<http://bio2rdf.org/drugbank_resource:DB00374_DB00421>'
p1108
aS'<http://bio2rdf.org/drugbank_resource:DB00374_DB01324>'
p1109
aS'<http://bio2rdf.org/drugbank_resource:DB00374_DB00966>'
p1110
aS'<http://bio2rdf.org/drugbank_resource:DB00374_DB04846>'
p1111
aS'<http://bio2rdf.org/drugbank_resource:DB00374_DB00489>'
p1112
aS'<http://bio2rdf.org/drugbank_resource:DB00374_DB00590>'
p1113
aS'<http://bio2rdf.org/drugbank_resource:DB00374_DB00542>'
p1114
aS'<http://bio2rdf.org/drugbank_resource:DB00374_DB00880>'
p1115
aS'<http://bio2rdf.org/drugbank_resource:DB00374_DB01210>'
p1116
aS'<http://bio2rdf.org/drugbank_resource:DB00374_DB00697>'
p1117
aS'<http://bio2rdf.org/drugbank_resource:DB00374_DB01162>'
p1118
aS'<http://bio2rdf.org/drugbank_resource:DB00374_DB00381>'
p1119
aS'<http://bio2rdf.org/drugbank_resource:DB00374_DB00790>'
p1120
aS'<http://bio2rdf.org/drugbank_resource:DB00374_DB01144>'
p1121
aS'<http://bio2rdf.org/drugbank_resource:DB00374_DB00521>'
p1122
aS'<http://bio2rdf.org/drugbank_resource:DB00374_DB00457>'
p1123
aS'<http://bio2rdf.org/drugbank_resource:DB00374_DB01258>'
p1124
aS'<http://bio2rdf.org/drugbank_resource:DB00374_DB00436>'
p1125
aS'<http://bio2rdf.org/drugbank_resource:DB00374_DB00797>'
p1126
aS'<http://bio2rdf.org/drugbank_resource:DB00374_DB01029>'
p1127
aS'<http://bio2rdf.org/drugbank_resource:DB00374_DB01021>'
p1128
aS'<http://bio2rdf.org/drugbank_resource:DB00374_DB01359>'
p1129
aS'<http://bio2rdf.org/drugbank_resource:DB00374_DB01020>'
p1130
aS'<http://bio2rdf.org/drugbank_resource:DB00374_DB00692>'
p1131
aS'<http://bio2rdf.org/drugbank_resource:DB00374_DB01023>'
p1132
aS'<http://bio2rdf.org/drugbank_resource:DB00374_DB00633>'
p1133
aS'<http://bio2rdf.org/drugbank_resource:DB00374_DB00598>'
p1134
aS'<http://bio2rdf.org/drugbank_resource:DB00374_DB01113>'
p1135
aS'<http://bio2rdf.org/drugbank_resource:DB00374_DB00695>'
p1136
aS'<http://bio2rdf.org/drugbank_resource:DB00374_DB03904>'
p1137
aS'<http://bio2rdf.org/drugbank_resource:DB00374_DB01214>'
p1138
aS'<http://bio2rdf.org/drugbank_resource:DB00374_DB00796>'
p1139
aS'<http://bio2rdf.org/drugbank_resource:DB00374_DB00393>'
p1140
aS'<http://bio2rdf.org/drugbank_resource:DB00374_DB01115>'
p1141
aS'<http://bio2rdf.org/drugbank_resource:DB00374_DB00703>'
p1142
aS'<http://bio2rdf.org/drugbank_resource:DB00374_DB04838>'
p1143
aS'<http://bio2rdf.org/drugbank_resource:DB00374_DB00925>'
p1144
aS'<http://bio2rdf.org/drugbank_resource:DB00374_DB01275>'
p1145
aS'<http://bio2rdf.org/drugbank_resource:DB00374_DB04861>'
p1146
aS'<http://bio2rdf.org/drugbank_resource:DB00422_DB00519>'
p1147
aS'<http://bio2rdf.org/drugbank_resource:DB00374_DB04899>'
p1148
aS'<http://bio2rdf.org/drugbank_resource:DB00374_DB00622>'
p1149
aS'<http://bio2rdf.org/drugbank_resource:DB00374_DB01612>'
p1150
aS'<http://bio2rdf.org/drugbank_resource:DB00492_DB06196>'
p1151
aS'<http://bio2rdf.org/drugbank_resource:DB00519_DB01363>'
p1152
aS'<http://bio2rdf.org/drugbank_resource:DB00519_DB06196>'
p1153
aS'<http://bio2rdf.org/drugbank_resource:DB00519_DB01404>'
p1154
aS'<http://bio2rdf.org/drugbank_resource:DB00575_DB00726>'
p1155
aS'<http://bio2rdf.org/drugbank_resource:DB00584_DB06196>'
p1156
aS'<http://bio2rdf.org/drugbank_resource:DB00542_DB06196>'
p1157
aS'<http://bio2rdf.org/drugbank_resource:DB00629_DB00726>'
p1158
aS'<http://bio2rdf.org/drugbank_resource:DB00633_DB00726>'
p1159
aS'<http://bio2rdf.org/drugbank_resource:DB00691_DB06196>'
p1160
aS'<http://bio2rdf.org/drugbank_resource:DB00697_DB00726>'
p1161
aS'<http://bio2rdf.org/drugbank_resource:DB00726_DB01018>'
p1162
aS'<http://bio2rdf.org/drugbank_resource:DB00790_DB06196>'
p1163
aS'<http://bio2rdf.org/drugbank_resource:DB00881_DB06196>'
p1164
aS'<http://bio2rdf.org/drugbank_resource:DB01197_DB06196>'
p1165
aS'<http://bio2rdf.org/drugbank_resource:DB00214_DB01050>'
p1166
aS'<http://bio2rdf.org/drugbank_resource:DB00214_DB00328>'
p1167
aS'<http://bio2rdf.org/drugbank_resource:DB00328_DB00887>'
p1168
aS'<http://bio2rdf.org/drugbank_resource:DB00328_DB00903>'
p1169
aS'<http://bio2rdf.org/drugbank_resource:DB00328_DB00695>'
p1170
aS'<http://bio2rdf.org/drugbank_resource:DB00328_DB00519>'
p1171
aS'<http://bio2rdf.org/drugbank_resource:DB00373_DB00482>'
p1172
aS'<http://bio2rdf.org/drugbank_resource:DB00373_DB00939>'
p1173
aS'<http://bio2rdf.org/drugbank_resource:DB00373_DB00712>'
p1174
aS'<http://bio2rdf.org/drugbank_resource:DB00373_DB00814>'
p1175
aS'<http://bio2rdf.org/drugbank_resource:DB00373_DB00500>'
p1176
aS'<http://bio2rdf.org/drugbank_resource:DB00373_DB00605>'
p1177
aS'<http://bio2rdf.org/drugbank_resource:DB00373_DB00749>'
p1178
aS'<http://bio2rdf.org/drugbank_resource:DB00373_DB01600>'
p1179
aS'<http://bio2rdf.org/drugbank_resource:DB00373_DB01283>'
p1180
aS'<http://bio2rdf.org/drugbank_resource:DB00373_DB00573>'
p1181
aS'<http://bio2rdf.org/drugbank_resource:DB00373_DB00861>'
p1182
aS'<http://bio2rdf.org/drugbank_resource:DB00373_DB00991>'
p1183
aS'<http://bio2rdf.org/drugbank_resource:DB00373_DB00788>'
p1184
aS'<http://bio2rdf.org/drugbank_resource:DB00373_DB00586>'
p1185
aS'<http://bio2rdf.org/drugbank_resource:DB00373_DB00461>'
p1186
aS'<http://bio2rdf.org/drugbank_resource:DB00373_DB01009>'
p1187
aS'<http://bio2rdf.org/drugbank_resource:DB00373_DB00465>'
p1188
aS'<http://bio2rdf.org/drugbank_resource:DB00519_DB00784>'
p1189
aS'<http://bio2rdf.org/drugbank_resource:DB00482_DB00519>'
p1190
aS'<http://bio2rdf.org/drugbank_resource:DB00461_DB00519>'
p1191
aS'<http://bio2rdf.org/drugbank_resource:DB00519_DB01283>'
p1192
aS'<http://bio2rdf.org/drugbank_resource:DB00519_DB00861>'
p1193
aS'<http://bio2rdf.org/drugbank_resource:DB00519_DB01050>'
p1194
aS'<http://bio2rdf.org/drugbank_resource:DB00519_DB00749>'
p1195
aS'<http://bio2rdf.org/drugbank_resource:DB00519_DB00939>'
p1196
aS'<http://bio2rdf.org/drugbank_resource:DB00465_DB00519>'
p1197
aS'<http://bio2rdf.org/drugbank_resource:DB00519_DB00586>'
p1198
aS'<http://bio2rdf.org/drugbank_resource:DB00519_DB00814>'
p1199
aS'<http://bio2rdf.org/drugbank_resource:DB00519_DB00573>'
p1200
aS'<http://bio2rdf.org/drugbank_resource:DB00519_DB01009>'
p1201
aS'<http://bio2rdf.org/drugbank_resource:DB00519_DB00712>'
p1202
aS'<http://bio2rdf.org/drugbank_resource:DB00519_DB00788>'
p1203
aS'<http://bio2rdf.org/drugbank_resource:DB00500_DB00519>'
p1204
aS'<http://bio2rdf.org/drugbank_resource:DB00519_DB00991>'
p1205
aS'<http://bio2rdf.org/drugbank_resource:DB00519_DB00554>'
p1206
aS'<http://bio2rdf.org/drugbank_resource:DB00519_DB00605>'
p1207
aS'<http://bio2rdf.org/drugbank_resource:DB00519_DB01600>'
p1208
aS'<http://bio2rdf.org/drugbank_resource:DB00605_DB00695>'
p1209
aS'<http://bio2rdf.org/drugbank_resource:DB00605_DB00903>'
p1210
aS'<http://bio2rdf.org/drugbank_resource:DB00605_DB00887>'
p1211
aS'<http://bio2rdf.org/drugbank_resource:DB00695_DB01050>'
p1212
aS'<http://bio2rdf.org/drugbank_resource:DB00887_DB01050>'
p1213
aS'<http://bio2rdf.org/drugbank_resource:DB00903_DB01050>'
p1214
aS'<http://bio2rdf.org/drugbank_resource:DB00880_DB01143>'
p1215
aS'<http://bio2rdf.org/drugbank_resource:DB00214_DB00328>'
p1216
aS'<http://bio2rdf.org/drugbank_resource:DB00214_DB01050>'
p1217
aS'<http://bio2rdf.org/drugbank_resource:DB00328_DB00903>'
p1218
aS'<http://bio2rdf.org/drugbank_resource:DB00328_DB00695>'
p1219
aS'<http://bio2rdf.org/drugbank_resource:DB00328_DB00887>'
p1220
aS'<http://bio2rdf.org/drugbank_resource:DB00328_DB00519>'
p1221
aS'<http://bio2rdf.org/drugbank_resource:DB00373_DB00788>'
p1222
aS'<http://bio2rdf.org/drugbank_resource:DB00373_DB00712>'
p1223
aS'<http://bio2rdf.org/drugbank_resource:DB00373_DB01009>'
p1224
aS'<http://bio2rdf.org/drugbank_resource:DB00373_DB00461>'
p1225
aS'<http://bio2rdf.org/drugbank_resource:DB00373_DB00749>'
p1226
aS'<http://bio2rdf.org/drugbank_resource:DB00373_DB00605>'
p1227
aS'<http://bio2rdf.org/drugbank_resource:DB00373_DB00465>'
p1228
aS'<http://bio2rdf.org/drugbank_resource:DB00373_DB00586>'
p1229
aS'<http://bio2rdf.org/drugbank_resource:DB00373_DB00482>'
p1230
aS'<http://bio2rdf.org/drugbank_resource:DB00373_DB00991>'
p1231
aS'<http://bio2rdf.org/drugbank_resource:DB00373_DB00939>'
p1232
aS'<http://bio2rdf.org/drugbank_resource:DB00373_DB00500>'
p1233
aS'<http://bio2rdf.org/drugbank_resource:DB00373_DB01600>'
p1234
aS'<http://bio2rdf.org/drugbank_resource:DB00373_DB00814>'
p1235
aS'<http://bio2rdf.org/drugbank_resource:DB00373_DB00861>'
p1236
aS'<http://bio2rdf.org/drugbank_resource:DB00373_DB00573>'
p1237
aS'<http://bio2rdf.org/drugbank_resource:DB00373_DB01283>'
p1238
aS'<http://bio2rdf.org/drugbank_resource:DB00519_DB00788>'
p1239
asa(dp1240
g13
(g14
(g16
S'\x00\x00\x00\x00\x00\x00\x00\x00'
tRp1241
g18
(g19
(I0
tS'b'
tRp1242
(I1
(I4
tg21
I00
S'"\xc0\x94\xbf\xb4\xcb6@c\xf1<#\xc5!7@\xc9L\xbc\x13\xb2\x7f7@\xed\xddI\xc1\xbd\x157@'
tbtp1243
sS'n'
I700
sg23
I1264
sg24
(lp1244
g26
ag27
ag49
ag50
ag51
ag81
ag82
ag83
ag84
ag85
ag121
ag122
ag123
ag124
ag125
ag159
ag160
ag161
ag162
ag163
ag191
ag192
ag193
ag194
ag28
ag29
ag52
ag53
ag54
ag86
ag87
ag88
ag89
ag90
ag126
ag127
ag128
ag129
ag130
ag164
ag165
ag166
ag167
ag168
ag195
ag196
ag197
ag198
ag199
ag220
ag221
ag222
ag223
ag224
ag225
ag226
ag227
ag228
ag229
ag230
ag231
ag232
ag233
ag234
ag235
ag236
ag237
ag238
ag239
ag240
ag241
ag242
ag243
ag244
ag325
ag326
ag327
ag328
ag329
ag330
ag331
ag332
ag333
ag334
ag335
ag336
ag337
ag338
ag339
ag340
ag341
ag342
ag343
ag344
ag345
ag346
ag347
ag348
ag349
ag430
ag431
ag432
ag433
ag434
ag435
ag436
ag437
ag438
ag439
ag440
ag441
ag442
ag443
ag444
ag445
ag446
ag447
ag448
ag449
ag450
ag451
ag452
ag453
ag454
ag535
ag536
ag537
ag538
ag539
ag540
ag541
ag542
ag543
ag544
ag545
ag546
ag547
ag548
ag549
ag550
ag551
ag552
ag553
ag554
ag555
ag556
ag557
ag558
ag559
ag560
ag561
ag562
ag563
ag564
ag565
ag566
ag567
ag568
ag569
ag570
ag571
ag572
ag573
ag574
ag575
ag576
ag577
ag578
ag579
ag580
ag581
ag582
ag583
ag584
ag585
ag586
ag587
ag588
ag589
ag590
ag591
ag592
ag593
ag594
ag595
ag596
ag597
ag598
ag599
ag600
ag601
ag602
ag603
ag604
ag605
ag606
ag607
ag608
ag609
ag610
ag611
ag612
ag613
ag614
ag615
ag616
ag617
ag618
ag619
ag620
ag621
ag622
ag623
ag624
ag625
ag626
ag627
ag628
ag629
ag630
ag631
ag632
ag633
ag634
ag840
ag841
ag842
ag843
ag844
ag845
ag846
ag847
ag848
ag849
ag850
ag851
ag852
ag853
ag854
ag855
ag856
ag857
ag858
ag859
ag860
ag861
ag862
ag863
ag864
ag865
ag866
ag867
ag868
ag869
ag870
ag871
ag872
ag873
ag874
ag875
ag876
ag877
ag878
ag879
ag880
ag881
ag882
ag883
ag884
ag885
ag886
ag887
ag888
ag889
ag890
ag891
ag892
ag893
ag894
ag895
ag896
ag897
ag898
ag899
ag900
ag901
ag902
ag903
ag904
ag905
ag906
ag907
ag908
ag909
ag910
ag911
ag912
ag913
ag914
ag915
ag916
ag917
ag918
ag919
ag920
ag921
ag922
ag923
ag924
ag925
ag926
ag927
ag928
ag929
ag930
ag931
ag932
ag933
ag934
ag935
ag936
ag937
ag938
ag939
ag940
ag941
ag942
ag943
ag944
ag945
ag946
ag947
ag948
ag949
ag950
ag951
ag952
ag953
ag954
ag955
ag956
ag957
ag958
ag959
ag960
ag961
ag962
ag963
ag964
ag965
ag966
ag967
ag968
ag969
ag970
ag971
ag972
ag973
ag974
ag975
ag976
ag977
ag978
ag979
ag980
ag981
ag982
ag983
ag984
ag985
ag986
ag987
ag988
ag989
ag990
ag991
ag992
ag993
ag994
ag995
ag996
ag997
ag998
ag999
ag1000
ag1001
ag1002
ag1003
ag1004
ag1005
ag1006
ag1007
ag1008
ag1009
ag1010
ag1011
ag1012
ag1013
ag1014
ag1015
ag1016
ag1017
ag1018
ag1019
ag1020
ag1021
ag1022
ag1023
ag1024
ag1025
ag1026
ag1027
ag1028
ag1029
ag1030
ag1031
ag1032
ag1033
ag1034
ag1035
ag1036
ag1037
ag1038
ag1039
aS'<http://bio2rdf.org/drugbank_resource:DB00459_DB00759>'
p1245
aS'<http://bio2rdf.org/drugbank_resource:DB00595_DB00982>'
p1246
aS'<http://bio2rdf.org/drugbank_resource:DB00595_DB00926>'
p1247
aS'<http://bio2rdf.org/drugbank_resource:DB00618_DB00926>'
p1248
aS'<http://bio2rdf.org/drugbank_resource:DB00618_DB00982>'
p1249
aS'<http://bio2rdf.org/drugbank_resource:DB00759_DB00926>'
p1250
aS'<http://bio2rdf.org/drugbank_resource:DB00759_DB00982>'
p1251
aS'<http://bio2rdf.org/drugbank_resource:DB00926_DB01017>'
p1252
aS'<http://bio2rdf.org/drugbank_resource:DB00926_DB01301>'
p1253
aS'<http://bio2rdf.org/drugbank_resource:DB00982_DB01301>'
p1254
aS'<http://bio2rdf.org/drugbank_resource:DB00926_DB00931>'
p1255
aS'<http://bio2rdf.org/drugbank_resource:DB00931_DB00982>'
p1256
aS'<http://bio2rdf.org/drugbank_resource:DB00982_DB01017>'
p1257
aS'<http://bio2rdf.org/drugbank_resource:DB01197_DB06692>'
p1258
aS'<http://bio2rdf.org/drugbank_resource:DB01197_DB06692>'
p1259
aS'<http://bio2rdf.org/drugbank:DB00692>'
p1260
aS'<http://bio2rdf.org/drugbank:DB01116>'
p1261
aS'<http://bio2rdf.org/drugbank:DB05739>'
p1262
aS'<http://bio2rdf.org/drugbank_resource:DB00206_DB00752>'
p1263
aS'<http://bio2rdf.org/drugbank_resource:DB00752_DB01235>'
p1264
aS'<http://bio2rdf.org/drugbank_resource:DB00206_DB00752>'
p1265
aS'<http://bio2rdf.org/drugbank_resource:DB00752_DB01235>'
p1266
aS'<http://bio2rdf.org/drugbank:DB05229>'
p1267
aS'<http://bio2rdf.org/drugbank:DB05203>'
p1268
aS'<http://bio2rdf.org/drugbank_resource:DB00307_DB00560>'
p1269
aS'<http://bio2rdf.org/drugbank_resource:DB00307_DB00560>'
p1270
aS'<http://bio2rdf.org/drugbank:DB01258>'
p1271
aS'<http://bio2rdf.org/drugbank:DB08819>'
p1272
aS'<http://bio2rdf.org/drugbank_resource:DB00203_DB00872>'
p1273
aS'<http://bio2rdf.org/drugbank_resource:DB00254_DB00307>'
p1274
aS'<http://bio2rdf.org/drugbank_resource:DB00307_DB01017>'
p1275
aS'<http://bio2rdf.org/drugbank_resource:DB00307_DB00618>'
p1276
aS'<http://bio2rdf.org/drugbank_resource:DB00307_DB00759>'
p1277
aS'<http://bio2rdf.org/drugbank_resource:DB00700_DB01128>'
p1278
aS'<http://bio2rdf.org/drugbank_resource:DB00203_DB00872>'
p1279
aS'<http://bio2rdf.org/drugbank_resource:DB00254_DB00307>'
p1280
aS'<http://bio2rdf.org/drugbank_resource:DB00307_DB00618>'
p1281
aS'<http://bio2rdf.org/drugbank_resource:DB00307_DB01017>'
p1282
aS'<http://bio2rdf.org/drugbank_resource:DB00307_DB00759>'
p1283
aS'<http://bio2rdf.org/drugbank_resource:DB00700_DB01128>'
p1284
aS'<http://bio2rdf.org/drugbank:DB00937>'
p1285
aS'<http://bio2rdf.org/drugbank_resource:95f158eec29d90012c39c3f2d9b01561>'
p1286
aS'<http://bio2rdf.org/drugbank_resource:6302e42620629260349abade1cefe96a>'
p1287
aS'<http://bio2rdf.org/drugbank:DB01490>'
p1288
aS'<http://bio2rdf.org/drugbank:DB01556>'
p1289
aS'<http://bio2rdf.org/drugbank:DB05061>'
p1290
ag30
ag31
ag55
ag56
ag57
ag91
ag92
ag93
ag94
ag95
ag131
ag132
ag133
ag134
ag135
ag169
ag170
ag171
ag172
ag173
ag200
ag201
ag202
ag203
ag204
ag245
ag246
ag247
ag248
ag249
ag250
ag251
ag252
ag253
ag254
ag255
ag256
ag257
ag258
ag259
ag260
ag261
ag262
ag263
ag264
ag265
ag266
ag267
ag268
ag269
ag350
ag351
ag352
ag353
ag354
ag355
ag356
ag357
ag358
ag359
ag360
ag361
ag362
ag363
ag364
ag365
ag366
ag367
ag368
ag369
ag370
ag371
ag372
ag373
ag374
ag455
ag456
ag457
ag458
ag459
ag460
ag461
ag462
ag463
ag464
ag465
ag466
ag467
ag468
ag469
ag470
ag471
ag472
ag473
ag474
ag475
ag476
ag477
ag478
ag479
ag635
ag636
ag32
ag33
ag58
ag59
ag60
ag34
ag35
ag61
ag62
ag63
ag96
ag97
ag98
ag99
ag100
ag136
ag137
ag138
ag139
ag140
ag174
ag175
ag36
ag37
ag64
ag65
ag66
ag101
ag102
ag103
ag104
ag105
ag141
ag142
ag143
ag144
ag145
ag176
ag177
ag178
ag179
ag180
ag205
ag206
ag207
ag208
ag209
ag270
ag271
ag272
ag273
ag274
ag275
ag276
ag277
ag278
ag279
ag280
ag281
ag282
ag283
ag284
ag285
ag286
ag287
ag288
ag289
ag290
ag291
ag292
ag293
ag294
ag375
ag376
ag377
ag378
ag379
ag380
ag381
ag382
ag383
ag384
ag385
ag386
ag387
ag388
ag389
ag390
ag391
ag392
ag393
ag394
ag395
ag396
ag397
ag398
ag399
ag480
ag481
ag482
ag483
ag484
ag485
ag486
ag487
ag488
ag489
ag490
ag491
ag492
ag493
ag494
ag495
ag496
ag497
ag498
ag499
ag500
ag501
ag502
ag503
ag504
ag637
ag638
ag639
ag640
ag641
ag642
ag643
ag644
ag645
ag646
ag647
ag648
ag649
ag650
ag651
ag652
ag653
ag654
ag655
ag656
ag657
ag658
ag659
ag660
ag661
ag662
ag663
ag664
ag665
ag666
ag667
ag668
ag669
ag670
ag671
ag672
ag673
ag674
ag675
ag676
ag677
ag678
ag679
ag680
ag681
ag682
ag683
ag684
ag685
ag686
ag687
ag688
ag689
ag690
ag691
ag692
ag693
ag694
ag695
ag696
ag697
ag698
ag699
ag700
ag701
ag702
ag703
ag704
ag705
ag706
ag707
ag708
ag709
ag710
ag711
ag712
ag713
ag714
ag715
ag716
ag717
ag718
ag719
ag720
ag721
ag722
ag723
ag724
ag725
ag726
ag727
ag728
ag729
ag730
ag731
ag732
ag733
ag734
ag38
ag39
ag67
ag68
ag69
ag40
ag41
ag70
ag71
ag72
ag106
ag107
ag108
ag109
ag110
ag146
ag147
ag148
ag42
ag43
ag73
ag74
ag75
ag111
ag112
ag113
ag114
ag115
ag149
ag150
ag151
ag152
ag153
ag181
ag182
ag183
ag184
ag185
ag210
ag211
ag212
ag213
ag214
ag295
ag296
ag297
ag298
ag299
ag300
ag301
ag302
ag303
ag304
ag305
ag306
ag307
ag308
ag309
ag310
ag311
ag312
ag313
ag314
ag315
ag316
ag317
ag318
ag319
ag400
ag401
ag402
ag403
ag404
ag405
ag406
ag407
ag408
ag409
ag410
ag411
ag412
ag413
ag414
ag415
ag416
ag417
ag418
ag419
ag420
ag421
ag422
ag423
ag424
ag505
ag506
ag507
ag508
ag509
ag510
ag511
ag512
ag513
ag514
ag515
ag516
ag517
ag518
ag519
ag520
ag521
ag522
ag523
ag524
ag525
ag526
ag527
ag528
ag529
ag735
ag736
ag737
ag738
ag739
ag740
ag741
ag742
ag743
ag744
ag745
ag746
ag747
ag748
ag749
ag750
ag751
ag752
ag753
ag754
ag755
ag756
ag757
ag758
ag759
ag760
ag761
ag762
ag763
ag764
ag765
ag766
ag767
ag768
ag769
ag770
ag771
ag772
ag773
ag774
ag775
ag776
ag777
ag778
ag779
ag780
ag781
ag782
ag783
ag784
ag785
ag786
ag787
ag788
ag789
ag790
ag791
ag792
ag793
ag794
ag795
ag796
ag797
ag798
ag799
ag800
ag801
ag802
ag803
ag804
ag805
ag806
ag807
ag808
ag809
ag810
ag811
ag812
ag813
ag814
ag815
ag816
ag817
ag818
ag819
ag820
ag821
ag822
ag823
ag824
ag825
ag826
ag827
ag828
ag829
ag830
ag831
ag832
ag833
ag834
ag1040
ag1041
ag1042
ag1043
ag1044
ag1045
ag1046
ag1047
ag1048
ag1049
ag1050
ag1051
ag1052
ag1053
ag1054
ag1055
ag1056
ag1057
ag1058
ag1059
ag1060
ag1061
ag1062
ag1063
ag1064
ag1065
ag1066
ag1067
ag1068
ag1069
ag1070
ag1071
ag1072
ag1073
ag1074
ag1075
ag1076
ag1077
ag1078
ag1079
ag1080
ag1081
ag1082
ag1083
ag1084
ag1085
ag1086
ag1087
ag1088
ag1089
ag1090
ag1091
ag1092
ag1093
ag1094
ag1095
ag1096
ag1097
ag1098
ag1099
ag1100
ag1101
ag1102
ag1103
ag1104
ag1105
ag1106
ag1107
ag1108
ag1109
ag1110
ag1111
ag1112
ag1113
ag1114
ag1115
ag1116
ag1117
ag1118
ag1119
ag1120
ag1121
ag1122
ag1123
ag1124
ag1125
ag1126
ag1127
ag1128
ag1129
ag1130
ag1131
ag1132
ag1133
ag1134
ag1135
ag1136
ag1137
ag1138
ag1139
ag1140
ag1141
ag1142
ag1143
ag1144
ag1145
ag1146
ag1147
ag1148
ag1149
ag1150
ag1151
ag1152
ag1153
ag1154
ag1155
ag1156
ag1157
ag1158
ag1159
ag1160
ag1161
ag1162
ag1163
ag1164
ag1165
ag1166
ag1167
ag1168
ag1169
ag1170
ag1171
ag1172
ag1173
ag1174
ag1175
ag1176
ag1177
ag1178
ag1179
ag1180
ag1181
ag1182
ag1183
ag1184
ag1185
ag1186
ag1187
ag1188
ag1189
ag1190
ag1191
ag1192
ag1193
ag1194
ag1195
ag1196
ag1197
ag1198
ag1199
ag1200
ag1201
ag1202
ag1203
ag1204
ag1205
ag1206
ag1207
ag1208
ag1209
ag1210
ag1211
ag1212
ag1213
ag1214
ag1215
ag1216
ag1217
ag1218
ag1219
ag1220
ag1221
ag1222
ag1223
ag1224
ag1225
ag1226
ag1227
ag1228
ag1229
ag1230
ag1231
ag1232
ag1233
ag1234
ag1235
ag1236
ag1237
ag1238
ag1239
aS'<http://bio2rdf.org/drugbank_resource:DB00519_DB00749>'
p1291
aS'<http://bio2rdf.org/drugbank_resource:DB00465_DB00519>'
p1292
aS'<http://bio2rdf.org/drugbank_resource:DB00519_DB00712>'
p1293
aS'<http://bio2rdf.org/drugbank_resource:DB00519_DB00939>'
p1294
aS'<http://bio2rdf.org/drugbank_resource:DB00519_DB00554>'
p1295
aS'<http://bio2rdf.org/drugbank_resource:DB00519_DB00861>'
p1296
aS'<http://bio2rdf.org/drugbank_resource:DB00519_DB01283>'
p1297
aS'<http://bio2rdf.org/drugbank_resource:DB00519_DB01050>'
p1298
aS'<http://bio2rdf.org/drugbank_resource:DB00519_DB00573>'
p1299
aS'<http://bio2rdf.org/drugbank_resource:DB00461_DB00519>'
p1300
aS'<http://bio2rdf.org/drugbank_resource:DB00519_DB01009>'
p1301
aS'<http://bio2rdf.org/drugbank_resource:DB00519_DB00784>'
p1302
aS'<http://bio2rdf.org/drugbank_resource:DB00500_DB00519>'
p1303
aS'<http://bio2rdf.org/drugbank_resource:DB00519_DB00586>'
p1304
aS'<http://bio2rdf.org/drugbank_resource:DB00519_DB00991>'
p1305
aS'<http://bio2rdf.org/drugbank_resource:DB00519_DB00814>'
p1306
aS'<http://bio2rdf.org/drugbank_resource:DB00482_DB00519>'
p1307
aS'<http://bio2rdf.org/drugbank_resource:DB00519_DB00605>'
p1308
aS'<http://bio2rdf.org/drugbank_resource:DB00519_DB01600>'
p1309
aS'<http://bio2rdf.org/drugbank_resource:DB00605_DB00903>'
p1310
aS'<http://bio2rdf.org/drugbank_resource:DB00605_DB00695>'
p1311
aS'<http://bio2rdf.org/drugbank_resource:DB00605_DB00887>'
p1312
aS'<http://bio2rdf.org/drugbank_resource:DB00695_DB01050>'
p1313
aS'<http://bio2rdf.org/drugbank_resource:DB00903_DB01050>'
p1314
aS'<http://bio2rdf.org/drugbank_resource:DB00880_DB01143>'
p1315
aS'<http://bio2rdf.org/drugbank_resource:DB00887_DB01050>'
p1316
aS'<http://bio2rdf.org/drugbank_resource:DB00073_DB00195>'
p1317
aS'<http://bio2rdf.org/drugbank_resource:DB00195_DB01050>'
p1318
aS'<http://bio2rdf.org/drugbank_resource:DB00195_DB00328>'
p1319
aS'<http://bio2rdf.org/drugbank_resource:DB00195_DB00554>'
p1320
aS'<http://bio2rdf.org/drugbank_resource:DB00298_DB00706>'
p1321
aS'<http://bio2rdf.org/drugbank_resource:DB00346_DB00706>'
p1322
aS'<http://bio2rdf.org/drugbank_resource:DB00457_DB00706>'
p1323
aS'<http://bio2rdf.org/drugbank_resource:DB00590_DB00706>'
p1324
aS'<http://bio2rdf.org/drugbank_resource:DB00706_DB01162>'
p1325
aS'<http://bio2rdf.org/drugbank_resource:DB00706_DB00925>'
p1326
aS'<http://bio2rdf.org/drugbank_resource:DB00692_DB00706>'
p1327
aS'<http://bio2rdf.org/drugbank_resource:DB00073_DB00195>'
p1328
aS'<http://bio2rdf.org/drugbank_resource:DB00195_DB00328>'
p1329
aS'<http://bio2rdf.org/drugbank_resource:DB00195_DB01050>'
p1330
aS'<http://bio2rdf.org/drugbank_resource:DB00195_DB00554>'
p1331
aS'<http://bio2rdf.org/drugbank_resource:DB00298_DB00706>'
p1332
aS'<http://bio2rdf.org/drugbank_resource:DB00346_DB00706>'
p1333
aS'<http://bio2rdf.org/drugbank_resource:DB00457_DB00706>'
p1334
aS'<http://bio2rdf.org/drugbank_resource:DB00590_DB00706>'
p1335
aS'<http://bio2rdf.org/drugbank_resource:DB00706_DB01162>'
p1336
aS'<http://bio2rdf.org/drugbank_resource:DB00706_DB00925>'
p1337
aS'<http://bio2rdf.org/drugbank_resource:DB00692_DB00706>'
p1338
aS'<http://bio2rdf.org/drugbank_resource:DB00073_DB00880>'
p1339
aS'<http://bio2rdf.org/drugbank_resource:DB00073_DB00880>'
p1340
aS'<http://bio2rdf.org/drugbank:DB01214>'
p1341
aS'<http://bio2rdf.org/drugbank_resource:DB00374_DB00975>'
p1342
aS'<http://bio2rdf.org/drugbank_resource:DB00374_DB00975>'
p1343
aS'<http://bio2rdf.org/drugbank:DB00629>'
p1344
asa(dp1345
g13
(g14
(g16
S'\x00\x00\x00\x00\x00\x00\x00\x00'
tRp1346
g18
(g19
(I0
tS'b'
tRp1347
(I1
(I4
tg21
I00
S'"\xc0\x94\xbf\xb4\xcb6@c\xf1<#\xc5!7@\xc9L\xbc\x13\xb2\x7f7@\xed\xddI\xc1\xbd\x157@'
tbtp1348
sS'n'
I1000
sg23
I1264
sg24
(lp1349
g26
ag27
ag49
ag50
ag51
ag81
ag82
ag83
ag84
ag85
ag121
ag122
ag123
ag124
ag125
ag159
ag160
ag161
ag162
ag163
ag191
ag192
ag193
ag194
ag28
ag29
ag52
ag53
ag54
ag86
ag87
ag88
ag89
ag90
ag126
ag127
ag128
ag129
ag130
ag164
ag165
ag166
ag167
ag168
ag195
ag196
ag197
ag198
ag199
ag220
ag221
ag222
ag223
ag224
ag225
ag226
ag227
ag228
ag229
ag230
ag231
ag232
ag233
ag234
ag235
ag236
ag237
ag238
ag239
ag240
ag241
ag242
ag243
ag244
ag325
ag326
ag327
ag328
ag329
ag330
ag331
ag332
ag333
ag334
ag335
ag336
ag337
ag338
ag339
ag340
ag341
ag342
ag343
ag344
ag345
ag346
ag347
ag348
ag349
ag430
ag431
ag432
ag433
ag434
ag435
ag436
ag437
ag438
ag439
ag440
ag441
ag442
ag443
ag444
ag445
ag446
ag447
ag448
ag449
ag450
ag451
ag452
ag453
ag454
ag535
ag536
ag537
ag538
ag539
ag540
ag541
ag542
ag543
ag544
ag545
ag546
ag547
ag548
ag549
ag550
ag551
ag552
ag553
ag554
ag555
ag556
ag557
ag558
ag559
ag560
ag561
ag562
ag563
ag564
ag565
ag566
ag567
ag568
ag569
ag570
ag571
ag572
ag573
ag574
ag575
ag576
ag577
ag578
ag579
ag580
ag581
ag582
ag583
ag584
ag585
ag586
ag587
ag588
ag589
ag590
ag591
ag592
ag593
ag594
ag595
ag596
ag597
ag598
ag599
ag600
ag601
ag602
ag603
ag604
ag605
ag606
ag607
ag608
ag609
ag610
ag611
ag612
ag613
ag614
ag615
ag616
ag617
ag618
ag619
ag620
ag621
ag622
ag623
ag624
ag625
ag626
ag627
ag628
ag629
ag630
ag631
ag632
ag633
ag634
ag840
ag841
ag842
ag843
ag844
ag845
ag846
ag847
ag848
ag849
ag850
ag851
ag852
ag853
ag854
ag855
ag856
ag857
ag858
ag859
ag860
ag861
ag862
ag863
ag864
ag865
ag866
ag867
ag868
ag869
ag870
ag871
ag872
ag873
ag874
ag875
ag876
ag877
ag878
ag879
ag880
ag881
ag882
ag883
ag884
ag885
ag886
ag887
ag888
ag889
ag890
ag891
ag892
ag893
ag894
ag895
ag896
ag897
ag898
ag899
ag900
ag901
ag902
ag903
ag904
ag905
ag906
ag907
ag908
ag909
ag910
ag911
ag912
ag913
ag914
ag915
ag916
ag917
ag918
ag919
ag920
ag921
ag922
ag923
ag924
ag925
ag926
ag927
ag928
ag929
ag930
ag931
ag932
ag933
ag934
ag935
ag936
ag937
ag938
ag939
ag940
ag941
ag942
ag943
ag944
ag945
ag946
ag947
ag948
ag949
ag950
ag951
ag952
ag953
ag954
ag955
ag956
ag957
ag958
ag959
ag960
ag961
ag962
ag963
ag964
ag965
ag966
ag967
ag968
ag969
ag970
ag971
ag972
ag973
ag974
ag975
ag976
ag977
ag978
ag979
ag980
ag981
ag982
ag983
ag984
ag985
ag986
ag987
ag988
ag989
ag990
ag991
ag992
ag993
ag994
ag995
ag996
ag997
ag998
ag999
ag1000
ag1001
ag1002
ag1003
ag1004
ag1005
ag1006
ag1007
ag1008
ag1009
ag1010
ag1011
ag1012
ag1013
ag1014
ag1015
ag1016
ag1017
ag1018
ag1019
ag1020
ag1021
ag1022
ag1023
ag1024
ag1025
ag1026
ag1027
ag1028
ag1029
ag1030
ag1031
ag1032
ag1033
ag1034
ag1035
ag1036
ag1037
ag1038
ag1039
ag1245
ag1246
ag1247
ag1248
ag1249
ag1250
ag1251
ag1252
ag1253
ag1254
ag1255
ag1256
ag1257
ag1258
ag1259
ag1260
ag1261
ag1262
ag1263
ag1264
ag1265
ag1266
ag1267
ag1268
ag1269
ag1270
ag1271
ag1272
ag1273
ag1274
ag1275
ag1276
ag1277
ag1278
ag1279
ag1280
ag1281
ag1282
ag1283
ag1284
ag1285
ag1286
ag1287
ag1288
ag1289
ag1290
ag30
ag31
ag55
ag56
ag57
ag91
ag92
ag93
ag94
ag95
ag131
ag132
ag133
ag134
ag135
ag169
ag170
ag171
ag172
ag173
ag200
ag201
ag202
ag203
ag204
ag245
ag246
ag247
ag248
ag249
ag250
ag251
ag252
ag253
ag254
ag255
ag256
ag257
ag258
ag259
ag260
ag261
ag262
ag263
ag264
ag265
ag266
ag267
ag268
ag269
ag350
ag351
ag352
ag353
ag354
ag355
ag356
ag357
ag358
ag359
ag360
ag361
ag362
ag363
ag364
ag365
ag366
ag367
ag368
ag369
ag370
ag371
ag372
ag373
ag374
ag455
ag456
ag457
ag458
ag459
ag460
ag461
ag462
ag463
ag464
ag465
ag466
ag467
ag468
ag469
ag470
ag471
ag472
ag473
ag474
ag475
ag476
ag477
ag478
ag479
ag635
ag636
ag32
ag33
ag58
ag59
ag60
ag34
ag35
ag61
ag62
ag63
ag96
ag97
ag98
ag99
ag100
ag136
ag137
ag138
ag139
ag140
ag174
ag175
ag36
ag37
ag64
ag65
ag66
ag101
ag102
ag103
ag104
ag105
ag141
ag142
ag143
ag144
ag145
ag176
ag177
ag178
ag179
ag180
ag205
ag206
ag207
ag208
ag209
ag270
ag271
ag272
ag273
ag274
ag275
ag276
ag277
ag278
ag279
ag280
ag281
ag282
ag283
ag284
ag285
ag286
ag287
ag288
ag289
ag290
ag291
ag292
ag293
ag294
ag375
ag376
ag377
ag378
ag379
ag380
ag381
ag382
ag383
ag384
ag385
ag386
ag387
ag388
ag389
ag390
ag391
ag392
ag393
ag394
ag395
ag396
ag397
ag398
ag399
ag480
ag481
ag482
ag483
ag484
ag485
ag486
ag487
ag488
ag489
ag490
ag491
ag492
ag493
ag494
ag495
ag496
ag497
ag498
ag499
ag500
ag501
ag502
ag503
ag504
ag637
ag638
ag639
ag640
ag641
ag642
ag643
ag644
ag645
ag646
ag647
ag648
ag649
ag650
ag651
ag652
ag653
ag654
ag655
ag656
ag657
ag658
ag659
ag660
ag661
ag662
ag663
ag664
ag665
ag666
ag667
ag668
ag669
ag670
ag671
ag672
ag673
ag674
ag675
ag676
ag677
ag678
ag679
ag680
ag681
ag682
ag683
ag684
ag685
ag686
ag687
ag688
ag689
ag690
ag691
ag692
ag693
ag694
ag695
ag696
ag697
ag698
ag699
ag700
ag701
ag702
ag703
ag704
ag705
ag706
ag707
ag708
ag709
ag710
ag711
ag712
ag713
ag714
ag715
ag716
ag717
ag718
ag719
ag720
ag721
ag722
ag723
ag724
ag725
ag726
ag727
ag728
ag729
ag730
ag731
ag732
ag733
ag734
ag38
ag39
ag67
ag68
ag69
ag40
ag41
ag70
ag71
ag72
ag106
ag107
ag108
ag109
ag110
ag146
ag147
ag148
ag42
ag43
ag73
ag74
ag75
ag111
ag112
ag113
ag114
ag115
ag149
ag150
ag151
ag152
ag153
ag181
ag182
ag183
ag184
ag185
ag210
ag211
ag212
ag213
ag214
ag295
ag296
ag297
ag298
ag299
ag300
ag301
ag302
ag303
ag304
ag305
ag306
ag307
ag308
ag309
ag310
ag311
ag312
ag313
ag314
ag315
ag316
ag317
ag318
ag319
ag400
ag401
ag402
ag403
ag404
ag405
ag406
ag407
ag408
ag409
ag410
ag411
ag412
ag413
ag414
ag415
ag416
ag417
ag418
ag419
ag420
ag421
ag422
ag423
ag424
ag505
ag506
ag507
ag508
ag509
ag510
ag511
ag512
ag513
ag514
ag515
ag516
ag517
ag518
ag519
ag520
ag521
ag522
ag523
ag524
ag525
ag526
ag527
ag528
ag529
ag735
ag736
ag737
ag738
ag739
ag740
ag741
ag742
ag743
ag744
ag745
ag746
ag747
ag748
ag749
ag750
ag751
ag752
ag753
ag754
ag755
ag756
ag757
ag758
ag759
ag760
ag761
ag762
ag763
ag764
ag765
ag766
ag767
ag768
ag769
ag770
ag771
ag772
ag773
ag774
ag775
ag776
ag777
ag778
ag779
ag780
ag781
ag782
ag783
ag784
ag785
ag786
ag787
ag788
ag789
ag790
ag791
ag792
ag793
ag794
ag795
ag796
ag797
ag798
ag799
ag800
ag801
ag802
ag803
ag804
ag805
ag806
ag807
ag808
ag809
ag810
ag811
ag812
ag813
ag814
ag815
ag816
ag817
ag818
ag819
ag820
ag821
ag822
ag823
ag824
ag825
ag826
ag827
ag828
ag829
ag830
ag831
ag832
ag833
ag834
ag1040
ag1041
ag1042
ag1043
ag1044
ag1045
ag1046
ag1047
ag1048
ag1049
ag1050
ag1051
ag1052
ag1053
ag1054
ag1055
ag1056
ag1057
ag1058
ag1059
ag1060
ag1061
ag1062
ag1063
ag1064
ag1065
ag1066
ag1067
ag1068
ag1069
ag1070
ag1071
ag1072
ag1073
ag1074
ag1075
ag1076
ag1077
ag1078
ag1079
ag1080
ag1081
ag1082
ag1083
ag1084
ag1085
ag1086
ag1087
ag1088
ag1089
ag1090
ag1091
ag1092
ag1093
ag1094
ag1095
ag1096
ag1097
ag1098
ag1099
ag1100
ag1101
ag1102
ag1103
ag1104
ag1105
ag1106
ag1107
ag1108
ag1109
ag1110
ag1111
ag1112
ag1113
ag1114
ag1115
ag1116
ag1117
ag1118
ag1119
ag1120
ag1121
ag1122
ag1123
ag1124
ag1125
ag1126
ag1127
ag1128
ag1129
ag1130
ag1131
ag1132
ag1133
ag1134
ag1135
ag1136
ag1137
ag1138
ag1139
ag1140
ag1141
ag1142
ag1143
ag1144
ag1145
ag1146
ag1147
ag1148
ag1149
ag1150
ag1151
ag1152
ag1153
ag1154
ag1155
ag1156
ag1157
ag1158
ag1159
ag1160
ag1161
ag1162
ag1163
ag1164
ag1165
ag1166
ag1167
ag1168
ag1169
ag1170
ag1171
ag1172
ag1173
ag1174
ag1175
ag1176
ag1177
ag1178
ag1179
ag1180
ag1181
ag1182
ag1183
ag1184
ag1185
ag1186
ag1187
ag1188
ag1189
ag1190
ag1191
ag1192
ag1193
ag1194
ag1195
ag1196
ag1197
ag1198
ag1199
ag1200
ag1201
ag1202
ag1203
ag1204
ag1205
ag1206
ag1207
ag1208
ag1209
ag1210
ag1211
ag1212
ag1213
ag1214
ag1215
ag1216
ag1217
ag1218
ag1219
ag1220
ag1221
ag1222
ag1223
ag1224
ag1225
ag1226
ag1227
ag1228
ag1229
ag1230
ag1231
ag1232
ag1233
ag1234
ag1235
ag1236
ag1237
ag1238
ag1239
ag1291
ag1292
ag1293
ag1294
ag1295
ag1296
ag1297
ag1298
ag1299
ag1300
ag1301
ag1302
ag1303
ag1304
ag1305
ag1306
ag1307
ag1308
ag1309
ag1310
ag1311
ag1312
ag1313
ag1314
ag1315
ag1316
ag1317
ag1318
ag1319
ag1320
ag1321
ag1322
ag1323
ag1324
ag1325
ag1326
ag1327
ag1328
ag1329
ag1330
ag1331
ag1332
ag1333
ag1334
ag1335
ag1336
ag1337
ag1338
ag1339
ag1340
ag1341
ag1342
ag1343
ag1344
asa(dp1350
g13
(g14
(g16
S'\x00\x00\x00\x00\x00\x00\x00\x00'
tRp1351
g18
(g19
(I0
tS'b'
tRp1352
(I1
(I4
tg21
I00
S'"\xc0\x94\xbf\xb4\xcb6@c\xf1<#\xc5!7@\xc9L\xbc\x13\xb2\x7f7@\xed\xddI\xc1\xbd\x157@'
tbtp1353
sS'n'
I1500
sg23
I1264
sg24
(lp1354
g26
ag27
ag49
ag50
ag51
ag81
ag82
ag83
ag84
ag85
ag121
ag122
ag123
ag124
ag125
ag159
ag160
ag161
ag162
ag163
ag191
ag192
ag193
ag194
ag28
ag29
ag52
ag53
ag54
ag86
ag87
ag88
ag89
ag90
ag126
ag127
ag128
ag129
ag130
ag164
ag165
ag166
ag167
ag168
ag195
ag196
ag197
ag198
ag199
ag220
ag221
ag222
ag223
ag224
ag225
ag226
ag227
ag228
ag229
ag230
ag231
ag232
ag233
ag234
ag235
ag236
ag237
ag238
ag239
ag240
ag241
ag242
ag243
ag244
ag325
ag326
ag327
ag328
ag329
ag330
ag331
ag332
ag333
ag334
ag335
ag336
ag337
ag338
ag339
ag340
ag341
ag342
ag343
ag344
ag345
ag346
ag347
ag348
ag349
ag430
ag431
ag432
ag433
ag434
ag435
ag436
ag437
ag438
ag439
ag440
ag441
ag442
ag443
ag444
ag445
ag446
ag447
ag448
ag449
ag450
ag451
ag452
ag453
ag454
ag535
ag536
ag537
ag538
ag539
ag540
ag541
ag542
ag543
ag544
ag545
ag546
ag547
ag548
ag549
ag550
ag551
ag552
ag553
ag554
ag555
ag556
ag557
ag558
ag559
ag560
ag561
ag562
ag563
ag564
ag565
ag566
ag567
ag568
ag569
ag570
ag571
ag572
ag573
ag574
ag575
ag576
ag577
ag578
ag579
ag580
ag581
ag582
ag583
ag584
ag585
ag586
ag587
ag588
ag589
ag590
ag591
ag592
ag593
ag594
ag595
ag596
ag597
ag598
ag599
ag600
ag601
ag602
ag603
ag604
ag605
ag606
ag607
ag608
ag609
ag610
ag611
ag612
ag613
ag614
ag615
ag616
ag617
ag618
ag619
ag620
ag621
ag622
ag623
ag624
ag625
ag626
ag627
ag628
ag629
ag630
ag631
ag632
ag633
ag634
ag840
ag841
ag842
ag843
ag844
ag845
ag846
ag847
ag848
ag849
ag850
ag851
ag852
ag853
ag854
ag855
ag856
ag857
ag858
ag859
ag860
ag861
ag862
ag863
ag864
ag865
ag866
ag867
ag868
ag869
ag870
ag871
ag872
ag873
ag874
ag875
ag876
ag877
ag878
ag879
ag880
ag881
ag882
ag883
ag884
ag885
ag886
ag887
ag888
ag889
ag890
ag891
ag892
ag893
ag894
ag895
ag896
ag897
ag898
ag899
ag900
ag901
ag902
ag903
ag904
ag905
ag906
ag907
ag908
ag909
ag910
ag911
ag912
ag913
ag914
ag915
ag916
ag917
ag918
ag919
ag920
ag921
ag922
ag923
ag924
ag925
ag926
ag927
ag928
ag929
ag930
ag931
ag932
ag933
ag934
ag935
ag936
ag937
ag938
ag939
ag940
ag941
ag942
ag943
ag944
ag945
ag946
ag947
ag948
ag949
ag950
ag951
ag952
ag953
ag954
ag955
ag956
ag957
ag958
ag959
ag960
ag961
ag962
ag963
ag964
ag965
ag966
ag967
ag968
ag969
ag970
ag971
ag972
ag973
ag974
ag975
ag976
ag977
ag978
ag979
ag980
ag981
ag982
ag983
ag984
ag985
ag986
ag987
ag988
ag989
ag990
ag991
ag992
ag993
ag994
ag995
ag996
ag997
ag998
ag999
ag1000
ag1001
ag1002
ag1003
ag1004
ag1005
ag1006
ag1007
ag1008
ag1009
ag1010
ag1011
ag1012
ag1013
ag1014
ag1015
ag1016
ag1017
ag1018
ag1019
ag1020
ag1021
ag1022
ag1023
ag1024
ag1025
ag1026
ag1027
ag1028
ag1029
ag1030
ag1031
ag1032
ag1033
ag1034
ag1035
ag1036
ag1037
ag1038
ag1039
ag1245
ag1246
ag1247
ag1248
ag1249
ag1250
ag1251
ag1252
ag1253
ag1254
ag1255
ag1256
ag1257
ag1258
ag1259
ag1260
ag1261
ag1262
ag1263
ag1264
ag1265
ag1266
ag1267
ag1268
ag1269
ag1270
ag1271
ag1272
ag1273
ag1274
ag1275
ag1276
ag1277
ag1278
ag1279
ag1280
ag1281
ag1282
ag1283
ag1284
ag1285
ag1286
ag1287
ag1288
ag1289
ag1290
ag30
ag31
ag55
ag56
ag57
ag91
ag92
ag93
ag94
ag95
ag131
ag132
ag133
ag134
ag135
ag169
ag170
ag171
ag172
ag173
ag200
ag201
ag202
ag203
ag204
ag245
ag246
ag247
ag248
ag249
ag250
ag251
ag252
ag253
ag254
ag255
ag256
ag257
ag258
ag259
ag260
ag261
ag262
ag263
ag264
ag265
ag266
ag267
ag268
ag269
ag350
ag351
ag352
ag353
ag354
ag355
ag356
ag357
ag358
ag359
ag360
ag361
ag362
ag363
ag364
ag365
ag366
ag367
ag368
ag369
ag370
ag371
ag372
ag373
ag374
ag455
ag456
ag457
ag458
ag459
ag460
ag461
ag462
ag463
ag464
ag465
ag466
ag467
ag468
ag469
ag470
ag471
ag472
ag473
ag474
ag475
ag476
ag477
ag478
ag479
ag635
ag636
ag32
ag33
ag58
ag59
ag60
ag34
ag35
ag61
ag62
ag63
ag96
ag97
ag98
ag99
ag100
ag136
ag137
ag138
ag139
ag140
ag174
ag175
ag36
ag37
ag64
ag65
ag66
ag101
ag102
ag103
ag104
ag105
ag141
ag142
ag143
ag144
ag145
ag176
ag177
ag178
ag179
ag180
ag205
ag206
ag207
ag208
ag209
ag270
ag271
ag272
ag273
ag274
ag275
ag276
ag277
ag278
ag279
ag280
ag281
ag282
ag283
ag284
ag285
ag286
ag287
ag288
ag289
ag290
ag291
ag292
ag293
ag294
ag375
ag376
ag377
ag378
ag379
ag380
ag381
ag382
ag383
ag384
ag385
ag386
ag387
ag388
ag389
ag390
ag391
ag392
ag393
ag394
ag395
ag396
ag397
ag398
ag399
ag480
ag481
ag482
ag483
ag484
ag485
ag486
ag487
ag488
ag489
ag490
ag491
ag492
ag493
ag494
ag495
ag496
ag497
ag498
ag499
ag500
ag501
ag502
ag503
ag504
ag637
ag638
ag639
ag640
ag641
ag642
ag643
ag644
ag645
ag646
ag647
ag648
ag649
ag650
ag651
ag652
ag653
ag654
ag655
ag656
ag657
ag658
ag659
ag660
ag661
ag662
ag663
ag664
ag665
ag666
ag667
ag668
ag669
ag670
ag671
ag672
ag673
ag674
ag675
ag676
ag677
ag678
ag679
ag680
ag681
ag682
ag683
ag684
ag685
ag686
ag687
ag688
ag689
ag690
ag691
ag692
ag693
ag694
ag695
ag696
ag697
ag698
ag699
ag700
ag701
ag702
ag703
ag704
ag705
ag706
ag707
ag708
ag709
ag710
ag711
ag712
ag713
ag714
ag715
ag716
ag717
ag718
ag719
ag720
ag721
ag722
ag723
ag724
ag725
ag726
ag727
ag728
ag729
ag730
ag731
ag732
ag733
ag734
ag38
ag39
ag67
ag68
ag69
ag40
ag41
ag70
ag71
ag72
ag106
ag107
ag108
ag109
ag110
ag146
ag147
ag148
ag42
ag43
ag73
ag74
ag75
ag111
ag112
ag113
ag114
ag115
ag149
ag150
ag151
ag152
ag153
ag181
ag182
ag183
ag184
ag185
ag210
ag211
ag212
ag213
ag214
ag295
ag296
ag297
ag298
ag299
ag300
ag301
ag302
ag303
ag304
ag305
ag306
ag307
ag308
ag309
ag310
ag311
ag312
ag313
ag314
ag315
ag316
ag317
ag318
ag319
ag400
ag401
ag402
ag403
ag404
ag405
ag406
ag407
ag408
ag409
ag410
ag411
ag412
ag413
ag414
ag415
ag416
ag417
ag418
ag419
ag420
ag421
ag422
ag423
ag424
ag505
ag506
ag507
ag508
ag509
ag510
ag511
ag512
ag513
ag514
ag515
ag516
ag517
ag518
ag519
ag520
ag521
ag522
ag523
ag524
ag525
ag526
ag527
ag528
ag529
ag735
ag736
ag737
ag738
ag739
ag740
ag741
ag742
ag743
ag744
ag745
ag746
ag747
ag748
ag749
ag750
ag751
ag752
ag753
ag754
ag755
ag756
ag757
ag758
ag759
ag760
ag761
ag762
ag763
ag764
ag765
ag766
ag767
ag768
ag769
ag770
ag771
ag772
ag773
ag774
ag775
ag776
ag777
ag778
ag779
ag780
ag781
ag782
ag783
ag784
ag785
ag786
ag787
ag788
ag789
ag790
ag791
ag792
ag793
ag794
ag795
ag796
ag797
ag798
ag799
ag800
ag801
ag802
ag803
ag804
ag805
ag806
ag807
ag808
ag809
ag810
ag811
ag812
ag813
ag814
ag815
ag816
ag817
ag818
ag819
ag820
ag821
ag822
ag823
ag824
ag825
ag826
ag827
ag828
ag829
ag830
ag831
ag832
ag833
ag834
ag1040
ag1041
ag1042
ag1043
ag1044
ag1045
ag1046
ag1047
ag1048
ag1049
ag1050
ag1051
ag1052
ag1053
ag1054
ag1055
ag1056
ag1057
ag1058
ag1059
ag1060
ag1061
ag1062
ag1063
ag1064
ag1065
ag1066
ag1067
ag1068
ag1069
ag1070
ag1071
ag1072
ag1073
ag1074
ag1075
ag1076
ag1077
ag1078
ag1079
ag1080
ag1081
ag1082
ag1083
ag1084
ag1085
ag1086
ag1087
ag1088
ag1089
ag1090
ag1091
ag1092
ag1093
ag1094
ag1095
ag1096
ag1097
ag1098
ag1099
ag1100
ag1101
ag1102
ag1103
ag1104
ag1105
ag1106
ag1107
ag1108
ag1109
ag1110
ag1111
ag1112
ag1113
ag1114
ag1115
ag1116
ag1117
ag1118
ag1119
ag1120
ag1121
ag1122
ag1123
ag1124
ag1125
ag1126
ag1127
ag1128
ag1129
ag1130
ag1131
ag1132
ag1133
ag1134
ag1135
ag1136
ag1137
ag1138
ag1139
ag1140
ag1141
ag1142
ag1143
ag1144
ag1145
ag1146
ag1147
ag1148
ag1149
ag1150
ag1151
ag1152
ag1153
ag1154
ag1155
ag1156
ag1157
ag1158
ag1159
ag1160
ag1161
ag1162
ag1163
ag1164
ag1165
ag1166
ag1167
ag1168
ag1169
ag1170
ag1171
ag1172
ag1173
ag1174
ag1175
ag1176
ag1177
ag1178
ag1179
ag1180
ag1181
ag1182
ag1183
ag1184
ag1185
ag1186
ag1187
ag1188
ag1189
ag1190
ag1191
ag1192
ag1193
ag1194
ag1195
ag1196
ag1197
ag1198
ag1199
ag1200
ag1201
ag1202
ag1203
ag1204
ag1205
ag1206
ag1207
ag1208
ag1209
ag1210
ag1211
ag1212
ag1213
ag1214
ag1215
ag1216
ag1217
ag1218
ag1219
ag1220
ag1221
ag1222
ag1223
ag1224
ag1225
ag1226
ag1227
ag1228
ag1229
ag1230
ag1231
ag1232
ag1233
ag1234
ag1235
ag1236
ag1237
ag1238
ag1239
ag1291
ag1292
ag1293
ag1294
ag1295
ag1296
ag1297
ag1298
ag1299
ag1300
ag1301
ag1302
ag1303
ag1304
ag1305
ag1306
ag1307
ag1308
ag1309
ag1310
ag1311
ag1312
ag1313
ag1314
ag1315
ag1316
ag1317
ag1318
ag1319
ag1320
ag1321
ag1322
ag1323
ag1324
ag1325
ag1326
ag1327
ag1328
ag1329
ag1330
ag1331
ag1332
ag1333
ag1334
ag1335
ag1336
ag1337
ag1338
ag1339
ag1340
ag1341
ag1342
ag1343
ag1344
asasS'summary'
p1355
S'Degree-based weights and average-median qa weights'
p1356
sS'trials'
p1357
(lp1358
I2
aI5
aI10
aI15
aI20
aI25
aI50
aI75
aI100
aI200
aI400
aI700
aI1000
aI1500
asS'q_text_entities'
p1359
(lp1360
S'essential hypertension'
p1361
aS'hypertension'
p1362
aS'congestive heart failure'
p1363
aS'type i diabetes'
p1364
aS'insulin-dependent'
p1365
aS'diabetes'
p1366
aS'coronary vascular disease'
p1367
aS'hyperlipidemia'
p1368
aS'antihypertensive'
p1369
asS'weights'
p1370
S'deg_weight'
p1371
sS'graph'
p1372
S'drugbank-ext-v2.graphml'
p1373
sS'date'
p1374
S'2014/07/16 02:14'
p1375
sS'correct'
p1376
I1
sS'ans_text_entities'
p1377
(lp1378
(lp1379
S'chlorothiazide'
p1380
aa(lp1381
S'captopril'
p1382
aa(lp1383
S'propranolol'
p1384
aa(lp1385
S'metoprolol'
p1386
aas.