(dp1
S'expid'
p2
S'e3-q4'
p3
sS'description'
p4
S"\n        The four multiple choice answers are all medicines that are all present in Drugbank. \n        They can be found using `qa.find_drugbank_entity`. \n        The question text, on the other hand, does not contain entities in Drugbank. \n        However, some entities might have entities from the question text in their description. \n        So we try to identify relevant drugbank entities by doing a full-text search over drugbank \n        (using Virtuoso's built-in Precision Search). \n        Clearly, this representation is not perfect: if we select only a few entities, \n        which are actually unrelated, a good result seems implausible. \n        So we examine this: **what is the (very rough) effect of the number of \n        entities we pick from the ranked full-text search results?**\n        "
p5
sS'qid'
p6
S'Q16#34'
p7
sS'qa_dist_fn'
p8
S'avg_med_qa_dist'
p9
sS'results'
p10
(lp11
(dp12
S'output'
p13
(cnumpy.core.multiarray
scalar
p14
(cnumpy
dtype
p15
(S'i8'
I0
I1
tRp16
(I3
S'<'
NNNI-1
I-1
I0
tbS'\x00\x00\x00\x00\x00\x00\x00\x00'
tRp17
cnumpy.core.multiarray
_reconstruct
p18
(cnumpy
ndarray
p19
(I0
tS'b'
tRp20
(I1
(I4
tg15
(S'f8'
I0
I1
tRp21
(I3
S'<'
NNNI-1
I-1
I0
tbI00
S'\xab\xab\xe3C|\xbe5@\x01\x97\xd4\x92$?6@\x0f@\xe1V"\xf3:@\xaf\xbb\x02gHj6@'
tbtp22
sS'n'
I2
sS'q_len'
p23
I12
sS'q_entities'
p24
(lp25
S'<http://bio2rdf.org/drugbank:DB00571>'
p26
aS'<http://bio2rdf.org/drugbank_resource:420b301984644b9271c0f973597e2208>'
p27
aS'<http://bio2rdf.org/drugbank_resource:8cce2025a325cc6eb4c322b91c975ba4>'
p28
aS'<http://bio2rdf.org/drugbank_resource:3c899fddfe6cf73c34f7e8663b560148>'
p29
aS'<http://bio2rdf.org/drugbank_resource:18911a83eecb849edc7a5c74b1c6ccf7>'
p30
aS'<http://bio2rdf.org/drugbank_resource:3b4729506e67c07c6035b5674515e18c>'
p31
aS'<http://bio2rdf.org/drugbank_resource:DB00273_DB00880>'
p32
aS'<http://bio2rdf.org/drugbank_resource:DB00273_DB00880>'
p33
aS'<http://bio2rdf.org/drugbank_resource:626c7788bf1817fc2c79d0228127ee3f>'
p34
aS'<http://bio2rdf.org/drugbank_resource:d8948c3f491ce8e8657de40075d2102e>'
p35
aS'<http://bio2rdf.org/drugbank:DB04855>'
p36
aS'<http://bio2rdf.org/drugbank:DB01118>'
p37
asa(dp38
g13
(g14
(g16
S'\x00\x00\x00\x00\x00\x00\x00\x00'
tRp39
g18
(g19
(I0
tS'b'
tRp40
(I1
(I4
tg21
I00
S'6\x04\xa4\x94\x9c\xe06@~\x8a\xb5\xa7*\x077@\x84\xfd\x9c_+q;@E9\x80\xc4\x81+7@'
tbtp41
sS'n'
I5
sg23
I27
sg24
(lp42
g26
ag27
aS'<http://bio2rdf.org/drugbank_resource:e2dfc8181352c7f0bfa00af5e6c40026>'
p43
aS'<http://bio2rdf.org/drugbank_resource:1d690b77d2cd43ab46e57cbfb9a0e392>'
p44
aS'<http://bio2rdf.org/drugbank_resource:2363407ca43110a9b5db3e47b772975d>'
p45
ag28
ag29
aS'<http://bio2rdf.org/drugbank_resource:28941561f1399f3b7ec95f593391d6ee>'
p46
aS'<http://bio2rdf.org/drugbank_resource:e64fbc256aca2659db44b4c59a98e8cc>'
p47
aS'<http://bio2rdf.org/drugbank_resource:bd57559063a98b7505382df68ce485c3>'
p48
ag30
ag31
aS'<http://bio2rdf.org/drugbank_resource:534ccc3eb1af0059b91a4289be843bf1>'
p49
aS'<http://bio2rdf.org/drugbank:DB00715>'
p50
aS'<http://bio2rdf.org/drugbank:DB00215>'
p51
ag32
ag33
ag34
ag35
aS'<http://bio2rdf.org/drugbank_resource:32b1f6e9ea7eb393ad086241bd5dbd0b>'
p52
aS'<http://bio2rdf.org/drugbank_resource:DB00196_DB00540>'
p53
aS'<http://bio2rdf.org/drugbank_resource:DB00196_DB00458>'
p54
ag36
ag37
aS'<http://bio2rdf.org/drugbank_resource:10ddc1e1482b23b22c9a49c834de2370>'
p55
aS'<http://bio2rdf.org/drugbank_resource:f077e3ad61bd432983801ee9eaaedf61>'
p56
aS'<http://bio2rdf.org/drugbank_resource:4fec7ab4cb8ae61ee4a592473ae7bacf>'
p57
asa(dp58
g13
(g14
(g16
S'\x01\x00\x00\x00\x00\x00\x00\x00'
tRp59
g18
(g19
(I0
tS'b'
tRp60
(I1
(I4
tg21
I00
S'\x88\x05R\xbd\x90\x957@\\\xa0\xeeM\x1d\xe96@I\xe8\x0c1\x03\x96:@\x0e\xa2!\x88\x98s7@'
tbtp61
sS'n'
I10
sg23
I52
sg24
(lp62
g26
ag27
ag43
ag44
ag45
aS'<http://bio2rdf.org/drugbank:DB00678>'
p63
aS'<http://bio2rdf.org/drugbank_resource:cf49f0d9fa451f599bee3fefb461100a>'
p64
aS'<http://bio2rdf.org/drugbank_resource:f5e17360599a5c08dd39d38be9bde32e>'
p65
aS'<http://bio2rdf.org/drugbank_resource:1d94608c38fa9ab6356b35192d66c4af>'
p66
aS'<http://bio2rdf.org/drugbank_resource:475ef43c1d42bec5ee3c0a0d7204bf9f>'
p67
ag28
ag29
ag46
ag47
ag48
aS'<http://bio2rdf.org/drugbank_resource:c26a4d11bd9c6f034985346903014e40>'
p68
aS'<http://bio2rdf.org/drugbank_resource:d3c340965bcc695f7b03462ea67d07f6>'
p69
aS'<http://bio2rdf.org/drugbank_resource:27fc185e756c18676e3b9a0d17cd619c>'
p70
aS'<http://bio2rdf.org/drugbank_resource:85a6cc4d3220ff37ddd45a2d26fb7e52>'
p71
aS'<http://bio2rdf.org/drugbank_resource:857f8bab39567293b8b6b46a2f42b3e5>'
p72
ag30
ag31
ag49
ag50
ag51
aS'<http://bio2rdf.org/drugbank_resource:bbe243bdcfe1a07ebcae9963007e2973>'
p73
aS'<http://bio2rdf.org/drugbank_resource:b943b3cfb3c08536fad6a77bc7296204>'
p74
aS'<http://bio2rdf.org/drugbank_resource:6ff0d71cfbf9a325f1dfda585bd00249>'
p75
aS'<http://bio2rdf.org/drugbank_resource:0862d14811b2e2bd1b70435fcb57c736>'
p76
aS'<http://bio2rdf.org/drugbank_resource:b24d03ddd3c2a26e86e0c4b74fc677bd>'
p77
ag32
ag33
ag34
ag35
ag52
ag53
ag54
aS'<http://bio2rdf.org/drugbank_resource:DB00196_DB00321>'
p78
aS'<http://bio2rdf.org/drugbank_resource:DB00321_DB00908>'
p79
aS'<http://bio2rdf.org/drugbank_resource:DB00344_DB00908>'
p80
aS'<http://bio2rdf.org/drugbank_resource:DB00458_DB00908>'
p81
aS'<http://bio2rdf.org/drugbank_resource:DB00540_DB00908>'
p82
ag36
ag37
ag55
ag56
ag57
aS'<http://bio2rdf.org/drugbank_resource:857f8bab39567293b8b6b46a2f42b3e5>'
p83
aS'<http://bio2rdf.org/drugbank_resource:ffb8bea004e47124337147eea0eecee5>'
p84
aS'<http://bio2rdf.org/drugbank_resource:5240879956a9587feaaccebe1c6e099d>'
p85
aS'<http://bio2rdf.org/drugbank_resource:e93b8f5466cf3e6ca7fe27a50d2dd0e3>'
p86
aS'<http://bio2rdf.org/drugbank_resource:c1e31b3d0cf99254432addfb1efd53cc>'
p87
asa(dp88
g13
(g14
(g16
S'\x01\x00\x00\x00\x00\x00\x00\x00'
tRp89
g18
(g19
(I0
tS'b'
tRp90
(I1
(I4
tg21
I00
S'\x00\xa9\xac\x93 \xcd7@\xd0\xd9\xb3\x85\xab\xd76@\xf1\x0c\x04\x9f\xaaj:@L\xa8\t\x17Ar7@'
tbtp91
sS'n'
I15
sg23
I77
sg24
(lp92
g26
ag27
ag43
ag44
ag45
ag63
ag64
ag65
ag66
ag67
aS'<http://bio2rdf.org/drugbank_resource:6369e6aaa9c32dc1155b5924fd3d9cd8>'
p93
aS'<http://bio2rdf.org/drugbank_resource:f7bdf03e1795f82d85f0fc4bc3ca229a>'
p94
aS'<http://bio2rdf.org/drugbank_resource:93377b9ede2237a78b18bc1989d2de95>'
p95
aS'<http://bio2rdf.org/drugbank_resource:a8757fceadbb9d9431626a28c7b34bb9>'
p96
aS'<http://bio2rdf.org/drugbank_resource:b7d53acb8e800b1db7038764f4b8d1c9>'
p97
ag28
ag29
ag46
ag47
ag48
ag68
ag69
ag70
ag71
ag72
aS'<http://bio2rdf.org/drugbank_resource:3d068c46fb31ae51ea838b652b44677f>'
p98
aS'<http://bio2rdf.org/drugbank_resource:ea7381a1defd46d3989ce751a0296542>'
p99
aS'<http://bio2rdf.org/drugbank_resource:94ba43f67e06be0d8e77a2394538d653>'
p100
aS'<http://bio2rdf.org/drugbank_resource:f6a9507e18fc04eb66686af602be66f5>'
p101
aS'<http://bio2rdf.org/drugbank_resource:0ff9ac8c705117d0e6520b3104e633e5>'
p102
ag30
ag31
ag49
ag50
ag51
ag73
ag74
ag75
ag76
ag77
aS'<http://bio2rdf.org/drugbank_resource:62e7a835c7949e541d3e4404848a48dc>'
p103
aS'<http://bio2rdf.org/drugbank_resource:84faefffc45e4ceae0fa7661850bed80>'
p104
aS'<http://bio2rdf.org/drugbank_resource:9f2c4d236b469274dfa0e3b18e705364>'
p105
aS'<http://bio2rdf.org/drugbank_resource:09f3b7f7f42d0604dfd805440100a32f>'
p106
aS'<http://bio2rdf.org/drugbank_resource:8b8a12a2d35c66d3704b6759c852b795>'
p107
ag32
ag33
ag34
ag35
ag52
ag53
ag54
ag78
ag79
ag80
ag81
ag82
aS'<http://bio2rdf.org/drugbank_resource:DB00908_DB01242>'
p108
aS'<http://bio2rdf.org/drugbank_resource:DB00908_DB01151>'
p109
aS'<http://bio2rdf.org/drugbank_resource:DB00908_DB01142>'
p110
aS'<http://bio2rdf.org/drugbank_resource:DB00196_DB00321>'
p111
aS'<http://bio2rdf.org/drugbank_resource:DB00196_DB00540>'
p112
ag36
ag37
ag55
ag56
ag57
ag83
ag84
ag85
ag86
ag87
aS'<http://bio2rdf.org/drugbank_resource:cce9070cc6bdb06d2a26cb58f46d746f>'
p113
aS'<http://bio2rdf.org/drugbank_resource:0ff9ac8c705117d0e6520b3104e633e5>'
p114
aS'<http://bio2rdf.org/drugbank_resource:2132bdbaa4573be8af1fda886b56952d>'
p115
aS'<http://bio2rdf.org/drugbank_resource:ce70b30430888e3a78ce037e81004a33>'
p116
aS'<http://bio2rdf.org/drugbank_resource:8cc11771ae545baae4086fd898dce939>'
p117
asa(dp118
g13
(g14
(g16
S'\x01\x00\x00\x00\x00\x00\x00\x00'
tRp119
g18
(g19
(I0
tS'b'
tRp120
(I1
(I4
tg21
I00
S'9\x9e\x80;j\x947@v6\xeeU\x16\xeb6@\x9a\xc7\xc9<\x07\xbc:@.d\x8aS\x0bf7@'
tbtp121
sS'n'
I20
sg23
I102
sg24
(lp122
g26
ag27
ag43
ag44
ag45
ag63
ag64
ag65
ag66
ag67
ag93
ag94
ag95
ag96
ag97
aS'<http://bio2rdf.org/drugbank_resource:c0a2ffa1e56a1691a0624276f8314c10>'
p123
aS'<http://bio2rdf.org/drugbank:DB04929>'
p124
aS'<http://bio2rdf.org/drugbank_resource:bcd970fd0df9056582b775a3434b68d5>'
p125
aS'<http://bio2rdf.org/drugbank_resource:a31807b7c99dcaf845a5ef4d112b47e5>'
p126
aS'<http://bio2rdf.org/drugbank_resource:2d1f5d18a46acb849c35a1605acebaa2>'
p127
ag28
ag29
ag46
ag47
ag48
ag68
ag69
ag70
ag71
ag72
ag98
ag99
ag100
ag101
ag102
aS'<http://bio2rdf.org/drugbank:DB01158>'
p128
aS'<http://bio2rdf.org/drugbank_resource:191aa8a24556d86f401d1673dd1b7c5b>'
p129
aS'<http://bio2rdf.org/drugbank_resource:e52bc924f37fe6a62dd8fdbf7db77db7>'
p130
aS'<http://bio2rdf.org/drugbank_resource:f8257af4b21d606f156dde65385499af>'
p131
aS'<http://bio2rdf.org/drugbank_resource:295a1cf6dbff6f01d3d454a5382e0340>'
p132
ag30
ag31
ag49
ag50
ag51
ag73
ag74
ag75
ag76
ag77
ag103
ag104
ag105
ag106
ag107
aS'<http://bio2rdf.org/drugbank_resource:681f857c9fb725ad6d6b8193c7777098>'
p133
aS'<http://bio2rdf.org/drugbank_resource:45eff2c8ffab44262f546bc30ec6ec86>'
p134
aS'<http://bio2rdf.org/drugbank_resource:5ba0e98b8aad0c8f7784c5e26a0639d6>'
p135
aS'<http://bio2rdf.org/drugbank_resource:05a2eeb0247f8604829bd9c28bfc9dca>'
p136
aS'<http://bio2rdf.org/drugbank_resource:50a138500dbd05c396c2328a1ea691aa>'
p137
ag32
ag33
ag34
ag35
ag52
ag53
ag54
ag78
ag79
ag80
ag81
ag82
ag108
ag109
ag110
ag111
ag112
aS'<http://bio2rdf.org/drugbank_resource:DB00196_DB00458>'
p138
aS'<http://bio2rdf.org/drugbank_resource:DB00344_DB00908>'
p139
aS'<http://bio2rdf.org/drugbank_resource:DB00321_DB00908>'
p140
aS'<http://bio2rdf.org/drugbank_resource:DB00458_DB00908>'
p141
aS'<http://bio2rdf.org/drugbank_resource:DB00540_DB00908>'
p142
ag36
ag37
ag55
ag56
ag57
ag83
ag84
ag85
ag86
ag87
ag113
ag114
ag115
ag116
ag117
aS'<http://bio2rdf.org/drugbank:DB06727>'
p143
aS'<http://bio2rdf.org/drugbank_resource:5b2900cd338c3be40e655caa9786f6fb>'
p144
aS'<http://bio2rdf.org/drugbank_resource:ea5b5fe2bda42bbab97742a2f4d8e2c9>'
p145
aS'<http://bio2rdf.org/drugbank_resource:f7f9bed6ff35367e627212e0894ee6e5>'
p146
aS'<http://bio2rdf.org/drugbank_resource:7259d57d3372ca7de672545dacf34c01>'
p147
asa(dp148
g13
(g14
(g16
S'\x01\x00\x00\x00\x00\x00\x00\x00'
tRp149
g18
(g19
(I0
tS'b'
tRp150
(I1
(I4
tg21
I00
S'T_\x17\xf1j\x887@r\x926\xf8\xf4\r7@\x91\x94s\x8d\xf0\xe0:@]\x8c\xfc\xbe\x93}7@'
tbtp151
sS'n'
I25
sg23
I125
sg24
(lp152
g26
ag27
ag43
ag44
ag45
ag63
ag64
ag65
ag66
ag67
ag93
ag94
ag95
ag96
ag97
ag123
ag124
ag125
ag126
ag127
aS'<http://bio2rdf.org/drugbank_resource:70efbe352464e8da8e1491ebc496c548>'
p153
aS'<http://bio2rdf.org/drugbank_resource:f815e460fb0f3e6ffb1badc70cda0e30>'
p154
aS'<http://bio2rdf.org/drugbank_resource:c191fafa64f392f76aded41c07c060c3>'
p155
aS'<http://bio2rdf.org/drugbank_resource:b6a58248e2d7fb0035e1c03f6f55def8>'
p156
aS'<http://bio2rdf.org/drugbank_resource:3068f6dae1b19d629d66afcbe9ab52e9>'
p157
ag28
ag29
ag46
ag47
ag48
ag68
ag69
ag70
ag71
ag72
ag98
ag99
ag100
ag101
ag102
ag128
ag129
ag130
ag131
ag132
aS'<http://bio2rdf.org/drugbank_resource:41d3a16b0291199b4a31eda333d2c277>'
p158
aS'<http://bio2rdf.org/drugbank_resource:23f8e1e2ba370c553e6fee9846201fff>'
p159
aS'<http://bio2rdf.org/drugbank_resource:2d35bd3eb72bf5a00af411e6cc8d6379>'
p160
aS'<http://bio2rdf.org/drugbank_resource:da949f9f56423c3457e0588463fafabf>'
p161
aS'<http://bio2rdf.org/drugbank_resource:DB00215_DB06414>'
p162
ag30
ag31
ag49
ag50
ag51
ag73
ag74
ag75
ag76
ag77
ag103
ag104
ag105
ag106
ag107
ag133
ag134
ag135
ag136
ag137
aS'<http://bio2rdf.org/drugbank_resource:ddfd652701b8da65022570cd4afd8908>'
p163
aS'<http://bio2rdf.org/drugbank_resource:8138ddaca8a920ea78236707141d3e48>'
p164
aS'<http://bio2rdf.org/drugbank_resource:65dcc740a34f7b16ee46788c18450984>'
p165
aS'<http://bio2rdf.org/drugbank_resource:29f0c575b36e293c8fae63958dbb6c9d>'
p166
aS'<http://bio2rdf.org/drugbank_resource:dd3aeccb97b5c53bf7c3bca16b7cd8fa>'
p167
ag32
ag33
ag34
ag35
ag52
ag53
ag54
ag78
ag79
ag80
ag81
ag82
ag108
ag109
ag110
ag111
ag112
ag138
ag139
ag140
ag141
ag142
aS'<http://bio2rdf.org/drugbank_resource:DB00908_DB01151>'
p168
aS'<http://bio2rdf.org/drugbank_resource:DB00908_DB01242>'
p169
aS'<http://bio2rdf.org/drugbank_resource:DB00908_DB01142>'
p170
ag36
ag37
ag55
ag56
ag57
ag83
ag84
ag85
ag86
ag87
ag113
ag114
ag115
ag116
ag117
ag143
ag144
ag145
ag146
ag147
aS'<http://bio2rdf.org/drugbank:DB00192>'
p171
aS'<http://bio2rdf.org/drugbank_resource:0d2a144b4e742ab6678723b6af908a07>'
p172
aS'<http://bio2rdf.org/drugbank_resource:9b1574c9c7a6e4a666fdd4b546d49f5a>'
p173
aS'<http://bio2rdf.org/drugbank_resource:d3c340965bcc695f7b03462ea67d07f6>'
p174
aS'<http://bio2rdf.org/drugbank_resource:10d976cc62c827dce11780fbb415a772>'
p175
asa(dp176
g13
(g14
(g16
S'\x01\x00\x00\x00\x00\x00\x00\x00'
tRp177
g18
(g19
(I0
tS'b'
tRp178
(I1
(I4
tg21
I00
S'\x92#\xb0\x9a\x15\x9a7@\xef8\xf3\x87V\x0c7@\xb9\x9f\r:]\x12;@\xf8\x86\x9d\xcc$}7@'
tbtp179
sS'n'
I50
sg23
I201
sg24
(lp180
g26
ag27
ag43
ag44
ag45
ag63
ag64
ag65
ag66
ag67
ag93
ag94
ag95
ag96
ag97
ag123
ag124
ag125
ag126
ag127
ag153
ag154
ag155
ag156
ag157
aS'<http://bio2rdf.org/drugbank_resource:5b8791eaa364c4b7c2eef12d87b3eda6>'
p181
aS'<http://bio2rdf.org/drugbank_resource:40b7ab0b87927ebce551b17f24d4aa4b>'
p182
aS'<http://bio2rdf.org/drugbank_resource:9793646f0a24e9de0774475a0246631f>'
p183
aS'<http://bio2rdf.org/drugbank_resource:37c10ec2313d47fa5240233810f1ad0b>'
p184
aS'<http://bio2rdf.org/drugbank_resource:0906bfbd0b8d10a0be4d08588d9e4082>'
p185
aS'<http://bio2rdf.org/drugbank_resource:0e6898b9380d9a8c266a2069a8a0eea0>'
p186
aS'<http://bio2rdf.org/drugbank_resource:f4174b3262d7e4fe78778ff741c6af62>'
p187
aS'<http://bio2rdf.org/drugbank_resource:515d127f9121b700affa4fd0ae4fbd5b>'
p188
aS'<http://bio2rdf.org/drugbank:DB05692>'
p189
aS'<http://bio2rdf.org/drugbank_resource:148fa0904c0c63795057ac1dcfe061f1>'
p190
aS'<http://bio2rdf.org/drugbank_resource:b17d96ff7459e6f5301e904c2523345f>'
p191
aS'<http://bio2rdf.org/drugbank_resource:196d50599473ef62ad0ef12dd8cfbe8d>'
p192
aS'<http://bio2rdf.org/drugbank_resource:3d068c46fb31ae51ea838b652b44677f>'
p193
aS'<http://bio2rdf.org/drugbank_resource:c5aec6a226487dd98dfd8aed3d3c809d>'
p194
aS'<http://bio2rdf.org/drugbank_resource:5be8d2030ac9721a7ad51a5fbd28b229>'
p195
aS'<http://bio2rdf.org/drugbank_resource:1b9a401c050db629ab2ca8a9b5206fba>'
p196
aS'<http://bio2rdf.org/drugbank_resource:94ba43f67e06be0d8e77a2394538d653>'
p197
aS'<http://bio2rdf.org/drugbank_resource:973523bf1404f7cdbe88e8646c0c056c>'
p198
aS'<http://bio2rdf.org/drugbank_resource:789125f9287949be28ff77a6925e0d7c>'
p199
aS'<http://bio2rdf.org/drugbank_resource:b3da137ab8e57d75313a6fcc7f7ee3aa>'
p200
aS'<http://bio2rdf.org/drugbank_resource:acefab36590175fdce062772a6e8da2a>'
p201
aS'<http://bio2rdf.org/drugbank_resource:6448098f4d9d62f9ee959697dec28869>'
p202
aS'<http://bio2rdf.org/drugbank_resource:ba5538849302b8ab3e77f736371c0774>'
p203
aS'<http://bio2rdf.org/drugbank_resource:7a47cdd6fd162753ea2d26e4568304f4>'
p204
aS'<http://bio2rdf.org/drugbank_resource:1d0350a4a243f64af1ed13b9f8c6c1e8>'
p205
ag28
ag29
ag46
ag47
ag48
ag68
ag69
ag70
ag71
ag72
ag98
ag99
ag100
ag101
ag102
ag128
ag129
ag130
ag131
ag132
ag158
ag159
ag160
ag161
ag162
aS'<http://bio2rdf.org/drugbank_resource:DB00215_DB06414>'
p206
ag30
ag31
ag49
ag50
ag51
ag73
ag74
ag75
ag76
ag77
ag103
ag104
ag105
ag106
ag107
ag133
ag134
ag135
ag136
ag137
ag163
ag164
ag165
ag166
ag167
aS'<http://bio2rdf.org/drugbank_resource:88bd68203db9cbadd602da684cb51703>'
p207
aS'<http://bio2rdf.org/drugbank_resource:f8b91828e6f9bb5829083b57f822ad40>'
p208
aS'<http://bio2rdf.org/drugbank_resource:5a3853fd760a947fa853685af320afcd>'
p209
aS'<http://bio2rdf.org/drugbank_resource:03eb532ae32f9cd0b23efe32c1a745d2>'
p210
aS'<http://bio2rdf.org/drugbank_resource:fd93683e6c7d68fee864f9a70c1bfb52>'
p211
aS'<http://bio2rdf.org/drugbank_resource:5c4fc52f7ac928bcddf3c82225f11be1>'
p212
aS'<http://bio2rdf.org/drugbank_resource:62ed9703e7a8c1f98ef20a80989707af>'
p213
aS'<http://bio2rdf.org/drugbank_resource:1a680265e343958343c865ea213d319b>'
p214
aS'<http://bio2rdf.org/drugbank_resource:31940dc70c840e7536d3de394e98a04b>'
p215
aS'<http://bio2rdf.org/drugbank_resource:89aa613b53b15c3c1dd452d5b8a3e259>'
p216
aS'<http://bio2rdf.org/drugbank_resource:d384ca9b917778b91666dac7723d7086>'
p217
aS'<http://bio2rdf.org/drugbank_resource:db09fffeee342810f3657ea957bfdfdd>'
p218
aS'<http://bio2rdf.org/drugbank_resource:21a7fdfb6f27a853d8d2778381e6e690>'
p219
aS'<http://bio2rdf.org/drugbank_resource:ffe1b5540ba08d66612cfd599557affa>'
p220
aS'<http://bio2rdf.org/drugbank_resource:19d92645ece517805643683623ee4692>'
p221
aS'<http://bio2rdf.org/drugbank_resource:5cf44c5aeea3d6a3268d7038848b24ed>'
p222
aS'<http://bio2rdf.org/drugbank_resource:9b687cf569f711282fa2fcf841d84728>'
p223
aS'<http://bio2rdf.org/drugbank_resource:a10567089832c925ba44dd829a9be8c5>'
p224
aS'<http://bio2rdf.org/drugbank_resource:2319b6911a15591fc21bf3c4482f923d>'
p225
aS'<http://bio2rdf.org/drugbank_resource:3d51c81a83b4ceca2b1706d53032cb3d>'
p226
aS'<http://bio2rdf.org/drugbank_resource:15a0000ead1045b63395c18633b7400b>'
p227
aS'<http://bio2rdf.org/drugbank_resource:f9c3e84d13a65461ac35a91b3c98e3ac>'
p228
aS'<http://bio2rdf.org/drugbank_resource:cb6bb073fcdab0c7794ac3734bd21e99>'
p229
aS'<http://bio2rdf.org/drugbank_resource:cfe9abb7179138f3722d0dbe39fce291>'
p230
aS'<http://bio2rdf.org/drugbank_resource:01401e059c6e211503ab8aa1b90006c3>'
p231
ag32
ag33
ag34
ag35
ag52
ag53
ag54
ag78
ag79
ag80
ag81
ag82
ag108
ag109
ag110
ag111
ag112
ag138
ag139
ag140
ag141
ag142
ag168
ag169
ag170
ag36
ag37
ag55
ag56
ag57
ag83
ag84
ag85
ag86
ag87
ag113
ag114
ag115
ag116
ag117
ag143
ag144
ag145
ag146
ag147
ag171
ag172
ag173
ag174
ag175
aS'<http://bio2rdf.org/drugbank_resource:b325f787c37773af9aab4f1bd6fdaeec>'
p232
aS'<http://bio2rdf.org/drugbank_resource:994421360baa37d1b0f5b1d27cc4daeb>'
p233
aS'<http://bio2rdf.org/drugbank_resource:9b21f2d2f01a27bbb89027ea7f626e24>'
p234
aS'<http://bio2rdf.org/drugbank_resource:2fb4022b5c1c37f972e43ba1694fdde2>'
p235
aS'<http://bio2rdf.org/drugbank_resource:ed8c3c5656b8a0d2f872ba4007b54737>'
p236
aS'<http://bio2rdf.org/drugbank_resource:8ea0b7e96171a6aa001b0a433f9e6003>'
p237
aS'<http://bio2rdf.org/drugbank_resource:caae80877b1b71f8ef900e85a0d7e696>'
p238
aS'<http://bio2rdf.org/drugbank_resource:d4fa9f00e7d9091421e81e16d48dca61>'
p239
aS'<http://bio2rdf.org/drugbank_resource:f6a9507e18fc04eb66686af602be66f5>'
p240
aS'<http://bio2rdf.org/drugbank_resource:a22d342b3b560689dc7fd0de61b0856d>'
p241
aS'<http://bio2rdf.org/drugbank_resource:11608f65fb7bbb9e83d6cc8cf4c577c4>'
p242
aS'<http://bio2rdf.org/drugbank_resource:3d068c46fb31ae51ea838b652b44677f>'
p243
aS'<http://bio2rdf.org/drugbank_resource:87860ebf9a7e9f9d655b081919298cb2>'
p244
aS'<http://bio2rdf.org/drugbank_resource:94ba43f67e06be0d8e77a2394538d653>'
p245
aS'<http://bio2rdf.org/drugbank_resource:4a7cce405427abf4807e5ea12b3a64e7>'
p246
aS'<http://bio2rdf.org/drugbank_resource:3eca3417eeaeca6a45ad3195b46a009a>'
p247
aS'<http://bio2rdf.org/drugbank:DB00379>'
p248
aS'<http://bio2rdf.org/drugbank:DB00308>'
p249
aS'<http://bio2rdf.org/drugbank:DB00332>'
p250
aS'<http://bio2rdf.org/drugbank:DB00373>'
p251
aS'<http://bio2rdf.org/drugbank:DB00204>'
p252
aS'<http://bio2rdf.org/drugbank:DB01056>'
p253
aS'<http://bio2rdf.org/drugbank:DB01426>'
p254
aS'<http://bio2rdf.org/drugbank_resource:DB00594_DB01346>'
p255
aS'<http://bio2rdf.org/drugbank_resource:DB00594_DB01341>'
p256
asa(dp257
g13
(g14
(g16
S'\x01\x00\x00\x00\x00\x00\x00\x00'
tRp258
g18
(g19
(I0
tS'b'
tRp259
(I1
(I4
tg21
I00
S"~*\x03E\x01^7@&'\xc0\xe7\x84\xf86@vF\xb2\xb1l/;@l\x94\x98\x8e}V7@"
tbtp260
sS'n'
I75
sg23
I250
sg24
(lp261
g26
ag27
ag43
ag44
ag45
ag63
ag64
ag65
ag66
ag67
ag93
ag94
ag95
ag96
ag97
ag123
ag124
ag125
ag126
ag127
ag153
ag154
ag155
ag156
ag157
ag181
ag182
ag183
ag184
ag185
ag186
ag187
ag188
ag189
ag190
ag191
ag192
ag193
ag194
ag195
ag196
ag197
ag198
ag199
ag200
ag201
ag202
ag203
ag204
ag205
aS'<http://bio2rdf.org/drugbank_resource:92deab7bd9e8a05d18d51570b46dc526>'
p262
aS'<http://bio2rdf.org/drugbank_resource:908d14c2da5c5474c735029398642cae>'
p263
aS'<http://bio2rdf.org/drugbank_resource:ab6327b7e6bcd2b762b518bf9adff283>'
p264
aS'<http://bio2rdf.org/drugbank_resource:732594c832d086203c79d3a1ca3b7903>'
p265
aS'<http://bio2rdf.org/drugbank_resource:ee22de4cf54fd052e6e95435402af38d>'
p266
aS'<http://bio2rdf.org/drugbank:DB00264>'
p267
aS'<http://bio2rdf.org/drugbank:DB00790>'
p268
aS'<http://bio2rdf.org/drugbank:DB00796>'
p269
aS'<http://bio2rdf.org/drugbank:DB00722>'
p270
aS'<http://bio2rdf.org/drugbank:DB00178>'
p271
aS'<http://bio2rdf.org/drugbank:DB00519>'
p272
aS'<http://bio2rdf.org/drugbank:DB00177>'
p273
aS'<http://bio2rdf.org/drugbank:DB00612>'
p274
aS'<http://bio2rdf.org/drugbank:DB00841>'
p275
aS'<http://bio2rdf.org/drugbank_resource:eb638b603e7d545a8cbf3c1ac9702c42>'
p276
aS'<http://bio2rdf.org/drugbank_resource:92ca0bbbc173dd6241b546dfd07824a5>'
p277
aS'<http://bio2rdf.org/drugbank_resource:74e52ff0d1fbad8f326f4daecdb9d1c4>'
p278
aS'<http://bio2rdf.org/drugbank:DB01207>'
p279
aS'<http://bio2rdf.org/drugbank_resource:9e96a7a0bf7c9b925a6faddf363c1016>'
p280
aS'<http://bio2rdf.org/drugbank:DB00569>'
p281
aS'<http://bio2rdf.org/drugbank:DB05914>'
p282
ag28
ag29
ag46
ag47
ag48
ag68
ag69
ag70
ag71
ag72
ag98
ag99
ag100
ag101
ag102
ag128
ag129
ag130
ag131
ag132
ag158
ag159
ag160
ag161
ag162
ag206
ag30
ag31
ag49
ag50
ag51
ag73
ag74
ag75
ag76
ag77
ag103
ag104
ag105
ag106
ag107
ag133
ag134
ag135
ag136
ag137
ag163
ag164
ag165
ag166
ag167
ag207
ag208
ag209
ag210
ag211
ag212
ag213
ag214
ag215
ag216
ag217
ag218
ag219
ag220
ag221
ag222
ag223
ag224
ag225
ag226
ag227
ag228
ag229
ag230
ag231
aS'<http://bio2rdf.org/drugbank_resource:96acca8d784ecf87d6690a404041a6f3>'
p283
aS'<http://bio2rdf.org/drugbank_resource:db6075c8ba42d7a25a8cf18e251fd483>'
p284
aS'<http://bio2rdf.org/drugbank_resource:7c1aae0f57e667ab4f6a542a92e9e95a>'
p285
aS'<http://bio2rdf.org/drugbank_resource:7cdd5ee474205e45cc15485d24d515b2>'
p286
aS'<http://bio2rdf.org/drugbank_resource:04ffd9f1084c0b0c3861e6f816bb79c0>'
p287
aS'<http://bio2rdf.org/drugbank_resource:bc3c0acb52bda904e3595793cef14b51>'
p288
aS'<http://bio2rdf.org/drugbank_resource:846243ce8a64ca2fedecbe6acbecf3e2>'
p289
aS'<http://bio2rdf.org/drugbank_resource:f6022b566b5dde200d342f6fb4e5d965>'
p290
aS'<http://bio2rdf.org/drugbank_resource:23f8e1e2ba370c553e6fee9846201fff>'
p291
aS'<http://bio2rdf.org/drugbank_resource:a50c0370defc10d87175c9f118726eb7>'
p292
aS'<http://bio2rdf.org/drugbank_resource:63b5ef632cc304180a8f362cfd5aa8a7>'
p293
aS'<http://bio2rdf.org/drugbank_resource:1bb1ba22a2df97002b367c49e426aa86>'
p294
aS'<http://bio2rdf.org/drugbank_resource:d8df8f22dbf1df8d9278e80d28ee259b>'
p295
aS'<http://bio2rdf.org/drugbank_resource:e0cea38e21dd4da37f60e0d3abf7f620>'
p296
aS'<http://bio2rdf.org/drugbank_resource:574fbf7ce897bb08ac67df4b785fc860>'
p297
aS'<http://bio2rdf.org/drugbank_resource:c0a4c546cfcf3b01bce7d9ee1560c2fd>'
p298
aS'<http://bio2rdf.org/drugbank_resource:bdbe33beb503409f440fd7c5c154b9f9>'
p299
aS'<http://bio2rdf.org/drugbank_resource:da10ee7b85fecbca1e89c9639e8a0588>'
p300
aS'<http://bio2rdf.org/drugbank_resource:2bf62c45c9057e23521336cfce4a2746>'
p301
aS'<http://bio2rdf.org/drugbank_resource:c4f949d3f69d0837aa4378026851a49d>'
p302
aS'<http://bio2rdf.org/drugbank_resource:e8ed810c86358e8c0808d867e32c87f1>'
p303
aS'<http://bio2rdf.org/drugbank_resource:cb23519cef8debc3483818bdcfaf62bf>'
p304
aS'<http://bio2rdf.org/drugbank_resource:894bb6e1b75988a2c4eb4c0e0d12f1fb>'
p305
aS'<http://bio2rdf.org/drugbank_resource:131509603eb2fa173fc7969e6b12e09f>'
p306
aS'<http://bio2rdf.org/drugbank_resource:d172c7de1442ab07173b637bad4529f6>'
p307
ag32
ag33
ag34
ag35
ag52
ag53
ag54
ag78
ag79
ag80
ag81
ag82
ag108
ag109
ag110
ag111
ag112
ag138
ag139
ag140
ag141
ag142
ag168
ag169
ag170
ag36
ag37
ag55
ag56
ag57
ag83
ag84
ag85
ag86
ag87
ag113
ag114
ag115
ag116
ag117
ag143
ag144
ag145
ag146
ag147
ag171
ag172
ag173
ag174
ag175
ag232
ag233
ag234
ag235
ag236
ag237
ag238
ag239
ag240
ag241
ag242
ag243
ag244
ag245
ag246
ag247
ag248
ag249
ag250
ag251
ag252
ag253
ag254
ag255
ag256
aS'<http://bio2rdf.org/drugbank_resource:DB00594_DB01341>'
p308
aS'<http://bio2rdf.org/drugbank_resource:DB00594_DB01346>'
p309
aS'<http://bio2rdf.org/drugbank:DB01214>'
p310
asa(dp311
g13
(g14
(g16
S'\x01\x00\x00\x00\x00\x00\x00\x00'
tRp312
g18
(g19
(I0
tS'b'
tRp313
(I1
(I4
tg21
I00
S'\xa34*b1b7@\x82N\xa58\x9f\x027@R\x9c\x00\xbe\xa8>;@\x96\xb4\x97L[e7@'
tbtp314
sS'n'
I100
sg23
I275
sg24
(lp315
g26
ag27
ag43
ag44
ag45
ag63
ag64
ag65
ag66
ag67
ag93
ag94
ag95
ag96
ag97
ag123
ag124
ag125
ag126
ag127
ag153
ag154
ag155
ag156
ag157
ag181
ag182
ag183
ag184
ag185
ag186
ag187
ag188
ag189
ag190
ag191
ag192
ag193
ag194
ag195
ag196
ag197
ag198
ag199
ag200
ag201
ag202
ag203
ag204
ag205
ag262
ag263
ag264
ag265
ag266
ag267
ag268
ag269
ag270
ag271
ag272
ag273
ag274
ag275
ag276
ag277
ag278
ag279
ag280
ag281
ag282
ag28
ag29
ag46
ag47
ag48
ag68
ag69
ag70
ag71
ag72
ag98
ag99
ag100
ag101
ag102
ag128
ag129
ag130
ag131
ag132
ag158
ag159
ag160
ag161
ag162
ag206
ag30
ag31
ag49
ag50
ag51
ag73
ag74
ag75
ag76
ag77
ag103
ag104
ag105
ag106
ag107
ag133
ag134
ag135
ag136
ag137
ag163
ag164
ag165
ag166
ag167
ag207
ag208
ag209
ag210
ag211
ag212
ag213
ag214
ag215
ag216
ag217
ag218
ag219
ag220
ag221
ag222
ag223
ag224
ag225
ag226
ag227
ag228
ag229
ag230
ag231
ag283
ag284
ag285
ag286
ag287
ag288
ag289
ag290
ag291
ag292
ag293
ag294
ag295
ag296
ag297
ag298
ag299
ag300
ag301
ag302
ag303
ag304
ag305
ag306
ag307
aS'<http://bio2rdf.org/drugbank_resource:38c6b659a74dc7731ec61e94153e91fa>'
p316
aS'<http://bio2rdf.org/drugbank_resource:bc227d571ddf4d3b32b7e4a8e3a4a12f>'
p317
aS'<http://bio2rdf.org/drugbank_resource:08b30a9e1fdbb4e6335193a572b1cde3>'
p318
aS'<http://bio2rdf.org/drugbank_resource:aa84e66443ed1a67d4913bdd3c41c3f6>'
p319
aS'<http://bio2rdf.org/drugbank_resource:3d4c857e753e1657b3f69edf661ba71f>'
p320
aS'<http://bio2rdf.org/drugbank_resource:b81ece2325d87328ca90b581ff693215>'
p321
aS'<http://bio2rdf.org/drugbank_resource:43769af1f31c6c7205f869c75bf62d4e>'
p322
aS'<http://bio2rdf.org/drugbank_resource:4317603daa0bbe1ddd41c1cd191fda6c>'
p323
aS'<http://bio2rdf.org/drugbank_resource:a570b3fbf789e3edb4d410e92530b8ff>'
p324
aS'<http://bio2rdf.org/drugbank_resource:0cdb15b073f6a6038f11fc0b011abdfd>'
p325
aS'<http://bio2rdf.org/drugbank_resource:b0e9a3d58488dc0ce4c79b2aad89d34c>'
p326
aS'<http://bio2rdf.org/drugbank_resource:5618a93869e9298e1be36acc89c81ccb>'
p327
aS'<http://bio2rdf.org/drugbank_resource:2131235c3b1e40eef9d429167933d7f6>'
p328
aS'<http://bio2rdf.org/drugbank_resource:5bfa2ba85533d5e6be9ce22bf7124519>'
p329
aS'<http://bio2rdf.org/drugbank_resource:5082edc7b6387ee7c12836dc22fb8fec>'
p330
aS'<http://bio2rdf.org/drugbank_resource:e23f07c86866844ad50144579d305ac4>'
p331
aS'<http://bio2rdf.org/drugbank_resource:9b38a6b8adec197dec120833de98fa6d>'
p332
aS'<http://bio2rdf.org/drugbank_resource:5a110803d0ed12f5d1d3e448ce93c375>'
p333
aS'<http://bio2rdf.org/drugbank_resource:c6c638b6501c8d98b50b9e26e259a875>'
p334
aS'<http://bio2rdf.org/drugbank_resource:e3a3ca1ef987d99823a3de08a3ec5095>'
p335
aS'<http://bio2rdf.org/drugbank_resource:199e3a1e33be005c271d6ffffb169b07>'
p336
aS'<http://bio2rdf.org/drugbank_resource:bb4823ffa8b7519b4b3161730015c24e>'
p337
aS'<http://bio2rdf.org/drugbank_resource:45fb51188031139577a66e32ce2bda5f>'
p338
aS'<http://bio2rdf.org/drugbank_resource:0c9bb8afd6cbc0c775e6b0062142d1f4>'
p339
aS'<http://bio2rdf.org/drugbank_resource:1880f97fedf3967cb5b07844cb259f49>'
p340
ag32
ag33
ag34
ag35
ag52
ag53
ag54
ag78
ag79
ag80
ag81
ag82
ag108
ag109
ag110
ag111
ag112
ag138
ag139
ag140
ag141
ag142
ag168
ag169
ag170
ag36
ag37
ag55
ag56
ag57
ag83
ag84
ag85
ag86
ag87
ag113
ag114
ag115
ag116
ag117
ag143
ag144
ag145
ag146
ag147
ag171
ag172
ag173
ag174
ag175
ag232
ag233
ag234
ag235
ag236
ag237
ag238
ag239
ag240
ag241
ag242
ag243
ag244
ag245
ag246
ag247
ag248
ag249
ag250
ag251
ag252
ag253
ag254
ag255
ag256
ag308
ag309
ag310
asa(dp341
g13
(g14
(g16
S'\x01\x00\x00\x00\x00\x00\x00\x00'
tRp342
g18
(g19
(I0
tS'b'
tRp343
(I1
(I4
tg21
I00
S'\n\x194\x1b\x16V7@\xa0ha\x01\xaf\x0c7@D\xcb\xe4\x03~`;@`\xf1{\xb5\x82{7@'
tbtp344
sS'n'
I200
sg23
I355
sg24
(lp345
g26
ag27
ag43
ag44
ag45
ag63
ag64
ag65
ag66
ag67
ag93
ag94
ag95
ag96
ag97
ag123
ag124
ag125
ag126
ag127
ag153
ag154
ag155
ag156
ag157
ag181
ag182
ag183
ag184
ag185
ag186
ag187
ag188
ag189
ag190
ag191
ag192
ag193
ag194
ag195
ag196
ag197
ag198
ag199
ag200
ag201
ag202
ag203
ag204
ag205
ag262
ag263
ag264
ag265
ag266
ag267
ag268
ag269
ag270
ag271
ag272
ag273
ag274
ag275
ag276
ag277
ag278
ag279
ag280
ag281
ag282
ag28
ag29
ag46
ag47
ag48
ag68
ag69
ag70
ag71
ag72
ag98
ag99
ag100
ag101
ag102
ag128
ag129
ag130
ag131
ag132
ag158
ag159
ag160
ag161
ag162
ag206
ag30
ag31
ag49
ag50
ag51
ag73
ag74
ag75
ag76
ag77
ag103
ag104
ag105
ag106
ag107
ag133
ag134
ag135
ag136
ag137
ag163
ag164
ag165
ag166
ag167
ag207
ag208
ag209
ag210
ag211
ag212
ag213
ag214
ag215
ag216
ag217
ag218
ag219
ag220
ag221
ag222
ag223
ag224
ag225
ag226
ag227
ag228
ag229
ag230
ag231
ag283
ag284
ag285
ag286
ag287
ag288
ag289
ag290
ag291
ag292
ag293
ag294
ag295
ag296
ag297
ag298
ag299
ag300
ag301
ag302
ag303
ag304
ag305
ag306
ag307
ag316
ag317
ag318
ag319
ag320
ag321
ag322
ag323
ag324
ag325
ag326
ag327
ag328
ag329
ag330
ag331
ag332
ag333
ag334
ag335
ag336
ag337
ag338
ag339
ag340
aS'<http://bio2rdf.org/drugbank_resource:ec7fdf0883ac3440f8af7e7ea9b35504>'
p346
aS'<http://bio2rdf.org/drugbank_resource:c2a429fe9a17ab1a8e6e3bd8340f7de1>'
p347
aS'<http://bio2rdf.org/drugbank_resource:001af13a5023c9b3548e610f8f76e244>'
p348
aS'<http://bio2rdf.org/drugbank_resource:18e62f783a0d5229fb72f32bb14e655a>'
p349
aS'<http://bio2rdf.org/drugbank_resource:6e294124a9c061ba5867817f65b3dbea>'
p350
aS'<http://bio2rdf.org/drugbank_resource:adfbc329fb9424d4e9c1b4bbfcb3eca8>'
p351
aS'<http://bio2rdf.org/drugbank_resource:d5d14854105c4d79a8508855494e936b>'
p352
aS'<http://bio2rdf.org/drugbank_resource:ff0248fe9c419e0c883087dddd1e0c59>'
p353
aS'<http://bio2rdf.org/drugbank_resource:a5320c4b5f4316a5153bcbc8dcb25f82>'
p354
aS'<http://bio2rdf.org/drugbank_resource:e5efdafdc63d8fb3a8508bf645eb86f5>'
p355
aS'<http://bio2rdf.org/drugbank_resource:8661fc309785f5657ab5291bcf9a7492>'
p356
aS'<http://bio2rdf.org/drugbank_resource:1fbfc242ea60e41d5b14c94b2d4bf184>'
p357
aS'<http://bio2rdf.org/drugbank_resource:c7a61c35f0d82615bf4e2694bdf020a5>'
p358
aS'<http://bio2rdf.org/drugbank_resource:9e968b46391ddd0e37a0471df903c22f>'
p359
aS'<http://bio2rdf.org/drugbank_resource:5d9ea392a8348054b71f2ac8e2f8ec08>'
p360
aS'<http://bio2rdf.org/drugbank_resource:5f5bc8d273b20cdd98ff7bdd9e8de2d4>'
p361
aS'<http://bio2rdf.org/drugbank_resource:9aea030e7a73f4af58b382b93286dcc7>'
p362
aS'<http://bio2rdf.org/drugbank_resource:415d2074856814af5440d64b36458284>'
p363
aS'<http://bio2rdf.org/drugbank_resource:258cc60df2781b5ff5374ce5b993c83c>'
p364
aS'<http://bio2rdf.org/drugbank_resource:14c399ef25354bd1dee739b2686e3bef>'
p365
aS'<http://bio2rdf.org/drugbank_resource:a8822bbbce5ab759773ae996318f81db>'
p366
aS'<http://bio2rdf.org/drugbank_resource:123b4d7b9f0c7184cf9285fec3e385fa>'
p367
aS'<http://bio2rdf.org/drugbank_resource:43f5dbc703569af55520a7cc19dfea4d>'
p368
aS'<http://bio2rdf.org/drugbank_resource:6e8123d7a6d0d3731c8dc3bff750ec3f>'
p369
aS'<http://bio2rdf.org/drugbank_resource:c988829395af50dc671808f84cdfd66e>'
p370
aS'<http://bio2rdf.org/drugbank_resource:f5f6843eb02be13ccd96ae7466475709>'
p371
aS'<http://bio2rdf.org/drugbank_resource:cce735f24fe2149fc447c9b210a598d9>'
p372
aS'<http://bio2rdf.org/drugbank_resource:bb96ac25b503246757e97fd372b7480f>'
p373
aS'<http://bio2rdf.org/drugbank_resource:85fe2cd81fe861ee5339bf51c8092b7e>'
p374
aS'<http://bio2rdf.org/drugbank_resource:2c7ea51935cc2e35c9d90096aea6fd6b>'
p375
aS'<http://bio2rdf.org/drugbank_resource:c4a6245bd7e411e66e81f27914ed4a82>'
p376
aS'<http://bio2rdf.org/drugbank_resource:dea19cec3dd8b64ce55e9e272a0ff332>'
p377
aS'<http://bio2rdf.org/drugbank_resource:58c892d482acbde8ec5afdc9ccc654ef>'
p378
aS'<http://bio2rdf.org/drugbank_resource:36789899a6ec5174b91a8abea54922c6>'
p379
aS'<http://bio2rdf.org/drugbank_resource:75fda6500127f450ac7775e5b5324a20>'
p380
aS'<http://bio2rdf.org/drugbank_resource:7c5d9c4ab279c1964daa3c0fc4718cf6>'
p381
aS'<http://bio2rdf.org/drugbank_resource:adc853459fd3352faebeadef03b02608>'
p382
aS'<http://bio2rdf.org/drugbank_resource:7f472eacbcc2b184045f6248d5f38d8e>'
p383
aS'<http://bio2rdf.org/drugbank_resource:27dca7b049eb8ce4a9ddec050052e1c3>'
p384
aS'<http://bio2rdf.org/drugbank_resource:08c9e47245af692018a550443e9fd083>'
p385
aS'<http://bio2rdf.org/drugbank_resource:41d8a8cc85c6376bf4c76ef0e7809688>'
p386
aS'<http://bio2rdf.org/drugbank_resource:1583eb2931473ddb0bccbbb8bc68d290>'
p387
aS'<http://bio2rdf.org/drugbank_resource:17e9d079ba387d99b12af07e98f4f7a3>'
p388
aS'<http://bio2rdf.org/drugbank_resource:e6382f4d83246dd7574f9932b0f6a441>'
p389
aS'<http://bio2rdf.org/drugbank_resource:de7627b409523f708a9bb74d4b865dc4>'
p390
aS'<http://bio2rdf.org/drugbank_resource:70efbe352464e8da8e1491ebc496c548>'
p391
aS'<http://bio2rdf.org/drugbank_resource:eba6b392f01f46a44d27a2a98318837a>'
p392
aS'<http://bio2rdf.org/drugbank_resource:e5656d9f30d4ac45f8c98ed8eb03e124>'
p393
aS'<http://bio2rdf.org/drugbank_resource:feda847e9d5b7e54ec521b21da5138b4>'
p394
aS'<http://bio2rdf.org/drugbank_resource:327020907e4a3b2bea6f07bc18dc72e7>'
p395
aS'<http://bio2rdf.org/drugbank_resource:9b6010d3fe393fdf4ad0ac08eb77737a>'
p396
aS'<http://bio2rdf.org/drugbank_resource:37c10ec2313d47fa5240233810f1ad0b>'
p397
aS'<http://bio2rdf.org/drugbank_resource:af10329c88ed40a085c3bb76a4d2ff0a>'
p398
aS'<http://bio2rdf.org/drugbank_resource:d02b2c22fb2d050229810b95071e8971>'
p399
aS'<http://bio2rdf.org/drugbank_resource:596160d3b4c0d95c8a96d51c29e25006>'
p400
aS'<http://bio2rdf.org/drugbank_resource:d2dced7c1e8ad2316576b5b240126e69>'
p401
aS'<http://bio2rdf.org/drugbank_resource:b81b75eec2ccd4473e29765f462998ba>'
p402
aS'<http://bio2rdf.org/drugbank:DB01325>'
p403
aS'<http://bio2rdf.org/drugbank:DB01175>'
p404
aS'<http://bio2rdf.org/drugbank:DB01104>'
p405
aS'<http://bio2rdf.org/drugbank:DB00472>'
p406
aS'<http://bio2rdf.org/drugbank_resource:2d2b82beb5a54aa395772ad4e0e99a1f>'
p407
aS'<http://bio2rdf.org/drugbank_resource:10d352b22702f786ce1f9b228a98f42e>'
p408
aS'<http://bio2rdf.org/drugbank_resource:3ce6af40c439f5e35fc8a90608618ec6>'
p409
aS'<http://bio2rdf.org/drugbank_resource:a4591a5a1ce56b4f746739efd7b0dab1>'
p410
aS'<http://bio2rdf.org/drugbank_resource:4c4da92cc0daedb83e401e97c46a91b4>'
p411
aS'<http://bio2rdf.org/drugbank_resource:2834b81810e809e71c86b086bfdc904c>'
p412
aS'<http://bio2rdf.org/drugbank_resource:DB00215_DB06414>'
p413
aS'<http://bio2rdf.org/drugbank_resource:DB00254_DB00307>'
p414
aS'<http://bio2rdf.org/drugbank_resource:DB00307_DB01017>'
p415
aS'<http://bio2rdf.org/drugbank_resource:DB00307_DB00618>'
p416
aS'<http://bio2rdf.org/drugbank_resource:DB00307_DB00759>'
p417
aS'<http://bio2rdf.org/drugbank_resource:DB00215_DB06414>'
p418
aS'<http://bio2rdf.org/drugbank_resource:DB00254_DB00307>'
p419
aS'<http://bio2rdf.org/drugbank_resource:DB00307_DB00618>'
p420
aS'<http://bio2rdf.org/drugbank_resource:DB00307_DB01017>'
p421
aS'<http://bio2rdf.org/drugbank_resource:DB00307_DB00759>'
p422
aS'<http://bio2rdf.org/drugbank_resource:571dd2301c6b955f89b8899bba957372>'
p423
aS'<http://bio2rdf.org/drugbank:DB01020>'
p424
aS'<http://bio2rdf.org/drugbank:DB00660>'
p425
ag32
ag33
ag34
ag35
ag52
ag53
ag54
ag78
ag79
ag80
ag81
ag82
ag108
ag109
ag110
ag111
ag112
ag138
ag139
ag140
ag141
ag142
ag168
ag169
ag170
ag36
ag37
ag55
ag56
ag57
ag83
ag84
ag85
ag86
ag87
ag113
ag114
ag115
ag116
ag117
ag143
ag144
ag145
ag146
ag147
ag171
ag172
ag173
ag174
ag175
ag232
ag233
ag234
ag235
ag236
ag237
ag238
ag239
ag240
ag241
ag242
ag243
ag244
ag245
ag246
ag247
ag248
ag249
ag250
ag251
ag252
ag253
ag254
ag255
ag256
ag308
ag309
ag310
asa(dp426
g13
(g14
(g16
S'\x01\x00\x00\x00\x00\x00\x00\x00'
tRp427
g18
(g19
(I0
tS'b'
tRp428
(I1
(I4
tg21
I00
S'\n\x194\x1b\x16V7@\xa0ha\x01\xaf\x0c7@D\xcb\xe4\x03~`;@`\xf1{\xb5\x82{7@'
tbtp429
sS'n'
I400
sg23
I355
sg24
(lp430
g26
ag27
ag43
ag44
ag45
ag63
ag64
ag65
ag66
ag67
ag93
ag94
ag95
ag96
ag97
ag123
ag124
ag125
ag126
ag127
ag153
ag154
ag155
ag156
ag157
ag181
ag182
ag183
ag184
ag185
ag186
ag187
ag188
ag189
ag190
ag191
ag192
ag193
ag194
ag195
ag196
ag197
ag198
ag199
ag200
ag201
ag202
ag203
ag204
ag205
ag262
ag263
ag264
ag265
ag266
ag267
ag268
ag269
ag270
ag271
ag272
ag273
ag274
ag275
ag276
ag277
ag278
ag279
ag280
ag281
ag282
ag28
ag29
ag46
ag47
ag48
ag68
ag69
ag70
ag71
ag72
ag98
ag99
ag100
ag101
ag102
ag128
ag129
ag130
ag131
ag132
ag158
ag159
ag160
ag161
ag162
ag206
ag30
ag31
ag49
ag50
ag51
ag73
ag74
ag75
ag76
ag77
ag103
ag104
ag105
ag106
ag107
ag133
ag134
ag135
ag136
ag137
ag163
ag164
ag165
ag166
ag167
ag207
ag208
ag209
ag210
ag211
ag212
ag213
ag214
ag215
ag216
ag217
ag218
ag219
ag220
ag221
ag222
ag223
ag224
ag225
ag226
ag227
ag228
ag229
ag230
ag231
ag283
ag284
ag285
ag286
ag287
ag288
ag289
ag290
ag291
ag292
ag293
ag294
ag295
ag296
ag297
ag298
ag299
ag300
ag301
ag302
ag303
ag304
ag305
ag306
ag307
ag316
ag317
ag318
ag319
ag320
ag321
ag322
ag323
ag324
ag325
ag326
ag327
ag328
ag329
ag330
ag331
ag332
ag333
ag334
ag335
ag336
ag337
ag338
ag339
ag340
ag346
ag347
ag348
ag349
ag350
ag351
ag352
ag353
ag354
ag355
ag356
ag357
ag358
ag359
ag360
ag361
ag362
ag363
ag364
ag365
ag366
ag367
ag368
ag369
ag370
ag371
ag372
ag373
ag374
ag375
ag376
ag377
ag378
ag379
ag380
ag381
ag382
ag383
ag384
ag385
ag386
ag387
ag388
ag389
ag390
ag391
ag392
ag393
ag394
ag395
ag396
ag397
ag398
ag399
ag400
ag401
ag402
ag403
ag404
ag405
ag406
ag407
ag408
ag409
ag410
ag411
ag412
ag413
ag414
ag415
ag416
ag417
ag418
ag419
ag420
ag421
ag422
ag423
ag424
ag425
ag32
ag33
ag34
ag35
ag52
ag53
ag54
ag78
ag79
ag80
ag81
ag82
ag108
ag109
ag110
ag111
ag112
ag138
ag139
ag140
ag141
ag142
ag168
ag169
ag170
ag36
ag37
ag55
ag56
ag57
ag83
ag84
ag85
ag86
ag87
ag113
ag114
ag115
ag116
ag117
ag143
ag144
ag145
ag146
ag147
ag171
ag172
ag173
ag174
ag175
ag232
ag233
ag234
ag235
ag236
ag237
ag238
ag239
ag240
ag241
ag242
ag243
ag244
ag245
ag246
ag247
ag248
ag249
ag250
ag251
ag252
ag253
ag254
ag255
ag256
ag308
ag309
ag310
asa(dp431
g13
(g14
(g16
S'\x01\x00\x00\x00\x00\x00\x00\x00'
tRp432
g18
(g19
(I0
tS'b'
tRp433
(I1
(I4
tg21
I00
S'\n\x194\x1b\x16V7@\xa0ha\x01\xaf\x0c7@D\xcb\xe4\x03~`;@`\xf1{\xb5\x82{7@'
tbtp434
sS'n'
I700
sg23
I355
sg24
(lp435
g26
ag27
ag43
ag44
ag45
ag63
ag64
ag65
ag66
ag67
ag93
ag94
ag95
ag96
ag97
ag123
ag124
ag125
ag126
ag127
ag153
ag154
ag155
ag156
ag157
ag181
ag182
ag183
ag184
ag185
ag186
ag187
ag188
ag189
ag190
ag191
ag192
ag193
ag194
ag195
ag196
ag197
ag198
ag199
ag200
ag201
ag202
ag203
ag204
ag205
ag262
ag263
ag264
ag265
ag266
ag267
ag268
ag269
ag270
ag271
ag272
ag273
ag274
ag275
ag276
ag277
ag278
ag279
ag280
ag281
ag282
ag28
ag29
ag46
ag47
ag48
ag68
ag69
ag70
ag71
ag72
ag98
ag99
ag100
ag101
ag102
ag128
ag129
ag130
ag131
ag132
ag158
ag159
ag160
ag161
ag162
ag206
ag30
ag31
ag49
ag50
ag51
ag73
ag74
ag75
ag76
ag77
ag103
ag104
ag105
ag106
ag107
ag133
ag134
ag135
ag136
ag137
ag163
ag164
ag165
ag166
ag167
ag207
ag208
ag209
ag210
ag211
ag212
ag213
ag214
ag215
ag216
ag217
ag218
ag219
ag220
ag221
ag222
ag223
ag224
ag225
ag226
ag227
ag228
ag229
ag230
ag231
ag283
ag284
ag285
ag286
ag287
ag288
ag289
ag290
ag291
ag292
ag293
ag294
ag295
ag296
ag297
ag298
ag299
ag300
ag301
ag302
ag303
ag304
ag305
ag306
ag307
ag316
ag317
ag318
ag319
ag320
ag321
ag322
ag323
ag324
ag325
ag326
ag327
ag328
ag329
ag330
ag331
ag332
ag333
ag334
ag335
ag336
ag337
ag338
ag339
ag340
ag346
ag347
ag348
ag349
ag350
ag351
ag352
ag353
ag354
ag355
ag356
ag357
ag358
ag359
ag360
ag361
ag362
ag363
ag364
ag365
ag366
ag367
ag368
ag369
ag370
ag371
ag372
ag373
ag374
ag375
ag376
ag377
ag378
ag379
ag380
ag381
ag382
ag383
ag384
ag385
ag386
ag387
ag388
ag389
ag390
ag391
ag392
ag393
ag394
ag395
ag396
ag397
ag398
ag399
ag400
ag401
ag402
ag403
ag404
ag405
ag406
ag407
ag408
ag409
ag410
ag411
ag412
ag413
ag414
ag415
ag416
ag417
ag418
ag419
ag420
ag421
ag422
ag423
ag424
ag425
ag32
ag33
ag34
ag35
ag52
ag53
ag54
ag78
ag79
ag80
ag81
ag82
ag108
ag109
ag110
ag111
ag112
ag138
ag139
ag140
ag141
ag142
ag168
ag169
ag170
ag36
ag37
ag55
ag56
ag57
ag83
ag84
ag85
ag86
ag87
ag113
ag114
ag115
ag116
ag117
ag143
ag144
ag145
ag146
ag147
ag171
ag172
ag173
ag174
ag175
ag232
ag233
ag234
ag235
ag236
ag237
ag238
ag239
ag240
ag241
ag242
ag243
ag244
ag245
ag246
ag247
ag248
ag249
ag250
ag251
ag252
ag253
ag254
ag255
ag256
ag308
ag309
ag310
asa(dp436
g13
(g14
(g16
S'\x01\x00\x00\x00\x00\x00\x00\x00'
tRp437
g18
(g19
(I0
tS'b'
tRp438
(I1
(I4
tg21
I00
S'\n\x194\x1b\x16V7@\xa0ha\x01\xaf\x0c7@D\xcb\xe4\x03~`;@`\xf1{\xb5\x82{7@'
tbtp439
sS'n'
I1000
sg23
I355
sg24
(lp440
g26
ag27
ag43
ag44
ag45
ag63
ag64
ag65
ag66
ag67
ag93
ag94
ag95
ag96
ag97
ag123
ag124
ag125
ag126
ag127
ag153
ag154
ag155
ag156
ag157
ag181
ag182
ag183
ag184
ag185
ag186
ag187
ag188
ag189
ag190
ag191
ag192
ag193
ag194
ag195
ag196
ag197
ag198
ag199
ag200
ag201
ag202
ag203
ag204
ag205
ag262
ag263
ag264
ag265
ag266
ag267
ag268
ag269
ag270
ag271
ag272
ag273
ag274
ag275
ag276
ag277
ag278
ag279
ag280
ag281
ag282
ag28
ag29
ag46
ag47
ag48
ag68
ag69
ag70
ag71
ag72
ag98
ag99
ag100
ag101
ag102
ag128
ag129
ag130
ag131
ag132
ag158
ag159
ag160
ag161
ag162
ag206
ag30
ag31
ag49
ag50
ag51
ag73
ag74
ag75
ag76
ag77
ag103
ag104
ag105
ag106
ag107
ag133
ag134
ag135
ag136
ag137
ag163
ag164
ag165
ag166
ag167
ag207
ag208
ag209
ag210
ag211
ag212
ag213
ag214
ag215
ag216
ag217
ag218
ag219
ag220
ag221
ag222
ag223
ag224
ag225
ag226
ag227
ag228
ag229
ag230
ag231
ag283
ag284
ag285
ag286
ag287
ag288
ag289
ag290
ag291
ag292
ag293
ag294
ag295
ag296
ag297
ag298
ag299
ag300
ag301
ag302
ag303
ag304
ag305
ag306
ag307
ag316
ag317
ag318
ag319
ag320
ag321
ag322
ag323
ag324
ag325
ag326
ag327
ag328
ag329
ag330
ag331
ag332
ag333
ag334
ag335
ag336
ag337
ag338
ag339
ag340
ag346
ag347
ag348
ag349
ag350
ag351
ag352
ag353
ag354
ag355
ag356
ag357
ag358
ag359
ag360
ag361
ag362
ag363
ag364
ag365
ag366
ag367
ag368
ag369
ag370
ag371
ag372
ag373
ag374
ag375
ag376
ag377
ag378
ag379
ag380
ag381
ag382
ag383
ag384
ag385
ag386
ag387
ag388
ag389
ag390
ag391
ag392
ag393
ag394
ag395
ag396
ag397
ag398
ag399
ag400
ag401
ag402
ag403
ag404
ag405
ag406
ag407
ag408
ag409
ag410
ag411
ag412
ag413
ag414
ag415
ag416
ag417
ag418
ag419
ag420
ag421
ag422
ag423
ag424
ag425
ag32
ag33
ag34
ag35
ag52
ag53
ag54
ag78
ag79
ag80
ag81
ag82
ag108
ag109
ag110
ag111
ag112
ag138
ag139
ag140
ag141
ag142
ag168
ag169
ag170
ag36
ag37
ag55
ag56
ag57
ag83
ag84
ag85
ag86
ag87
ag113
ag114
ag115
ag116
ag117
ag143
ag144
ag145
ag146
ag147
ag171
ag172
ag173
ag174
ag175
ag232
ag233
ag234
ag235
ag236
ag237
ag238
ag239
ag240
ag241
ag242
ag243
ag244
ag245
ag246
ag247
ag248
ag249
ag250
ag251
ag252
ag253
ag254
ag255
ag256
ag308
ag309
ag310
asa(dp441
g13
(g14
(g16
S'\x01\x00\x00\x00\x00\x00\x00\x00'
tRp442
g18
(g19
(I0
tS'b'
tRp443
(I1
(I4
tg21
I00
S'\n\x194\x1b\x16V7@\xa0ha\x01\xaf\x0c7@D\xcb\xe4\x03~`;@`\xf1{\xb5\x82{7@'
tbtp444
sS'n'
I1500
sg23
I355
sg24
(lp445
g26
ag27
ag43
ag44
ag45
ag63
ag64
ag65
ag66
ag67
ag93
ag94
ag95
ag96
ag97
ag123
ag124
ag125
ag126
ag127
ag153
ag154
ag155
ag156
ag157
ag181
ag182
ag183
ag184
ag185
ag186
ag187
ag188
ag189
ag190
ag191
ag192
ag193
ag194
ag195
ag196
ag197
ag198
ag199
ag200
ag201
ag202
ag203
ag204
ag205
ag262
ag263
ag264
ag265
ag266
ag267
ag268
ag269
ag270
ag271
ag272
ag273
ag274
ag275
ag276
ag277
ag278
ag279
ag280
ag281
ag282
ag28
ag29
ag46
ag47
ag48
ag68
ag69
ag70
ag71
ag72
ag98
ag99
ag100
ag101
ag102
ag128
ag129
ag130
ag131
ag132
ag158
ag159
ag160
ag161
ag162
ag206
ag30
ag31
ag49
ag50
ag51
ag73
ag74
ag75
ag76
ag77
ag103
ag104
ag105
ag106
ag107
ag133
ag134
ag135
ag136
ag137
ag163
ag164
ag165
ag166
ag167
ag207
ag208
ag209
ag210
ag211
ag212
ag213
ag214
ag215
ag216
ag217
ag218
ag219
ag220
ag221
ag222
ag223
ag224
ag225
ag226
ag227
ag228
ag229
ag230
ag231
ag283
ag284
ag285
ag286
ag287
ag288
ag289
ag290
ag291
ag292
ag293
ag294
ag295
ag296
ag297
ag298
ag299
ag300
ag301
ag302
ag303
ag304
ag305
ag306
ag307
ag316
ag317
ag318
ag319
ag320
ag321
ag322
ag323
ag324
ag325
ag326
ag327
ag328
ag329
ag330
ag331
ag332
ag333
ag334
ag335
ag336
ag337
ag338
ag339
ag340
ag346
ag347
ag348
ag349
ag350
ag351
ag352
ag353
ag354
ag355
ag356
ag357
ag358
ag359
ag360
ag361
ag362
ag363
ag364
ag365
ag366
ag367
ag368
ag369
ag370
ag371
ag372
ag373
ag374
ag375
ag376
ag377
ag378
ag379
ag380
ag381
ag382
ag383
ag384
ag385
ag386
ag387
ag388
ag389
ag390
ag391
ag392
ag393
ag394
ag395
ag396
ag397
ag398
ag399
ag400
ag401
ag402
ag403
ag404
ag405
ag406
ag407
ag408
ag409
ag410
ag411
ag412
ag413
ag414
ag415
ag416
ag417
ag418
ag419
ag420
ag421
ag422
ag423
ag424
ag425
ag32
ag33
ag34
ag35
ag52
ag53
ag54
ag78
ag79
ag80
ag81
ag82
ag108
ag109
ag110
ag111
ag112
ag138
ag139
ag140
ag141
ag142
ag168
ag169
ag170
ag36
ag37
ag55
ag56
ag57
ag83
ag84
ag85
ag86
ag87
ag113
ag114
ag115
ag116
ag117
ag143
ag144
ag145
ag146
ag147
ag171
ag172
ag173
ag174
ag175
ag232
ag233
ag234
ag235
ag236
ag237
ag238
ag239
ag240
ag241
ag242
ag243
ag244
ag245
ag246
ag247
ag248
ag249
ag250
ag251
ag252
ag253
ag254
ag255
ag256
ag308
ag309
ag310
asasS'summary'
p446
S'Degree-based weights and average-median qa weights'
p447
sS'trials'
p448
(lp449
I2
aI5
aI10
aI15
aI20
aI25
aI50
aI75
aI100
aI200
aI400
aI700
aI1000
aI1500
asS'q_text_entities'
p450
(lp451
S'myocardial infarction'
p452
aS'ventricular tachycardia'
p453
aS'dizziness'
p454
aS'consciousnes'
p455
aS'hypokalemic'
p456
aS'Torsades de Pointes'
p457
aS'antiarrhythmic'
p458
asS'weights'
p459
S'deg_weight'
p460
sS'graph'
p461
S'drugbank-ext-v2.graphml'
p462
sS'date'
p463
S'2014/07/16 02:24'
p464
sS'correct'
p465
I2
sS'ans_text_entities'
p466
(lp467
(lp468
S'sotalol'
p469
aa(lp470
S'procainamide'
p471
aa(lp472
S'<http://bio2rdf.org/drugbank_resource:bc2c80c68b00a7bc37b5afd1857d8b21>'
p473
aa(lp474
S'lidocaine'
p475
aas.