(dp1
S'expid'
p2
S'e5-v7'
p3
sS'description'
p4
S'What is the effect of certain design choices?\n    In particular, what is the effect of the qa-distance function?\n    And, second, how does the algorigh perform using rel_weights?'
p5
sS'trials'
p6
(lp7
I2
aI10
aI20
aI30
aI40
aI50
aI60
aI70
aI80
aI90
aI100
aI110
aI120
aI130
aI140
aI150
aI160
aI170
aI180
aI190
aI200
aI210
aI220
aI230
aI240
aI250
aI260
aI270
aI280
aI290
aI300
aI310
aI320
aI330
aI340
aI350
aI360
aI370
aI380
aI390
aI400
aI410
aI420
aI430
aI440
aI450
aI460
aI470
aI480
aI490
asS'qa_dist_fn'
p8
c__main__
med_med_qa_distance
p9
sS'results'
p10
(lp11
(dp12
S'output'
p13
(cnumpy.core.multiarray
scalar
p14
(cnumpy
dtype
p15
(S'i8'
I0
I1
tRp16
(I3
S'<'
NNNI-1
I-1
I0
tbS'\x00\x00\x00\x00\x00\x00\x00\x00'
tRp17
cnumpy.core.multiarray
_reconstruct
p18
(cnumpy
ndarray
p19
(I0
tS'b'
tRp20
(I1
(I4
tg15
(S'f8'
I0
I1
tRp21
(I3
S'<'
NNNI-1
I-1
I0
tbI00
S'\x00\x00\x00\x00\x00\x00\x00@\x00\x00\x00\x00\x00\x00\x00@\x00\x00\x00\x00\x00\x00\x00@\x00\x00\x00\x00\x00\x00\x00@'
tbtp22
sS'q_entities'
p23
(lp24
S'<http://bio2rdf.org/drugbank:DB02573>'
p25
aS'<http://bio2rdf.org/drugbank:DB02947>'
p26
aS'<http://bio2rdf.org/drugbank:BE0001218>'
p27
aS'<http://bio2rdf.org/drugbank_resource:dd1f46b3f814ae19967e3aa941116f21>'
p28
aS'<http://bio2rdf.org/drugbank:DB00495>'
p29
aS'<http://bio2rdf.org/drugbank:BE0001667>'
p30
aS'<http://bio2rdf.org/drugbank:DB00709>'
p31
aS'<http://bio2rdf.org/drugbank_resource:5524af5a69a8a56dfce67eed71af8d43>'
p32
aS'<http://bio2rdf.org/drugbank:DB00943>'
p33
aS'<http://bio2rdf.org/drugbank_resource:51a493652a13f9f15bfa7880693fc8f4>'
p34
aS'<http://bio2rdf.org/drugbank_resource:calculated-properties-DB00495-10>'
p35
aS'<http://bio2rdf.org/drugbank_resource:4ae6628acf456f373bb1241494313680>'
p36
aS'<http://bio2rdf.org/drugbank_resource:8069e8c4ef1d26165be249ff29aa06d8>'
p37
aS'<http://bio2rdf.org/drugbank_resource:febcec2ab95e291795b5d3aab5c19806>'
p38
asS'q_len'
p39
I14
sS'n'
I2
sa(dp40
g13
(g14
(g16
S'\x00\x00\x00\x00\x00\x00\x00\x00'
tRp41
g18
(g19
(I0
tS'b'
tRp42
(I1
(I4
tg21
I00
S'\x00\x00\x00\x00\x00\x00\x00@\x00\x00\x00\x00\x00\x00\x00@\x00\x00\x00\x00\x00\x00\x00@\x00\x00\x00\x00\x00\x00\x00@'
tbtp43
sg23
(lp44
g25
ag26
aS"<http://bio2rdf.org/drugbank_vocabulary:5'-[N-[(3s)-3-Amino-3-Carboxypropyl]-N-Methylamino]-5'-Deoxyadenosine>"
p45
aS'<http://bio2rdf.org/drugbank:DB03716>'
p46
aS'<http://bio2rdf.org/drugbank:DB02573>'
p47
aS'<http://bio2rdf.org/drugbank:DB02947>'
p48
aS'<http://bio2rdf.org/drugbank:DB03716>'
p49
aS"<http://bio2rdf.org/drugbank_vocabulary:5'-[N-[(3s)-3-Amino-3-Carboxypropyl]-N-Methylamino]-5'-Deoxyadenosine>"
p50
aS'<http://bio2rdf.org/drugbank_resource:0af7b52de7c231d2b18103eedd8afac6>'
p51
aS"<http://bio2rdf.org/drugbank_vocabulary:5'-[N-[(3s)-3-Amino-3-Carboxypropyl]-N-Methylamino]-5'-Deoxyadenosine>"
p52
ag27
ag28
aS'<http://bio2rdf.org/drugbank_resource:41f41e4111532cb6ffe23996850852a5>'
p53
aS'<http://bio2rdf.org/drugbank_resource:d25a1498a6928f4ec245f730e1c7361d>'
p54
aS'<http://bio2rdf.org/drugbank_resource:76c04f36b8437521d0973352f80eff02>'
p55
aS'<http://bio2rdf.org/drugbank_resource:51f4ea955e20199e39200ae8f2717b5d>'
p56
aS'<http://bio2rdf.org/drugbank_resource:e8679877bff5eea2db3bc0017366cf02>'
p57
aS'<http://bio2rdf.org/drugbank_resource:11168e1047169f5c5034d23b19c09ead>'
p58
aS'<http://bio2rdf.org/drugbank_resource:7a0084de517fc32ebc79fa1cdce0dd34>'
p59
aS'<http://bio2rdf.org/drugbank_resource:d34ae46da31b9764c2bc974e02b21a71>'
p60
ag29
ag30
aS'<http://bio2rdf.org/drugbank_resource:b6058c7beb94d0fd5ce55f119743ca63>'
p61
aS'<http://bio2rdf.org/drugbank:DB00943>'
p62
aS'<http://bio2rdf.org/drugbank_resource:d6662f94aaf0247859cf44477cc46d19>'
p63
aS'<http://bio2rdf.org/drugbank_resource:8739b9a4b6e21dbd59226dd1a794cf31>'
p64
aS'<http://bio2rdf.org/drugbank_resource:7e726c96468b7f5aec8355d21c38ad50>'
p65
aS'<http://bio2rdf.org/drugbank_resource:7ba164a8211d3349080d3bdae8fab1f7>'
p66
aS'<http://bio2rdf.org/drugbank_resource:e1322c4847b4c6b1c54575991a554ac4>'
p67
aS'<http://bio2rdf.org/drugbank_resource:da4f1790e97e9296162f48811061cb9d>'
p68
ag31
ag32
aS'<http://bio2rdf.org/drugbank_resource:5d9496db3a3b2b800487fb51c7162950>'
p69
aS'<http://bio2rdf.org/drugbank:DB05228>'
p70
aS'<http://bio2rdf.org/drugbank_resource:d6420ab6f3cf89ce3fe8c5831402371e>'
p71
aS'<http://bio2rdf.org/drugbank_resource:4ae6628acf456f373bb1241494313680>'
p72
aS'<http://bio2rdf.org/drugbank_resource:fd39b01f96e3a80b0899e380c7507c79>'
p73
aS'<http://bio2rdf.org/drugbank:DB00300>'
p74
aS'<http://bio2rdf.org/drugbank_resource:08d0fa54553c69d124a356172a2da104>'
p75
aS'<http://bio2rdf.org/drugbank_resource:dd1f46b3f814ae19967e3aa941116f21>'
p76
ag33
ag34
aS'<http://bio2rdf.org/drugbank_resource:cf68dbe2ccc938c0c1d778610549ef55>'
p77
aS'<http://bio2rdf.org/drugbank_resource:b6058c7beb94d0fd5ce55f119743ca63>'
p78
aS'<http://bio2rdf.org/drugbank_resource:7a0084de517fc32ebc79fa1cdce0dd34>'
p79
aS'<http://bio2rdf.org/drugbank_resource:76c04f36b8437521d0973352f80eff02>'
p80
aS'<http://bio2rdf.org/drugbank_resource:51f4ea955e20199e39200ae8f2717b5d>'
p81
aS'<http://bio2rdf.org/drugbank_resource:c8a52bb6529b48b77f58f467ac6f50a1>'
p82
aS'<http://bio2rdf.org/drugbank_resource:f246c72c7439c8777583162763440757>'
p83
aS'<http://bio2rdf.org/drugbank_resource:e98047130e40dc991c8215e0210294ad>'
p84
ag35
ag36
aS'<http://bio2rdf.org/wikipedia:Zidovudine>'
p85
aS'<http://bio2rdf.org/drugbank_resource:Combid>'
p86
aS'<http://bio2rdf.org/drugbank_resource:Avocomb>'
p87
aS'<http://bio2rdf.org/drugbank_resource:Avudin>'
p88
aS'<http://bio2rdf.org/drugbank_resource:Biovir>'
p89
aS'<http://bio2rdf.org/drugbank_resource:Cipla-Duovir>'
p90
aS'<http://bio2rdf.org/drugbank_resource:Cytocom>'
p91
aS'<http://bio2rdf.org/drugbank_resource:Ganvirel-Duo>'
p92
ag37
ag38
aS'<http://bio2rdf.org/drugbank_resource:35ae2f32598bfc4e5d071ca6b55eb635>'
p93
aS'<http://bio2rdf.org/drugbank_resource:5f1019892af904259e3533b9b9f9cef3>'
p94
aS'<http://bio2rdf.org/drugbank_resource:5b58142878345818d14535ffff60e7dc>'
p95
aS'<http://bio2rdf.org/drugbank_resource:c924f5533e36f0c96f9df2dcb5a51070>'
p96
aS'<http://bio2rdf.org/drugbank_resource:b8aa593aa534794a6c1230548cf41e08>'
p97
aS'<http://bio2rdf.org/drugbank_resource:7cd9314a589894288607e3f69cf82aa9>'
p98
aS'<http://bio2rdf.org/drugbank_resource:695dae7eee65c1184ebbacf21a52da36>'
p99
aS'<http://bio2rdf.org/drugbank_resource:bc3c0498349c8454c719b777feb87df0>'
p100
asg39
I70
sS'n'
I10
sa(dp101
g13
(g14
(g16
S'\x00\x00\x00\x00\x00\x00\x00\x00'
tRp102
g18
(g19
(I0
tS'b'
tRp103
(I1
(I4
tg21
I00
S'\x00\x00\x00\x00\x00\x00\x00@\x00\x00\x00\x00\x00\x00\x00@\x00\x00\x00\x00\x00\x00\x00@\x00\x00\x00\x00\x00\x00\x00@'
tbtp104
sg23
(lp105
g25
ag26
ag45
ag46
ag47
ag48
ag49
ag50
ag51
ag52
aS'<http://bio2rdf.org/drugbank_resource:1381a171a212990181a6aad111bcb533>'
p106
aS'<http://bio2rdf.org/drugbank_resource:8e1dcb5ec448d70b95b4e8de581db1f0>'
p107
aS'<http://bio2rdf.org/drugbank_resource:f246c72c7439c8777583162763440757>'
p108
aS"<http://bio2rdf.org/drugbank_vocabulary:5'-[N-[(3s)-3-Amino-3-Carboxypropyl]-N-Methylamino]-5'-Deoxyadenosine>"
p109
aS"<http://bio2rdf.org/drugbank_vocabulary:5'-[N-[(3s)-3-Amino-3-Carboxypropyl]-N-Methylamino]-5'-Deoxyadenosine>"
p110
aS'<http://bio2rdf.org/drugbank_resource:4b7b6b33e952268669c6bcc19f0e9a47>'
p111
aS'<http://bio2rdf.org/drugbank_resource:6f49e1143ca22c3d5731154239b6fa82>'
p112
aS'<http://bio2rdf.org/drugbank_resource:d69d4c8b4006a14887402a3db12a5618>'
p113
aS'<http://bio2rdf.org/drugbank_resource:e98047130e40dc991c8215e0210294ad>'
p114
aS'<http://bio2rdf.org/drugbank_resource:9a31158364606e8c2f84582f61bd993e>'
p115
ag27
ag28
ag53
ag54
ag55
ag56
ag57
ag58
ag59
ag60
aS'<http://bio2rdf.org/drugbank_resource:8cab8ce4d252226be193312fc01c4615>'
p116
aS'<http://bio2rdf.org/drugbank_resource:778d26a251be340dea392b7179181db4>'
p117
aS'<http://bio2rdf.org/drugbank_resource:44145bd60d187ae53e10d42aa1d126e0>'
p118
aS'<http://bio2rdf.org/drugbank_resource:ccdebb4e140093739925bc9052d4575d>'
p119
aS'<http://bio2rdf.org/drugbank_resource:0978f2a4793088a06752ef94bcb2a41f>'
p120
aS'<http://bio2rdf.org/drugbank_resource:4c5a18f63601fc79a778956507b27124>'
p121
aS'<http://bio2rdf.org/drugbank_resource:e077cef3b00c70353e4b40350d0b9dc5>'
p122
aS'<http://bio2rdf.org/drugbank_resource:4e116831377945974844123477c94d11>'
p123
aS'<http://bio2rdf.org/drugbank_resource:8e273d05ae5d1365a3420e051a7739c4>'
p124
aS'<http://bio2rdf.org/drugbank_resource:f1c1c0243af97612a3cd132afbce25be>'
p125
ag29
ag30
ag61
ag62
ag63
ag64
ag65
ag66
ag67
ag68
aS'<http://bio2rdf.org/drugbank_resource:1e69b2728fb47129630d7b13b6565dc5>'
p126
aS'<http://bio2rdf.org/drugbank_resource:51a493652a13f9f15bfa7880693fc8f4>'
p127
aS'<http://bio2rdf.org/drugbank_resource:b32da34f868abf10f48ac93c0289803c>'
p128
aS'<http://bio2rdf.org/drugbank_resource:886a56c32aa326ce14ee5fddd4e88a7c>'
p129
aS'<http://bio2rdf.org/drugbank_resource:76c04f36b8437521d0973352f80eff02>'
p130
aS'<http://bio2rdf.org/drugbank_resource:38cbb5517a4fce5f50e741e5c8deeeb2>'
p131
aS'<http://bio2rdf.org/drugbank_resource:d9ea663823ba777b61d6178c216ba28d>'
p132
aS'<http://bio2rdf.org/drugbank_resource:1722eb920ad0bbe1db51ac1d1a159d28>'
p133
aS'<http://bio2rdf.org/drugbank_resource:e575717ae39517db8b48e9da5d25e30c>'
p134
aS'<http://bio2rdf.org/drugbank_resource:8b58c2bbdb6fc525f9a11f116d5d2d78>'
p135
ag31
ag32
ag69
ag70
ag71
ag72
ag73
ag74
ag75
ag76
aS'<http://bio2rdf.org/drugbank_resource:85e317b55999b7a27430a9790de26a66>'
p136
aS'<http://bio2rdf.org/drugbank_resource:b157f64ab8a4f457df8bb878a1492a10>'
p137
aS'<http://bio2rdf.org/drugbank_resource:ea15c95120f73c93ca28ec1a15b48536>'
p138
aS'<http://bio2rdf.org/drugbank:DB00943>'
p139
aS'<http://bio2rdf.org/drugbank_resource:8e273d05ae5d1365a3420e051a7739c4>'
p140
aS'<http://bio2rdf.org/drugbank_resource:d1cb83e9bff15515880f9e15f8bdc957>'
p141
aS'<http://bio2rdf.org/drugbank_resource:425518c4ac4b087126b14b9ce0e7fe1b>'
p142
aS'<http://bio2rdf.org/drugbank_resource:40399ad2d2482e70ad847052042cba9f>'
p143
aS'<http://bio2rdf.org/drugbank_resource:d34ae46da31b9764c2bc974e02b21a71>'
p144
aS'<http://bio2rdf.org/drugbank_resource:fa4334e48e40e8d5ac4eb24171c364fa>'
p145
ag33
ag34
ag77
ag78
ag79
ag80
ag81
ag82
ag83
ag84
aS'<http://bio2rdf.org/drugbank_resource:b157f64ab8a4f457df8bb878a1492a10>'
p146
aS'<http://bio2rdf.org/drugbank_resource:8e273d05ae5d1365a3420e051a7739c4>'
p147
aS'<http://bio2rdf.org/drugbank_resource:1f9520cfa5e06b9a5e77f2508c2d6e87>'
p148
aS'<http://bio2rdf.org/drugbank:DB00970>'
p149
ag35
ag36
ag85
ag86
ag87
ag88
ag89
ag90
ag91
ag92
aS'<http://bio2rdf.org/drugbank_resource:Lamda-Z>'
p150
aS'<http://bio2rdf.org/drugbank_resource:Cytocom-N>'
p151
aS'<http://bio2rdf.org/drugbank_resource:calculated-properties-DB00495-10>'
p152
aS'<http://bio2rdf.org/drugbank_resource:16f596f16a2f57a6500d7e8a98ac9404>'
p153
aS'<http://bio2rdf.org/drugbank_resource:d1cb83e9bff15515880f9e15f8bdc957>'
p154
aS'<http://bio2rdf.org/drugbank_resource:Lamivudine-and-Zidovudine>'
p155
aS'<http://bio2rdf.org/drugbank_resource:Lamivudine-and-Zidovudine>'
p156
aS'<http://bio2rdf.org/drugbank_resource:Lamivudine-and-Zidovudine>'
p157
aS'<http://bio2rdf.org/drugbank_resource:Trizivir>'
p158
aS'<http://bio2rdf.org/drugbank_resource:Trizivir>'
p159
ag37
ag38
ag93
ag94
ag95
ag96
ag97
ag98
ag99
ag100
aS'<http://bio2rdf.org/drugbank_resource:1ace0b3c033dd9c0e8f921de569f17d3>'
p160
aS'<http://bio2rdf.org/drugbank_resource:703a58bd543ce6e87c5eb22579024be0>'
p161
aS'<http://bio2rdf.org/drugbank_resource:23f291d257cf1dd41ff7d36c4a8e0014>'
p162
aS'<http://bio2rdf.org/drugbank_resource:37cdf0a17b41427ffefc8c66976a9894>'
p163
aS'<http://bio2rdf.org/drugbank_resource:7612c80c4b85cde88e984138cff9fda3>'
p164
aS'<http://bio2rdf.org/drugbank_resource:199ce6ec43abf8b17c36780b32c10b2e>'
p165
aS'<http://bio2rdf.org/drugbank_resource:c51d4caf224a13eba60feab4e86958c3>'
p166
aS'<http://bio2rdf.org/drugbank_resource:7921794a9b077dd3150073303a3cb962>'
p167
aS'<http://bio2rdf.org/drugbank_resource:138b47706025a903063bca30bbcbdcf2>'
p168
aS'<http://bio2rdf.org/drugbank_resource:72c7b64a0278833f006cc8f9ebd58efa>'
p169
asg39
I134
sS'n'
I20
sa(dp170
g13
(g14
(g16
S'\x00\x00\x00\x00\x00\x00\x00\x00'
tRp171
g18
(g19
(I0
tS'b'
tRp172
(I1
(I4
tg21
I00
S'\x00\x00\x00\x00\x00\x00\x00@\x00\x00\x00\x00\x00\x00\x00@\x00\x00\x00\x00\x00\x00\x00@\x00\x00\x00\x00\x00\x00\x00@'
tbtp173
sg23
(lp174
g25
ag26
ag45
ag46
ag47
ag48
ag49
ag50
ag51
ag52
ag106
ag107
ag108
ag109
ag110
ag111
ag112
ag113
ag114
ag115
aS'<http://bio2rdf.org/drugbank_resource:41f41e4111532cb6ffe23996850852a5>'
p175
aS'<http://bio2rdf.org/drugbank:DB03222>'
p176
aS'<http://bio2rdf.org/drugbank:DB03222>'
p177
aS'<http://bio2rdf.org/drugbank:DB04485>'
p178
aS'<http://bio2rdf.org/drugbank:BE0001731>'
p179
aS'<http://bio2rdf.org/drugbank:BE0001556>'
p180
ag27
ag28
ag53
ag54
ag55
ag56
ag57
ag58
ag59
ag60
ag116
ag117
ag118
ag119
ag120
ag121
ag122
ag123
ag124
ag125
aS'<http://bio2rdf.org/drugbank_resource:e98047130e40dc991c8215e0210294ad>'
p181
aS'<http://bio2rdf.org/drugbank_resource:fe2695819cad1797be87d6c4b67dd8d2>'
p182
aS'<http://bio2rdf.org/drugbank_resource:155d10ed42188391ec9c054f90b4d91b>'
p183
aS'<http://bio2rdf.org/drugbank_resource:b6058c7beb94d0fd5ce55f119743ca63>'
p184
aS'<http://bio2rdf.org/drugbank_resource:091df563607d4fdfe7102639140a0314>'
p185
aS'<http://bio2rdf.org/drugbank_resource:9d9aff577549d959cbdb935abe34bee0>'
p186
aS'<http://bio2rdf.org/drugbank_resource:b6e49069b3e39b22a03227631c16f227>'
p187
aS'<http://bio2rdf.org/drugbank_resource:2475486082ccacad6ca9b29d6ec97d82>'
p188
aS'<http://bio2rdf.org/drugbank_resource:1f9520cfa5e06b9a5e77f2508c2d6e87>'
p189
aS'<http://bio2rdf.org/drugbank:DB00900>'
p190
ag29
ag30
ag61
ag62
ag63
ag64
ag65
ag66
ag67
ag68
ag126
ag127
ag128
ag129
ag130
ag131
ag132
ag133
ag134
ag135
aS'<http://bio2rdf.org/drugbank_resource:83e2951873b95c4cd7faa52da0a3d5e2>'
p191
aS'<http://bio2rdf.org/drugbank_resource:e064b83b901106207c6d0edbee634798>'
p192
aS'<http://bio2rdf.org/drugbank_resource:b7b70130c66f757a546be3f3e8581260>'
p193
aS'<http://bio2rdf.org/drugbank:DB00442>'
p194
aS'<http://bio2rdf.org/drugbank_resource:0a61abac69324cb6158a2af2f5941c84>'
p195
aS'<http://bio2rdf.org/drugbank_resource:0978f2a4793088a06752ef94bcb2a41f>'
p196
aS'<http://bio2rdf.org/drugbank_resource:6a8eb83fccbadfd0d6564dbdf03c06da>'
p197
aS'<http://bio2rdf.org/drugbank:DB05060>'
p198
aS'<http://bio2rdf.org/drugbank_resource:c81d90fa4e70225c424a1ce63ce2062a>'
p199
aS'<http://bio2rdf.org/drugbank_resource:73668ef550de6539613a2889902dbf73>'
p200
ag31
ag32
ag69
ag70
ag71
ag72
ag73
ag74
ag75
ag76
ag136
ag137
ag138
ag139
ag140
ag141
ag142
ag143
ag144
ag145
aS'<http://bio2rdf.org/drugbank_resource:4c43b083d27d561f8c90a55123d5dba3>'
p201
aS'<http://bio2rdf.org/drugbank_resource:f246c72c7439c8777583162763440757>'
p202
aS'<http://bio2rdf.org/drugbank_resource:60b6ddd7a8f7546eb80c5ec9f77cdf94>'
p203
aS'<http://bio2rdf.org/drugbank_resource:7a0084de517fc32ebc79fa1cdce0dd34>'
p204
aS'<http://bio2rdf.org/drugbank_resource:1b4e550ca199af3136abb1fca6697741>'
p205
aS'<http://bio2rdf.org/drugbank_resource:51f4ea955e20199e39200ae8f2717b5d>'
p206
aS'<http://bio2rdf.org/drugbank_resource:334a228ef3dfe692771a870afa41329c>'
p207
aS'<http://bio2rdf.org/drugbank_resource:920f159188a5763be91d3999a27798b3>'
p208
aS'<http://bio2rdf.org/drugbank_resource:2f27d4bd79b12628ec476767c0f4e030>'
p209
aS'<http://bio2rdf.org/drugbank_resource:e7efbff1e7e96879a3270d796956d8d6>'
p210
ag33
ag34
ag77
ag78
ag79
ag80
ag81
ag82
ag83
ag84
ag146
ag147
ag148
ag149
ag35
ag36
ag85
ag86
ag87
ag88
ag89
ag90
ag91
ag92
ag150
ag151
ag152
ag153
ag154
ag155
ag156
ag157
ag158
ag159
aS'<http://bio2rdf.org/drugbank_resource:DB00495_DB00649>'
p211
aS'<http://bio2rdf.org/drugbank_resource:DB00495_DB00932>'
p212
aS'<http://bio2rdf.org/drugbank_resource:DB00333_DB00495>'
p213
aS'<http://bio2rdf.org/drugbank_resource:DB00495_DB01117>'
p214
aS'<http://bio2rdf.org/drugbank_resource:DB00333_DB00495>'
p215
aS'<http://bio2rdf.org/drugbank_resource:DB00495_DB01117>'
p216
aS'<http://bio2rdf.org/drugbank_resource:DB00495_DB01045>'
p217
aS'<http://bio2rdf.org/drugbank_resource:DB00068_DB00495>'
p218
aS'<http://bio2rdf.org/drugbank_resource:DB00495_DB00997>'
p219
aS'<http://bio2rdf.org/drugbank_resource:Combivir>'
p220
ag37
ag38
ag93
ag94
ag95
ag96
ag97
ag98
ag99
ag100
ag160
ag161
ag162
ag163
ag164
ag165
ag166
ag167
ag168
ag169
aS'<http://bio2rdf.org/drugbank_resource:216e05bfbe71b7bc3a0fc242e5393526>'
p221
aS'<http://bio2rdf.org/drugbank_resource:476b0e71f45f1e6109d650c91187376d>'
p222
aS'<http://bio2rdf.org/drugbank_resource:e6382f4d83246dd7574f9932b0f6a441>'
p223
aS'<http://bio2rdf.org/drugbank_resource:1c1c988707cce70a99a865dc9f2affab>'
p224
aS'<http://bio2rdf.org/drugbank_resource:06c1f9b941b6abebd0dd3f12d0148390>'
p225
aS'<http://bio2rdf.org/drugbank_resource:37b601a572c04ca9facf0834d0a6c2c9>'
p226
aS'<http://bio2rdf.org/drugbank_resource:dbaef74d523c15713978850dfbf547fd>'
p227
aS'<http://bio2rdf.org/drugbank_resource:6464ceab8ac90dccfbc0cc7ae9afeb1a>'
p228
aS'<http://bio2rdf.org/drugbank:DB00665>'
p229
aS'<http://bio2rdf.org/drugbank:DB01367>'
p230
asg39
I190
sS'n'
I30
sa(dp231
g13
(g14
(g16
S'\x00\x00\x00\x00\x00\x00\x00\x00'
tRp232
g18
(g19
(I0
tS'b'
tRp233
(I1
(I4
tg21
I00
S'\x00\x00\x00\x00\x00\x00\x00@\x00\x00\x00\x00\x00\x00\x00@\x00\x00\x00\x00\x00\x00\x00@\x00\x00\x00\x00\x00\x00\x00@'
tbtp234
sg23
(lp235
g25
ag26
ag45
ag46
ag47
ag48
ag49
ag50
ag51
ag52
ag106
ag107
ag108
ag109
ag110
ag111
ag112
ag113
ag114
ag115
ag175
ag176
ag177
ag178
ag179
ag180
ag27
ag28
ag53
ag54
ag55
ag56
ag57
ag58
ag59
ag60
ag116
ag117
ag118
ag119
ag120
ag121
ag122
ag123
ag124
ag125
ag181
ag182
ag183
ag184
ag185
ag186
ag187
ag188
ag189
ag190
ag29
ag30
ag61
ag62
ag63
ag64
ag65
ag66
ag67
ag68
ag126
ag127
ag128
ag129
ag130
ag131
ag132
ag133
ag134
ag135
ag191
ag192
ag193
ag194
ag195
ag196
ag197
ag198
ag199
ag200
aS'<http://bio2rdf.org/drugbank_resource:32dc7fd32146dc55e4bb7ae8c80111ef>'
p236
aS'<http://bio2rdf.org/drugbank_resource:d1cb83e9bff15515880f9e15f8bdc957>'
p237
aS'<http://bio2rdf.org/drugbank_resource:a73f762ea8cf789383f28463a8b4e7a7>'
p238
aS'<http://bio2rdf.org/drugbank_resource:7de8f358feb5564a0a8e45e16732464b>'
p239
aS'<http://bio2rdf.org/drugbank_resource:d86aa8df2a7f00be2c360ec724beff42>'
p240
aS'<http://bio2rdf.org/drugbank_resource:11168e1047169f5c5034d23b19c09ead>'
p241
aS'<http://bio2rdf.org/drugbank_resource:bc897473441e06dd07310521ae45dd38>'
p242
aS'<http://bio2rdf.org/drugbank_resource:72a909df7cbe7aa381c14dde2bf7cfc5>'
p243
aS'<http://bio2rdf.org/drugbank_resource:e24f7c4ac1c5b7296270f5175635a357>'
p244
aS'<http://bio2rdf.org/drugbank:BE0001468>'
p245
ag31
ag32
ag69
ag70
ag71
ag72
ag73
ag74
ag75
ag76
ag136
ag137
ag138
ag139
ag140
ag141
ag142
ag143
ag144
ag145
ag201
ag202
ag203
ag204
ag205
ag206
ag207
ag208
ag209
ag210
aS'<http://bio2rdf.org/drugbank_resource:78c0642412264f8ee62be60b9fd92496>'
p246
aS'<http://bio2rdf.org/drugbank_resource:4c5a18f63601fc79a778956507b27124>'
p247
aS'<http://bio2rdf.org/drugbank_resource:08f82aaa90d4ff2703b0992217214576>'
p248
aS'<http://bio2rdf.org/drugbank_resource:74f915eb3586cb9e3d342dc602990fd9>'
p249
aS'<http://bio2rdf.org/drugbank:DB00705>'
p250
aS'<http://bio2rdf.org/drugbank:DB08864>'
p251
aS'<http://bio2rdf.org/drugbank:DB00625>'
p252
aS'<http://bio2rdf.org/drugbank:DB01048>'
p253
aS'<http://bio2rdf.org/drugbank:DB00238>'
p254
aS'<http://bio2rdf.org/drugbank:DB00718>'
p255
ag33
ag34
ag77
ag78
ag79
ag80
ag81
ag82
ag83
ag84
ag146
ag147
ag148
ag149
ag35
ag36
ag85
ag86
ag87
ag88
ag89
ag90
ag91
ag92
ag150
ag151
ag152
ag153
ag154
ag155
ag156
ag157
ag158
ag159
ag211
ag212
ag213
ag214
ag215
ag216
ag217
ag218
ag219
ag220
aS'<http://bio2rdf.org/drugbank_resource:DB00495_DB01004>'
p256
aS'<http://bio2rdf.org/drugbank_resource:DB00495_DB01004>'
p257
aS'<http://bio2rdf.org/drugbank_resource:Zidovudine>'
p258
aS'<http://bio2rdf.org/drugbank_resource:Zidovudine>'
p259
aS'<http://bio2rdf.org/drugbank_resource:Lamivudine-and-Zidovudine,>'
p260
aS'<http://bio2rdf.org/drugbank_resource:Lamivudine-and-Zidovudine,>'
p261
aS'<http://bio2rdf.org/drugbank_resource:Lamivudine-and-Zidovudine,>'
p262
ag37
ag38
ag93
ag94
ag95
ag96
ag97
ag98
ag99
ag100
ag160
ag161
ag162
ag163
ag164
ag165
ag166
ag167
ag168
ag169
ag221
ag222
ag223
ag224
ag225
ag226
ag227
ag228
ag229
ag230
aS'<http://bio2rdf.org/drugbank:DB04914>'
p263
aS'<http://bio2rdf.org/drugbank:DB05015>'
p264
aS'<http://bio2rdf.org/drugbank:DB05322>'
p265
asg39
I220
sS'n'
I40
sa(dp266
g13
(g14
(g16
S'\x00\x00\x00\x00\x00\x00\x00\x00'
tRp267
g18
(g19
(I0
tS'b'
tRp268
(I1
(I4
tg21
I00
S'\x00\x00\x00\x00\x00\x00\x00@\x00\x00\x00\x00\x00\x00\x00@\x00\x00\x00\x00\x00\x00\x00@\x00\x00\x00\x00\x00\x00\x00@'
tbtp269
sg23
(lp270
g25
ag26
ag45
ag46
ag47
ag48
ag49
ag50
ag51
ag52
ag106
ag107
ag108
ag109
ag110
ag111
ag112
ag113
ag114
ag115
ag175
ag176
ag177
ag178
ag179
ag180
ag27
ag28
ag53
ag54
ag55
ag56
ag57
ag58
ag59
ag60
ag116
ag117
ag118
ag119
ag120
ag121
ag122
ag123
ag124
ag125
ag181
ag182
ag183
ag184
ag185
ag186
ag187
ag188
ag189
ag190
ag29
ag30
ag61
ag62
ag63
ag64
ag65
ag66
ag67
ag68
ag126
ag127
ag128
ag129
ag130
ag131
ag132
ag133
ag134
ag135
ag191
ag192
ag193
ag194
ag195
ag196
ag197
ag198
ag199
ag200
ag236
ag237
ag238
ag239
ag240
ag241
ag242
ag243
ag244
ag245
aS'<http://bio2rdf.org/drugbank:BE0001930>'
p271
aS'<http://bio2rdf.org/drugbank:BE0001261>'
p272
aS'<http://bio2rdf.org/drugbank:DB00900>'
p273
aS'<http://bio2rdf.org/drugbank:BE0000057>'
p274
aS'<http://bio2rdf.org/drugbank:BE0003527>'
p275
aS'<http://bio2rdf.org/drugbank:DB00369>'
p276
aS'<http://bio2rdf.org/drugbank:BE0000282>'
p277
aS'<http://bio2rdf.org/drugbank:BE0002813>'
p278
aS'<http://bio2rdf.org/drugbank:BE0001685>'
p279
aS'<http://bio2rdf.org/drugbank:DB00632>'
p280
ag31
ag32
ag69
ag70
ag71
ag72
ag73
ag74
ag75
ag76
ag136
ag137
ag138
ag139
ag140
ag141
ag142
ag143
ag144
ag145
ag201
ag202
ag203
ag204
ag205
ag206
ag207
ag208
ag209
ag210
ag246
ag247
ag248
ag249
ag250
ag251
ag252
ag253
ag254
ag255
aS'<http://bio2rdf.org/drugbank:DB00649>'
p281
aS'<http://bio2rdf.org/drugbank:DB00900>'
p282
aS'<http://bio2rdf.org/drugbank:DB00879>'
p283
aS'<http://bio2rdf.org/drugbank:DB06414>'
p284
aS'<http://bio2rdf.org/drugbank:DB04886>'
p285
aS'<http://bio2rdf.org/drugbank:DB05083>'
p286
ag33
ag34
ag77
ag78
ag79
ag80
ag81
ag82
ag83
ag84
ag146
ag147
ag148
ag149
ag35
ag36
ag85
ag86
ag87
ag88
ag89
ag90
ag91
ag92
ag150
ag151
ag152
ag153
ag154
ag155
ag156
ag157
ag158
ag159
ag211
ag212
ag213
ag214
ag215
ag216
ag217
ag218
ag219
ag220
ag256
ag257
ag258
ag259
ag260
ag261
ag262
ag37
ag38
ag93
ag94
ag95
ag96
ag97
ag98
ag99
ag100
ag160
ag161
ag162
ag163
ag164
ag165
ag166
ag167
ag168
ag169
ag221
ag222
ag223
ag224
ag225
ag226
ag227
ag228
ag229
ag230
ag263
ag264
ag265
asg39
I236
sS'n'
I50
sa(dp287
g13
(g14
(g16
S'\x00\x00\x00\x00\x00\x00\x00\x00'
tRp288
g18
(g19
(I0
tS'b'
tRp289
(I1
(I4
tg21
I00
S'\x00\x00\x00\x00\x00\x00\x00@\x00\x00\x00\x00\x00\x00\x00@\x00\x00\x00\x00\x00\x00\x00@\x00\x00\x00\x00\x00\x00\x00@'
tbtp290
sg23
(lp291
g25
ag26
ag45
ag46
ag47
ag48
ag49
ag50
ag51
ag52
ag106
ag107
ag108
ag109
ag110
ag111
ag112
ag113
ag114
ag115
ag175
ag176
ag177
ag178
ag179
ag180
ag27
ag28
ag53
ag54
ag55
ag56
ag57
ag58
ag59
ag60
ag116
ag117
ag118
ag119
ag120
ag121
ag122
ag123
ag124
ag125
ag181
ag182
ag183
ag184
ag185
ag186
ag187
ag188
ag189
ag190
ag29
ag30
ag61
ag62
ag63
ag64
ag65
ag66
ag67
ag68
ag126
ag127
ag128
ag129
ag130
ag131
ag132
ag133
ag134
ag135
ag191
ag192
ag193
ag194
ag195
ag196
ag197
ag198
ag199
ag200
ag236
ag237
ag238
ag239
ag240
ag241
ag242
ag243
ag244
ag245
ag271
ag272
ag273
ag274
ag275
ag276
ag277
ag278
ag279
ag280
aS'<http://bio2rdf.org/drugbank:BE0000584>'
p292
aS'<http://bio2rdf.org/drugbank:DB05483>'
p293
aS'<http://bio2rdf.org/drugbank:DB05193>'
p294
ag31
ag32
ag69
ag70
ag71
ag72
ag73
ag74
ag75
ag76
ag136
ag137
ag138
ag139
ag140
ag141
ag142
ag143
ag144
ag145
ag201
ag202
ag203
ag204
ag205
ag206
ag207
ag208
ag209
ag210
ag246
ag247
ag248
ag249
ag250
ag251
ag252
ag253
ag254
ag255
ag281
ag282
ag283
ag284
ag285
ag286
ag33
ag34
ag77
ag78
ag79
ag80
ag81
ag82
ag83
ag84
ag146
ag147
ag148
ag149
ag35
ag36
ag85
ag86
ag87
ag88
ag89
ag90
ag91
ag92
ag150
ag151
ag152
ag153
ag154
ag155
ag156
ag157
ag158
ag159
ag211
ag212
ag213
ag214
ag215
ag216
ag217
ag218
ag219
ag220
ag256
ag257
ag258
ag259
ag260
ag261
ag262
ag37
ag38
ag93
ag94
ag95
ag96
ag97
ag98
ag99
ag100
ag160
ag161
ag162
ag163
ag164
ag165
ag166
ag167
ag168
ag169
ag221
ag222
ag223
ag224
ag225
ag226
ag227
ag228
ag229
ag230
ag263
ag264
ag265
asg39
I239
sS'n'
I60
sa(dp295
g13
(g14
(g16
S'\x00\x00\x00\x00\x00\x00\x00\x00'
tRp296
g18
(g19
(I0
tS'b'
tRp297
(I1
(I4
tg21
I00
S'\x00\x00\x00\x00\x00\x00\x00@\x00\x00\x00\x00\x00\x00\x00@\x00\x00\x00\x00\x00\x00\x00@\x00\x00\x00\x00\x00\x00\x00@'
tbtp298
sg23
(lp299
g25
ag26
ag45
ag46
ag47
ag48
ag49
ag50
ag51
ag52
ag106
ag107
ag108
ag109
ag110
ag111
ag112
ag113
ag114
ag115
ag175
ag176
ag177
ag178
ag179
ag180
ag27
ag28
ag53
ag54
ag55
ag56
ag57
ag58
ag59
ag60
ag116
ag117
ag118
ag119
ag120
ag121
ag122
ag123
ag124
ag125
ag181
ag182
ag183
ag184
ag185
ag186
ag187
ag188
ag189
ag190
ag29
ag30
ag61
ag62
ag63
ag64
ag65
ag66
ag67
ag68
ag126
ag127
ag128
ag129
ag130
ag131
ag132
ag133
ag134
ag135
ag191
ag192
ag193
ag194
ag195
ag196
ag197
ag198
ag199
ag200
ag236
ag237
ag238
ag239
ag240
ag241
ag242
ag243
ag244
ag245
ag271
ag272
ag273
ag274
ag275
ag276
ag277
ag278
ag279
ag280
ag292
ag293
ag294
ag31
ag32
ag69
ag70
ag71
ag72
ag73
ag74
ag75
ag76
ag136
ag137
ag138
ag139
ag140
ag141
ag142
ag143
ag144
ag145
ag201
ag202
ag203
ag204
ag205
ag206
ag207
ag208
ag209
ag210
ag246
ag247
ag248
ag249
ag250
ag251
ag252
ag253
ag254
ag255
ag281
ag282
ag283
ag284
ag285
ag286
ag33
ag34
ag77
ag78
ag79
ag80
ag81
ag82
ag83
ag84
ag146
ag147
ag148
ag149
ag35
ag36
ag85
ag86
ag87
ag88
ag89
ag90
ag91
ag92
ag150
ag151
ag152
ag153
ag154
ag155
ag156
ag157
ag158
ag159
ag211
ag212
ag213
ag214
ag215
ag216
ag217
ag218
ag219
ag220
ag256
ag257
ag258
ag259
ag260
ag261
ag262
ag37
ag38
ag93
ag94
ag95
ag96
ag97
ag98
ag99
ag100
ag160
ag161
ag162
ag163
ag164
ag165
ag166
ag167
ag168
ag169
ag221
ag222
ag223
ag224
ag225
ag226
ag227
ag228
ag229
ag230
ag263
ag264
ag265
asg39
I239
sS'n'
I70
sa(dp300
g13
(g14
(g16
S'\x00\x00\x00\x00\x00\x00\x00\x00'
tRp301
g18
(g19
(I0
tS'b'
tRp302
(I1
(I4
tg21
I00
S'\x00\x00\x00\x00\x00\x00\x00@\x00\x00\x00\x00\x00\x00\x00@\x00\x00\x00\x00\x00\x00\x00@\x00\x00\x00\x00\x00\x00\x00@'
tbtp303
sg23
(lp304
g25
ag26
ag45
ag46
ag47
ag48
ag49
ag50
ag51
ag52
ag106
ag107
ag108
ag109
ag110
ag111
ag112
ag113
ag114
ag115
ag175
ag176
ag177
ag178
ag179
ag180
ag27
ag28
ag53
ag54
ag55
ag56
ag57
ag58
ag59
ag60
ag116
ag117
ag118
ag119
ag120
ag121
ag122
ag123
ag124
ag125
ag181
ag182
ag183
ag184
ag185
ag186
ag187
ag188
ag189
ag190
ag29
ag30
ag61
ag62
ag63
ag64
ag65
ag66
ag67
ag68
ag126
ag127
ag128
ag129
ag130
ag131
ag132
ag133
ag134
ag135
ag191
ag192
ag193
ag194
ag195
ag196
ag197
ag198
ag199
ag200
ag236
ag237
ag238
ag239
ag240
ag241
ag242
ag243
ag244
ag245
ag271
ag272
ag273
ag274
ag275
ag276
ag277
ag278
ag279
ag280
ag292
ag293
ag294
ag31
ag32
ag69
ag70
ag71
ag72
ag73
ag74
ag75
ag76
ag136
ag137
ag138
ag139
ag140
ag141
ag142
ag143
ag144
ag145
ag201
ag202
ag203
ag204
ag205
ag206
ag207
ag208
ag209
ag210
ag246
ag247
ag248
ag249
ag250
ag251
ag252
ag253
ag254
ag255
ag281
ag282
ag283
ag284
ag285
ag286
ag33
ag34
ag77
ag78
ag79
ag80
ag81
ag82
ag83
ag84
ag146
ag147
ag148
ag149
ag35
ag36
ag85
ag86
ag87
ag88
ag89
ag90
ag91
ag92
ag150
ag151
ag152
ag153
ag154
ag155
ag156
ag157
ag158
ag159
ag211
ag212
ag213
ag214
ag215
ag216
ag217
ag218
ag219
ag220
ag256
ag257
ag258
ag259
ag260
ag261
ag262
ag37
ag38
ag93
ag94
ag95
ag96
ag97
ag98
ag99
ag100
ag160
ag161
ag162
ag163
ag164
ag165
ag166
ag167
ag168
ag169
ag221
ag222
ag223
ag224
ag225
ag226
ag227
ag228
ag229
ag230
ag263
ag264
ag265
asg39
I239
sS'n'
I80
sa(dp305
g13
(g14
(g16
S'\x00\x00\x00\x00\x00\x00\x00\x00'
tRp306
g18
(g19
(I0
tS'b'
tRp307
(I1
(I4
tg21
I00
S'\x00\x00\x00\x00\x00\x00\x00@\x00\x00\x00\x00\x00\x00\x00@\x00\x00\x00\x00\x00\x00\x00@\x00\x00\x00\x00\x00\x00\x00@'
tbtp308
sg23
(lp309
g25
ag26
ag45
ag46
ag47
ag48
ag49
ag50
ag51
ag52
ag106
ag107
ag108
ag109
ag110
ag111
ag112
ag113
ag114
ag115
ag175
ag176
ag177
ag178
ag179
ag180
ag27
ag28
ag53
ag54
ag55
ag56
ag57
ag58
ag59
ag60
ag116
ag117
ag118
ag119
ag120
ag121
ag122
ag123
ag124
ag125
ag181
ag182
ag183
ag184
ag185
ag186
ag187
ag188
ag189
ag190
ag29
ag30
ag61
ag62
ag63
ag64
ag65
ag66
ag67
ag68
ag126
ag127
ag128
ag129
ag130
ag131
ag132
ag133
ag134
ag135
ag191
ag192
ag193
ag194
ag195
ag196
ag197
ag198
ag199
ag200
ag236
ag237
ag238
ag239
ag240
ag241
ag242
ag243
ag244
ag245
ag271
ag272
ag273
ag274
ag275
ag276
ag277
ag278
ag279
ag280
ag292
ag293
ag294
ag31
ag32
ag69
ag70
ag71
ag72
ag73
ag74
ag75
ag76
ag136
ag137
ag138
ag139
ag140
ag141
ag142
ag143
ag144
ag145
ag201
ag202
ag203
ag204
ag205
ag206
ag207
ag208
ag209
ag210
ag246
ag247
ag248
ag249
ag250
ag251
ag252
ag253
ag254
ag255
ag281
ag282
ag283
ag284
ag285
ag286
ag33
ag34
ag77
ag78
ag79
ag80
ag81
ag82
ag83
ag84
ag146
ag147
ag148
ag149
ag35
ag36
ag85
ag86
ag87
ag88
ag89
ag90
ag91
ag92
ag150
ag151
ag152
ag153
ag154
ag155
ag156
ag157
ag158
ag159
ag211
ag212
ag213
ag214
ag215
ag216
ag217
ag218
ag219
ag220
ag256
ag257
ag258
ag259
ag260
ag261
ag262
ag37
ag38
ag93
ag94
ag95
ag96
ag97
ag98
ag99
ag100
ag160
ag161
ag162
ag163
ag164
ag165
ag166
ag167
ag168
ag169
ag221
ag222
ag223
ag224
ag225
ag226
ag227
ag228
ag229
ag230
ag263
ag264
ag265
asg39
I239
sS'n'
I90
sa(dp310
g13
(g14
(g16
S'\x00\x00\x00\x00\x00\x00\x00\x00'
tRp311
g18
(g19
(I0
tS'b'
tRp312
(I1
(I4
tg21
I00
S'\x00\x00\x00\x00\x00\x00\x00@\x00\x00\x00\x00\x00\x00\x00@\x00\x00\x00\x00\x00\x00\x00@\x00\x00\x00\x00\x00\x00\x00@'
tbtp313
sg23
(lp314
g25
ag26
ag45
ag46
ag47
ag48
ag49
ag50
ag51
ag52
ag106
ag107
ag108
ag109
ag110
ag111
ag112
ag113
ag114
ag115
ag175
ag176
ag177
ag178
ag179
ag180
ag27
ag28
ag53
ag54
ag55
ag56
ag57
ag58
ag59
ag60
ag116
ag117
ag118
ag119
ag120
ag121
ag122
ag123
ag124
ag125
ag181
ag182
ag183
ag184
ag185
ag186
ag187
ag188
ag189
ag190
ag29
ag30
ag61
ag62
ag63
ag64
ag65
ag66
ag67
ag68
ag126
ag127
ag128
ag129
ag130
ag131
ag132
ag133
ag134
ag135
ag191
ag192
ag193
ag194
ag195
ag196
ag197
ag198
ag199
ag200
ag236
ag237
ag238
ag239
ag240
ag241
ag242
ag243
ag244
ag245
ag271
ag272
ag273
ag274
ag275
ag276
ag277
ag278
ag279
ag280
ag292
ag293
ag294
ag31
ag32
ag69
ag70
ag71
ag72
ag73
ag74
ag75
ag76
ag136
ag137
ag138
ag139
ag140
ag141
ag142
ag143
ag144
ag145
ag201
ag202
ag203
ag204
ag205
ag206
ag207
ag208
ag209
ag210
ag246
ag247
ag248
ag249
ag250
ag251
ag252
ag253
ag254
ag255
ag281
ag282
ag283
ag284
ag285
ag286
ag33
ag34
ag77
ag78
ag79
ag80
ag81
ag82
ag83
ag84
ag146
ag147
ag148
ag149
ag35
ag36
ag85
ag86
ag87
ag88
ag89
ag90
ag91
ag92
ag150
ag151
ag152
ag153
ag154
ag155
ag156
ag157
ag158
ag159
ag211
ag212
ag213
ag214
ag215
ag216
ag217
ag218
ag219
ag220
ag256
ag257
ag258
ag259
ag260
ag261
ag262
ag37
ag38
ag93
ag94
ag95
ag96
ag97
ag98
ag99
ag100
ag160
ag161
ag162
ag163
ag164
ag165
ag166
ag167
ag168
ag169
ag221
ag222
ag223
ag224
ag225
ag226
ag227
ag228
ag229
ag230
ag263
ag264
ag265
asg39
I239
sS'n'
I100
sa(dp315
g13
(g14
(g16
S'\x00\x00\x00\x00\x00\x00\x00\x00'
tRp316
g18
(g19
(I0
tS'b'
tRp317
(I1
(I4
tg21
I00
S'\x00\x00\x00\x00\x00\x00\x00@\x00\x00\x00\x00\x00\x00\x00@\x00\x00\x00\x00\x00\x00\x00@\x00\x00\x00\x00\x00\x00\x00@'
tbtp318
sg23
(lp319
g25
ag26
ag45
ag46
ag47
ag48
ag49
ag50
ag51
ag52
ag106
ag107
ag108
ag109
ag110
ag111
ag112
ag113
ag114
ag115
ag175
ag176
ag177
ag178
ag179
ag180
ag27
ag28
ag53
ag54
ag55
ag56
ag57
ag58
ag59
ag60
ag116
ag117
ag118
ag119
ag120
ag121
ag122
ag123
ag124
ag125
ag181
ag182
ag183
ag184
ag185
ag186
ag187
ag188
ag189
ag190
ag29
ag30
ag61
ag62
ag63
ag64
ag65
ag66
ag67
ag68
ag126
ag127
ag128
ag129
ag130
ag131
ag132
ag133
ag134
ag135
ag191
ag192
ag193
ag194
ag195
ag196
ag197
ag198
ag199
ag200
ag236
ag237
ag238
ag239
ag240
ag241
ag242
ag243
ag244
ag245
ag271
ag272
ag273
ag274
ag275
ag276
ag277
ag278
ag279
ag280
ag292
ag293
ag294
ag31
ag32
ag69
ag70
ag71
ag72
ag73
ag74
ag75
ag76
ag136
ag137
ag138
ag139
ag140
ag141
ag142
ag143
ag144
ag145
ag201
ag202
ag203
ag204
ag205
ag206
ag207
ag208
ag209
ag210
ag246
ag247
ag248
ag249
ag250
ag251
ag252
ag253
ag254
ag255
ag281
ag282
ag283
ag284
ag285
ag286
ag33
ag34
ag77
ag78
ag79
ag80
ag81
ag82
ag83
ag84
ag146
ag147
ag148
ag149
ag35
ag36
ag85
ag86
ag87
ag88
ag89
ag90
ag91
ag92
ag150
ag151
ag152
ag153
ag154
ag155
ag156
ag157
ag158
ag159
ag211
ag212
ag213
ag214
ag215
ag216
ag217
ag218
ag219
ag220
ag256
ag257
ag258
ag259
ag260
ag261
ag262
ag37
ag38
ag93
ag94
ag95
ag96
ag97
ag98
ag99
ag100
ag160
ag161
ag162
ag163
ag164
ag165
ag166
ag167
ag168
ag169
ag221
ag222
ag223
ag224
ag225
ag226
ag227
ag228
ag229
ag230
ag263
ag264
ag265
asg39
I239
sS'n'
I110
sa(dp320
g13
(g14
(g16
S'\x00\x00\x00\x00\x00\x00\x00\x00'
tRp321
g18
(g19
(I0
tS'b'
tRp322
(I1
(I4
tg21
I00
S'\x00\x00\x00\x00\x00\x00\x00@\x00\x00\x00\x00\x00\x00\x00@\x00\x00\x00\x00\x00\x00\x00@\x00\x00\x00\x00\x00\x00\x00@'
tbtp323
sg23
(lp324
g25
ag26
ag45
ag46
ag47
ag48
ag49
ag50
ag51
ag52
ag106
ag107
ag108
ag109
ag110
ag111
ag112
ag113
ag114
ag115
ag175
ag176
ag177
ag178
ag179
ag180
ag27
ag28
ag53
ag54
ag55
ag56
ag57
ag58
ag59
ag60
ag116
ag117
ag118
ag119
ag120
ag121
ag122
ag123
ag124
ag125
ag181
ag182
ag183
ag184
ag185
ag186
ag187
ag188
ag189
ag190
ag29
ag30
ag61
ag62
ag63
ag64
ag65
ag66
ag67
ag68
ag126
ag127
ag128
ag129
ag130
ag131
ag132
ag133
ag134
ag135
ag191
ag192
ag193
ag194
ag195
ag196
ag197
ag198
ag199
ag200
ag236
ag237
ag238
ag239
ag240
ag241
ag242
ag243
ag244
ag245
ag271
ag272
ag273
ag274
ag275
ag276
ag277
ag278
ag279
ag280
ag292
ag293
ag294
ag31
ag32
ag69
ag70
ag71
ag72
ag73
ag74
ag75
ag76
ag136
ag137
ag138
ag139
ag140
ag141
ag142
ag143
ag144
ag145
ag201
ag202
ag203
ag204
ag205
ag206
ag207
ag208
ag209
ag210
ag246
ag247
ag248
ag249
ag250
ag251
ag252
ag253
ag254
ag255
ag281
ag282
ag283
ag284
ag285
ag286
ag33
ag34
ag77
ag78
ag79
ag80
ag81
ag82
ag83
ag84
ag146
ag147
ag148
ag149
ag35
ag36
ag85
ag86
ag87
ag88
ag89
ag90
ag91
ag92
ag150
ag151
ag152
ag153
ag154
ag155
ag156
ag157
ag158
ag159
ag211
ag212
ag213
ag214
ag215
ag216
ag217
ag218
ag219
ag220
ag256
ag257
ag258
ag259
ag260
ag261
ag262
ag37
ag38
ag93
ag94
ag95
ag96
ag97
ag98
ag99
ag100
ag160
ag161
ag162
ag163
ag164
ag165
ag166
ag167
ag168
ag169
ag221
ag222
ag223
ag224
ag225
ag226
ag227
ag228
ag229
ag230
ag263
ag264
ag265
asg39
I239
sS'n'
I120
sa(dp325
g13
(g14
(g16
S'\x00\x00\x00\x00\x00\x00\x00\x00'
tRp326
g18
(g19
(I0
tS'b'
tRp327
(I1
(I4
tg21
I00
S'\x00\x00\x00\x00\x00\x00\x00@\x00\x00\x00\x00\x00\x00\x00@\x00\x00\x00\x00\x00\x00\x00@\x00\x00\x00\x00\x00\x00\x00@'
tbtp328
sg23
(lp329
g25
ag26
ag45
ag46
ag47
ag48
ag49
ag50
ag51
ag52
ag106
ag107
ag108
ag109
ag110
ag111
ag112
ag113
ag114
ag115
ag175
ag176
ag177
ag178
ag179
ag180
ag27
ag28
ag53
ag54
ag55
ag56
ag57
ag58
ag59
ag60
ag116
ag117
ag118
ag119
ag120
ag121
ag122
ag123
ag124
ag125
ag181
ag182
ag183
ag184
ag185
ag186
ag187
ag188
ag189
ag190
ag29
ag30
ag61
ag62
ag63
ag64
ag65
ag66
ag67
ag68
ag126
ag127
ag128
ag129
ag130
ag131
ag132
ag133
ag134
ag135
ag191
ag192
ag193
ag194
ag195
ag196
ag197
ag198
ag199
ag200
ag236
ag237
ag238
ag239
ag240
ag241
ag242
ag243
ag244
ag245
ag271
ag272
ag273
ag274
ag275
ag276
ag277
ag278
ag279
ag280
ag292
ag293
ag294
ag31
ag32
ag69
ag70
ag71
ag72
ag73
ag74
ag75
ag76
ag136
ag137
ag138
ag139
ag140
ag141
ag142
ag143
ag144
ag145
ag201
ag202
ag203
ag204
ag205
ag206
ag207
ag208
ag209
ag210
ag246
ag247
ag248
ag249
ag250
ag251
ag252
ag253
ag254
ag255
ag281
ag282
ag283
ag284
ag285
ag286
ag33
ag34
ag77
ag78
ag79
ag80
ag81
ag82
ag83
ag84
ag146
ag147
ag148
ag149
ag35
ag36
ag85
ag86
ag87
ag88
ag89
ag90
ag91
ag92
ag150
ag151
ag152
ag153
ag154
ag155
ag156
ag157
ag158
ag159
ag211
ag212
ag213
ag214
ag215
ag216
ag217
ag218
ag219
ag220
ag256
ag257
ag258
ag259
ag260
ag261
ag262
ag37
ag38
ag93
ag94
ag95
ag96
ag97
ag98
ag99
ag100
ag160
ag161
ag162
ag163
ag164
ag165
ag166
ag167
ag168
ag169
ag221
ag222
ag223
ag224
ag225
ag226
ag227
ag228
ag229
ag230
ag263
ag264
ag265
asg39
I239
sS'n'
I130
sa(dp330
g13
(g14
(g16
S'\x00\x00\x00\x00\x00\x00\x00\x00'
tRp331
g18
(g19
(I0
tS'b'
tRp332
(I1
(I4
tg21
I00
S'\x00\x00\x00\x00\x00\x00\x00@\x00\x00\x00\x00\x00\x00\x00@\x00\x00\x00\x00\x00\x00\x00@\x00\x00\x00\x00\x00\x00\x00@'
tbtp333
sg23
(lp334
g25
ag26
ag45
ag46
ag47
ag48
ag49
ag50
ag51
ag52
ag106
ag107
ag108
ag109
ag110
ag111
ag112
ag113
ag114
ag115
ag175
ag176
ag177
ag178
ag179
ag180
ag27
ag28
ag53
ag54
ag55
ag56
ag57
ag58
ag59
ag60
ag116
ag117
ag118
ag119
ag120
ag121
ag122
ag123
ag124
ag125
ag181
ag182
ag183
ag184
ag185
ag186
ag187
ag188
ag189
ag190
ag29
ag30
ag61
ag62
ag63
ag64
ag65
ag66
ag67
ag68
ag126
ag127
ag128
ag129
ag130
ag131
ag132
ag133
ag134
ag135
ag191
ag192
ag193
ag194
ag195
ag196
ag197
ag198
ag199
ag200
ag236
ag237
ag238
ag239
ag240
ag241
ag242
ag243
ag244
ag245
ag271
ag272
ag273
ag274
ag275
ag276
ag277
ag278
ag279
ag280
ag292
ag293
ag294
ag31
ag32
ag69
ag70
ag71
ag72
ag73
ag74
ag75
ag76
ag136
ag137
ag138
ag139
ag140
ag141
ag142
ag143
ag144
ag145
ag201
ag202
ag203
ag204
ag205
ag206
ag207
ag208
ag209
ag210
ag246
ag247
ag248
ag249
ag250
ag251
ag252
ag253
ag254
ag255
ag281
ag282
ag283
ag284
ag285
ag286
ag33
ag34
ag77
ag78
ag79
ag80
ag81
ag82
ag83
ag84
ag146
ag147
ag148
ag149
ag35
ag36
ag85
ag86
ag87
ag88
ag89
ag90
ag91
ag92
ag150
ag151
ag152
ag153
ag154
ag155
ag156
ag157
ag158
ag159
ag211
ag212
ag213
ag214
ag215
ag216
ag217
ag218
ag219
ag220
ag256
ag257
ag258
ag259
ag260
ag261
ag262
ag37
ag38
ag93
ag94
ag95
ag96
ag97
ag98
ag99
ag100
ag160
ag161
ag162
ag163
ag164
ag165
ag166
ag167
ag168
ag169
ag221
ag222
ag223
ag224
ag225
ag226
ag227
ag228
ag229
ag230
ag263
ag264
ag265
asg39
I239
sS'n'
I140
sa(dp335
g13
(g14
(g16
S'\x00\x00\x00\x00\x00\x00\x00\x00'
tRp336
g18
(g19
(I0
tS'b'
tRp337
(I1
(I4
tg21
I00
S'\x00\x00\x00\x00\x00\x00\x00@\x00\x00\x00\x00\x00\x00\x00@\x00\x00\x00\x00\x00\x00\x00@\x00\x00\x00\x00\x00\x00\x00@'
tbtp338
sg23
(lp339
g25
ag26
ag45
ag46
ag47
ag48
ag49
ag50
ag51
ag52
ag106
ag107
ag108
ag109
ag110
ag111
ag112
ag113
ag114
ag115
ag175
ag176
ag177
ag178
ag179
ag180
ag27
ag28
ag53
ag54
ag55
ag56
ag57
ag58
ag59
ag60
ag116
ag117
ag118
ag119
ag120
ag121
ag122
ag123
ag124
ag125
ag181
ag182
ag183
ag184
ag185
ag186
ag187
ag188
ag189
ag190
ag29
ag30
ag61
ag62
ag63
ag64
ag65
ag66
ag67
ag68
ag126
ag127
ag128
ag129
ag130
ag131
ag132
ag133
ag134
ag135
ag191
ag192
ag193
ag194
ag195
ag196
ag197
ag198
ag199
ag200
ag236
ag237
ag238
ag239
ag240
ag241
ag242
ag243
ag244
ag245
ag271
ag272
ag273
ag274
ag275
ag276
ag277
ag278
ag279
ag280
ag292
ag293
ag294
ag31
ag32
ag69
ag70
ag71
ag72
ag73
ag74
ag75
ag76
ag136
ag137
ag138
ag139
ag140
ag141
ag142
ag143
ag144
ag145
ag201
ag202
ag203
ag204
ag205
ag206
ag207
ag208
ag209
ag210
ag246
ag247
ag248
ag249
ag250
ag251
ag252
ag253
ag254
ag255
ag281
ag282
ag283
ag284
ag285
ag286
ag33
ag34
ag77
ag78
ag79
ag80
ag81
ag82
ag83
ag84
ag146
ag147
ag148
ag149
ag35
ag36
ag85
ag86
ag87
ag88
ag89
ag90
ag91
ag92
ag150
ag151
ag152
ag153
ag154
ag155
ag156
ag157
ag158
ag159
ag211
ag212
ag213
ag214
ag215
ag216
ag217
ag218
ag219
ag220
ag256
ag257
ag258
ag259
ag260
ag261
ag262
ag37
ag38
ag93
ag94
ag95
ag96
ag97
ag98
ag99
ag100
ag160
ag161
ag162
ag163
ag164
ag165
ag166
ag167
ag168
ag169
ag221
ag222
ag223
ag224
ag225
ag226
ag227
ag228
ag229
ag230
ag263
ag264
ag265
asg39
I239
sS'n'
I150
sa(dp340
g13
(g14
(g16
S'\x00\x00\x00\x00\x00\x00\x00\x00'
tRp341
g18
(g19
(I0
tS'b'
tRp342
(I1
(I4
tg21
I00
S'\x00\x00\x00\x00\x00\x00\x00@\x00\x00\x00\x00\x00\x00\x00@\x00\x00\x00\x00\x00\x00\x00@\x00\x00\x00\x00\x00\x00\x00@'
tbtp343
sg23
(lp344
g25
ag26
ag45
ag46
ag47
ag48
ag49
ag50
ag51
ag52
ag106
ag107
ag108
ag109
ag110
ag111
ag112
ag113
ag114
ag115
ag175
ag176
ag177
ag178
ag179
ag180
ag27
ag28
ag53
ag54
ag55
ag56
ag57
ag58
ag59
ag60
ag116
ag117
ag118
ag119
ag120
ag121
ag122
ag123
ag124
ag125
ag181
ag182
ag183
ag184
ag185
ag186
ag187
ag188
ag189
ag190
ag29
ag30
ag61
ag62
ag63
ag64
ag65
ag66
ag67
ag68
ag126
ag127
ag128
ag129
ag130
ag131
ag132
ag133
ag134
ag135
ag191
ag192
ag193
ag194
ag195
ag196
ag197
ag198
ag199
ag200
ag236
ag237
ag238
ag239
ag240
ag241
ag242
ag243
ag244
ag245
ag271
ag272
ag273
ag274
ag275
ag276
ag277
ag278
ag279
ag280
ag292
ag293
ag294
ag31
ag32
ag69
ag70
ag71
ag72
ag73
ag74
ag75
ag76
ag136
ag137
ag138
ag139
ag140
ag141
ag142
ag143
ag144
ag145
ag201
ag202
ag203
ag204
ag205
ag206
ag207
ag208
ag209
ag210
ag246
ag247
ag248
ag249
ag250
ag251
ag252
ag253
ag254
ag255
ag281
ag282
ag283
ag284
ag285
ag286
ag33
ag34
ag77
ag78
ag79
ag80
ag81
ag82
ag83
ag84
ag146
ag147
ag148
ag149
ag35
ag36
ag85
ag86
ag87
ag88
ag89
ag90
ag91
ag92
ag150
ag151
ag152
ag153
ag154
ag155
ag156
ag157
ag158
ag159
ag211
ag212
ag213
ag214
ag215
ag216
ag217
ag218
ag219
ag220
ag256
ag257
ag258
ag259
ag260
ag261
ag262
ag37
ag38
ag93
ag94
ag95
ag96
ag97
ag98
ag99
ag100
ag160
ag161
ag162
ag163
ag164
ag165
ag166
ag167
ag168
ag169
ag221
ag222
ag223
ag224
ag225
ag226
ag227
ag228
ag229
ag230
ag263
ag264
ag265
asg39
I239
sS'n'
I160
sa(dp345
g13
(g14
(g16
S'\x00\x00\x00\x00\x00\x00\x00\x00'
tRp346
g18
(g19
(I0
tS'b'
tRp347
(I1
(I4
tg21
I00
S'\x00\x00\x00\x00\x00\x00\x00@\x00\x00\x00\x00\x00\x00\x00@\x00\x00\x00\x00\x00\x00\x00@\x00\x00\x00\x00\x00\x00\x00@'
tbtp348
sg23
(lp349
g25
ag26
ag45
ag46
ag47
ag48
ag49
ag50
ag51
ag52
ag106
ag107
ag108
ag109
ag110
ag111
ag112
ag113
ag114
ag115
ag175
ag176
ag177
ag178
ag179
ag180
ag27
ag28
ag53
ag54
ag55
ag56
ag57
ag58
ag59
ag60
ag116
ag117
ag118
ag119
ag120
ag121
ag122
ag123
ag124
ag125
ag181
ag182
ag183
ag184
ag185
ag186
ag187
ag188
ag189
ag190
ag29
ag30
ag61
ag62
ag63
ag64
ag65
ag66
ag67
ag68
ag126
ag127
ag128
ag129
ag130
ag131
ag132
ag133
ag134
ag135
ag191
ag192
ag193
ag194
ag195
ag196
ag197
ag198
ag199
ag200
ag236
ag237
ag238
ag239
ag240
ag241
ag242
ag243
ag244
ag245
ag271
ag272
ag273
ag274
ag275
ag276
ag277
ag278
ag279
ag280
ag292
ag293
ag294
ag31
ag32
ag69
ag70
ag71
ag72
ag73
ag74
ag75
ag76
ag136
ag137
ag138
ag139
ag140
ag141
ag142
ag143
ag144
ag145
ag201
ag202
ag203
ag204
ag205
ag206
ag207
ag208
ag209
ag210
ag246
ag247
ag248
ag249
ag250
ag251
ag252
ag253
ag254
ag255
ag281
ag282
ag283
ag284
ag285
ag286
ag33
ag34
ag77
ag78
ag79
ag80
ag81
ag82
ag83
ag84
ag146
ag147
ag148
ag149
ag35
ag36
ag85
ag86
ag87
ag88
ag89
ag90
ag91
ag92
ag150
ag151
ag152
ag153
ag154
ag155
ag156
ag157
ag158
ag159
ag211
ag212
ag213
ag214
ag215
ag216
ag217
ag218
ag219
ag220
ag256
ag257
ag258
ag259
ag260
ag261
ag262
ag37
ag38
ag93
ag94
ag95
ag96
ag97
ag98
ag99
ag100
ag160
ag161
ag162
ag163
ag164
ag165
ag166
ag167
ag168
ag169
ag221
ag222
ag223
ag224
ag225
ag226
ag227
ag228
ag229
ag230
ag263
ag264
ag265
asg39
I239
sS'n'
I170
sa(dp350
g13
(g14
(g16
S'\x00\x00\x00\x00\x00\x00\x00\x00'
tRp351
g18
(g19
(I0
tS'b'
tRp352
(I1
(I4
tg21
I00
S'\x00\x00\x00\x00\x00\x00\x00@\x00\x00\x00\x00\x00\x00\x00@\x00\x00\x00\x00\x00\x00\x00@\x00\x00\x00\x00\x00\x00\x00@'
tbtp353
sg23
(lp354
g25
ag26
ag45
ag46
ag47
ag48
ag49
ag50
ag51
ag52
ag106
ag107
ag108
ag109
ag110
ag111
ag112
ag113
ag114
ag115
ag175
ag176
ag177
ag178
ag179
ag180
ag27
ag28
ag53
ag54
ag55
ag56
ag57
ag58
ag59
ag60
ag116
ag117
ag118
ag119
ag120
ag121
ag122
ag123
ag124
ag125
ag181
ag182
ag183
ag184
ag185
ag186
ag187
ag188
ag189
ag190
ag29
ag30
ag61
ag62
ag63
ag64
ag65
ag66
ag67
ag68
ag126
ag127
ag128
ag129
ag130
ag131
ag132
ag133
ag134
ag135
ag191
ag192
ag193
ag194
ag195
ag196
ag197
ag198
ag199
ag200
ag236
ag237
ag238
ag239
ag240
ag241
ag242
ag243
ag244
ag245
ag271
ag272
ag273
ag274
ag275
ag276
ag277
ag278
ag279
ag280
ag292
ag293
ag294
ag31
ag32
ag69
ag70
ag71
ag72
ag73
ag74
ag75
ag76
ag136
ag137
ag138
ag139
ag140
ag141
ag142
ag143
ag144
ag145
ag201
ag202
ag203
ag204
ag205
ag206
ag207
ag208
ag209
ag210
ag246
ag247
ag248
ag249
ag250
ag251
ag252
ag253
ag254
ag255
ag281
ag282
ag283
ag284
ag285
ag286
ag33
ag34
ag77
ag78
ag79
ag80
ag81
ag82
ag83
ag84
ag146
ag147
ag148
ag149
ag35
ag36
ag85
ag86
ag87
ag88
ag89
ag90
ag91
ag92
ag150
ag151
ag152
ag153
ag154
ag155
ag156
ag157
ag158
ag159
ag211
ag212
ag213
ag214
ag215
ag216
ag217
ag218
ag219
ag220
ag256
ag257
ag258
ag259
ag260
ag261
ag262
ag37
ag38
ag93
ag94
ag95
ag96
ag97
ag98
ag99
ag100
ag160
ag161
ag162
ag163
ag164
ag165
ag166
ag167
ag168
ag169
ag221
ag222
ag223
ag224
ag225
ag226
ag227
ag228
ag229
ag230
ag263
ag264
ag265
asg39
I239
sS'n'
I180
sa(dp355
g13
(g14
(g16
S'\x00\x00\x00\x00\x00\x00\x00\x00'
tRp356
g18
(g19
(I0
tS'b'
tRp357
(I1
(I4
tg21
I00
S'\x00\x00\x00\x00\x00\x00\x00@\x00\x00\x00\x00\x00\x00\x00@\x00\x00\x00\x00\x00\x00\x00@\x00\x00\x00\x00\x00\x00\x00@'
tbtp358
sg23
(lp359
g25
ag26
ag45
ag46
ag47
ag48
ag49
ag50
ag51
ag52
ag106
ag107
ag108
ag109
ag110
ag111
ag112
ag113
ag114
ag115
ag175
ag176
ag177
ag178
ag179
ag180
ag27
ag28
ag53
ag54
ag55
ag56
ag57
ag58
ag59
ag60
ag116
ag117
ag118
ag119
ag120
ag121
ag122
ag123
ag124
ag125
ag181
ag182
ag183
ag184
ag185
ag186
ag187
ag188
ag189
ag190
ag29
ag30
ag61
ag62
ag63
ag64
ag65
ag66
ag67
ag68
ag126
ag127
ag128
ag129
ag130
ag131
ag132
ag133
ag134
ag135
ag191
ag192
ag193
ag194
ag195
ag196
ag197
ag198
ag199
ag200
ag236
ag237
ag238
ag239
ag240
ag241
ag242
ag243
ag244
ag245
ag271
ag272
ag273
ag274
ag275
ag276
ag277
ag278
ag279
ag280
ag292
ag293
ag294
ag31
ag32
ag69
ag70
ag71
ag72
ag73
ag74
ag75
ag76
ag136
ag137
ag138
ag139
ag140
ag141
ag142
ag143
ag144
ag145
ag201
ag202
ag203
ag204
ag205
ag206
ag207
ag208
ag209
ag210
ag246
ag247
ag248
ag249
ag250
ag251
ag252
ag253
ag254
ag255
ag281
ag282
ag283
ag284
ag285
ag286
ag33
ag34
ag77
ag78
ag79
ag80
ag81
ag82
ag83
ag84
ag146
ag147
ag148
ag149
ag35
ag36
ag85
ag86
ag87
ag88
ag89
ag90
ag91
ag92
ag150
ag151
ag152
ag153
ag154
ag155
ag156
ag157
ag158
ag159
ag211
ag212
ag213
ag214
ag215
ag216
ag217
ag218
ag219
ag220
ag256
ag257
ag258
ag259
ag260
ag261
ag262
ag37
ag38
ag93
ag94
ag95
ag96
ag97
ag98
ag99
ag100
ag160
ag161
ag162
ag163
ag164
ag165
ag166
ag167
ag168
ag169
ag221
ag222
ag223
ag224
ag225
ag226
ag227
ag228
ag229
ag230
ag263
ag264
ag265
asg39
I239
sS'n'
I190
sa(dp360
g13
(g14
(g16
S'\x00\x00\x00\x00\x00\x00\x00\x00'
tRp361
g18
(g19
(I0
tS'b'
tRp362
(I1
(I4
tg21
I00
S'\x00\x00\x00\x00\x00\x00\x00@\x00\x00\x00\x00\x00\x00\x00@\x00\x00\x00\x00\x00\x00\x00@\x00\x00\x00\x00\x00\x00\x00@'
tbtp363
sg23
(lp364
g25
ag26
ag45
ag46
ag47
ag48
ag49
ag50
ag51
ag52
ag106
ag107
ag108
ag109
ag110
ag111
ag112
ag113
ag114
ag115
ag175
ag176
ag177
ag178
ag179
ag180
ag27
ag28
ag53
ag54
ag55
ag56
ag57
ag58
ag59
ag60
ag116
ag117
ag118
ag119
ag120
ag121
ag122
ag123
ag124
ag125
ag181
ag182
ag183
ag184
ag185
ag186
ag187
ag188
ag189
ag190
ag29
ag30
ag61
ag62
ag63
ag64
ag65
ag66
ag67
ag68
ag126
ag127
ag128
ag129
ag130
ag131
ag132
ag133
ag134
ag135
ag191
ag192
ag193
ag194
ag195
ag196
ag197
ag198
ag199
ag200
ag236
ag237
ag238
ag239
ag240
ag241
ag242
ag243
ag244
ag245
ag271
ag272
ag273
ag274
ag275
ag276
ag277
ag278
ag279
ag280
ag292
ag293
ag294
ag31
ag32
ag69
ag70
ag71
ag72
ag73
ag74
ag75
ag76
ag136
ag137
ag138
ag139
ag140
ag141
ag142
ag143
ag144
ag145
ag201
ag202
ag203
ag204
ag205
ag206
ag207
ag208
ag209
ag210
ag246
ag247
ag248
ag249
ag250
ag251
ag252
ag253
ag254
ag255
ag281
ag282
ag283
ag284
ag285
ag286
ag33
ag34
ag77
ag78
ag79
ag80
ag81
ag82
ag83
ag84
ag146
ag147
ag148
ag149
ag35
ag36
ag85
ag86
ag87
ag88
ag89
ag90
ag91
ag92
ag150
ag151
ag152
ag153
ag154
ag155
ag156
ag157
ag158
ag159
ag211
ag212
ag213
ag214
ag215
ag216
ag217
ag218
ag219
ag220
ag256
ag257
ag258
ag259
ag260
ag261
ag262
ag37
ag38
ag93
ag94
ag95
ag96
ag97
ag98
ag99
ag100
ag160
ag161
ag162
ag163
ag164
ag165
ag166
ag167
ag168
ag169
ag221
ag222
ag223
ag224
ag225
ag226
ag227
ag228
ag229
ag230
ag263
ag264
ag265
asg39
I239
sS'n'
I200
sa(dp365
g13
(g14
(g16
S'\x00\x00\x00\x00\x00\x00\x00\x00'
tRp366
g18
(g19
(I0
tS'b'
tRp367
(I1
(I4
tg21
I00
S'\x00\x00\x00\x00\x00\x00\x00@\x00\x00\x00\x00\x00\x00\x00@\x00\x00\x00\x00\x00\x00\x00@\x00\x00\x00\x00\x00\x00\x00@'
tbtp368
sg23
(lp369
g25
ag26
ag45
ag46
ag47
ag48
ag49
ag50
ag51
ag52
ag106
ag107
ag108
ag109
ag110
ag111
ag112
ag113
ag114
ag115
ag175
ag176
ag177
ag178
ag179
ag180
ag27
ag28
ag53
ag54
ag55
ag56
ag57
ag58
ag59
ag60
ag116
ag117
ag118
ag119
ag120
ag121
ag122
ag123
ag124
ag125
ag181
ag182
ag183
ag184
ag185
ag186
ag187
ag188
ag189
ag190
ag29
ag30
ag61
ag62
ag63
ag64
ag65
ag66
ag67
ag68
ag126
ag127
ag128
ag129
ag130
ag131
ag132
ag133
ag134
ag135
ag191
ag192
ag193
ag194
ag195
ag196
ag197
ag198
ag199
ag200
ag236
ag237
ag238
ag239
ag240
ag241
ag242
ag243
ag244
ag245
ag271
ag272
ag273
ag274
ag275
ag276
ag277
ag278
ag279
ag280
ag292
ag293
ag294
ag31
ag32
ag69
ag70
ag71
ag72
ag73
ag74
ag75
ag76
ag136
ag137
ag138
ag139
ag140
ag141
ag142
ag143
ag144
ag145
ag201
ag202
ag203
ag204
ag205
ag206
ag207
ag208
ag209
ag210
ag246
ag247
ag248
ag249
ag250
ag251
ag252
ag253
ag254
ag255
ag281
ag282
ag283
ag284
ag285
ag286
ag33
ag34
ag77
ag78
ag79
ag80
ag81
ag82
ag83
ag84
ag146
ag147
ag148
ag149
ag35
ag36
ag85
ag86
ag87
ag88
ag89
ag90
ag91
ag92
ag150
ag151
ag152
ag153
ag154
ag155
ag156
ag157
ag158
ag159
ag211
ag212
ag213
ag214
ag215
ag216
ag217
ag218
ag219
ag220
ag256
ag257
ag258
ag259
ag260
ag261
ag262
ag37
ag38
ag93
ag94
ag95
ag96
ag97
ag98
ag99
ag100
ag160
ag161
ag162
ag163
ag164
ag165
ag166
ag167
ag168
ag169
ag221
ag222
ag223
ag224
ag225
ag226
ag227
ag228
ag229
ag230
ag263
ag264
ag265
asg39
I239
sS'n'
I210
sa(dp370
g13
(g14
(g16
S'\x00\x00\x00\x00\x00\x00\x00\x00'
tRp371
g18
(g19
(I0
tS'b'
tRp372
(I1
(I4
tg21
I00
S'\x00\x00\x00\x00\x00\x00\x00@\x00\x00\x00\x00\x00\x00\x00@\x00\x00\x00\x00\x00\x00\x00@\x00\x00\x00\x00\x00\x00\x00@'
tbtp373
sg23
(lp374
g25
ag26
ag45
ag46
ag47
ag48
ag49
ag50
ag51
ag52
ag106
ag107
ag108
ag109
ag110
ag111
ag112
ag113
ag114
ag115
ag175
ag176
ag177
ag178
ag179
ag180
ag27
ag28
ag53
ag54
ag55
ag56
ag57
ag58
ag59
ag60
ag116
ag117
ag118
ag119
ag120
ag121
ag122
ag123
ag124
ag125
ag181
ag182
ag183
ag184
ag185
ag186
ag187
ag188
ag189
ag190
ag29
ag30
ag61
ag62
ag63
ag64
ag65
ag66
ag67
ag68
ag126
ag127
ag128
ag129
ag130
ag131
ag132
ag133
ag134
ag135
ag191
ag192
ag193
ag194
ag195
ag196
ag197
ag198
ag199
ag200
ag236
ag237
ag238
ag239
ag240
ag241
ag242
ag243
ag244
ag245
ag271
ag272
ag273
ag274
ag275
ag276
ag277
ag278
ag279
ag280
ag292
ag293
ag294
ag31
ag32
ag69
ag70
ag71
ag72
ag73
ag74
ag75
ag76
ag136
ag137
ag138
ag139
ag140
ag141
ag142
ag143
ag144
ag145
ag201
ag202
ag203
ag204
ag205
ag206
ag207
ag208
ag209
ag210
ag246
ag247
ag248
ag249
ag250
ag251
ag252
ag253
ag254
ag255
ag281
ag282
ag283
ag284
ag285
ag286
ag33
ag34
ag77
ag78
ag79
ag80
ag81
ag82
ag83
ag84
ag146
ag147
ag148
ag149
ag35
ag36
ag85
ag86
ag87
ag88
ag89
ag90
ag91
ag92
ag150
ag151
ag152
ag153
ag154
ag155
ag156
ag157
ag158
ag159
ag211
ag212
ag213
ag214
ag215
ag216
ag217
ag218
ag219
ag220
ag256
ag257
ag258
ag259
ag260
ag261
ag262
ag37
ag38
ag93
ag94
ag95
ag96
ag97
ag98
ag99
ag100
ag160
ag161
ag162
ag163
ag164
ag165
ag166
ag167
ag168
ag169
ag221
ag222
ag223
ag224
ag225
ag226
ag227
ag228
ag229
ag230
ag263
ag264
ag265
asg39
I239
sS'n'
I220
sa(dp375
g13
(g14
(g16
S'\x00\x00\x00\x00\x00\x00\x00\x00'
tRp376
g18
(g19
(I0
tS'b'
tRp377
(I1
(I4
tg21
I00
S'\x00\x00\x00\x00\x00\x00\x00@\x00\x00\x00\x00\x00\x00\x00@\x00\x00\x00\x00\x00\x00\x00@\x00\x00\x00\x00\x00\x00\x00@'
tbtp378
sg23
(lp379
g25
ag26
ag45
ag46
ag47
ag48
ag49
ag50
ag51
ag52
ag106
ag107
ag108
ag109
ag110
ag111
ag112
ag113
ag114
ag115
ag175
ag176
ag177
ag178
ag179
ag180
ag27
ag28
ag53
ag54
ag55
ag56
ag57
ag58
ag59
ag60
ag116
ag117
ag118
ag119
ag120
ag121
ag122
ag123
ag124
ag125
ag181
ag182
ag183
ag184
ag185
ag186
ag187
ag188
ag189
ag190
ag29
ag30
ag61
ag62
ag63
ag64
ag65
ag66
ag67
ag68
ag126
ag127
ag128
ag129
ag130
ag131
ag132
ag133
ag134
ag135
ag191
ag192
ag193
ag194
ag195
ag196
ag197
ag198
ag199
ag200
ag236
ag237
ag238
ag239
ag240
ag241
ag242
ag243
ag244
ag245
ag271
ag272
ag273
ag274
ag275
ag276
ag277
ag278
ag279
ag280
ag292
ag293
ag294
ag31
ag32
ag69
ag70
ag71
ag72
ag73
ag74
ag75
ag76
ag136
ag137
ag138
ag139
ag140
ag141
ag142
ag143
ag144
ag145
ag201
ag202
ag203
ag204
ag205
ag206
ag207
ag208
ag209
ag210
ag246
ag247
ag248
ag249
ag250
ag251
ag252
ag253
ag254
ag255
ag281
ag282
ag283
ag284
ag285
ag286
ag33
ag34
ag77
ag78
ag79
ag80
ag81
ag82
ag83
ag84
ag146
ag147
ag148
ag149
ag35
ag36
ag85
ag86
ag87
ag88
ag89
ag90
ag91
ag92
ag150
ag151
ag152
ag153
ag154
ag155
ag156
ag157
ag158
ag159
ag211
ag212
ag213
ag214
ag215
ag216
ag217
ag218
ag219
ag220
ag256
ag257
ag258
ag259
ag260
ag261
ag262
ag37
ag38
ag93
ag94
ag95
ag96
ag97
ag98
ag99
ag100
ag160
ag161
ag162
ag163
ag164
ag165
ag166
ag167
ag168
ag169
ag221
ag222
ag223
ag224
ag225
ag226
ag227
ag228
ag229
ag230
ag263
ag264
ag265
asg39
I239
sS'n'
I230
sa(dp380
g13
(g14
(g16
S'\x00\x00\x00\x00\x00\x00\x00\x00'
tRp381
g18
(g19
(I0
tS'b'
tRp382
(I1
(I4
tg21
I00
S'\x00\x00\x00\x00\x00\x00\x00@\x00\x00\x00\x00\x00\x00\x00@\x00\x00\x00\x00\x00\x00\x00@\x00\x00\x00\x00\x00\x00\x00@'
tbtp383
sg23
(lp384
g25
ag26
ag45
ag46
ag47
ag48
ag49
ag50
ag51
ag52
ag106
ag107
ag108
ag109
ag110
ag111
ag112
ag113
ag114
ag115
ag175
ag176
ag177
ag178
ag179
ag180
ag27
ag28
ag53
ag54
ag55
ag56
ag57
ag58
ag59
ag60
ag116
ag117
ag118
ag119
ag120
ag121
ag122
ag123
ag124
ag125
ag181
ag182
ag183
ag184
ag185
ag186
ag187
ag188
ag189
ag190
ag29
ag30
ag61
ag62
ag63
ag64
ag65
ag66
ag67
ag68
ag126
ag127
ag128
ag129
ag130
ag131
ag132
ag133
ag134
ag135
ag191
ag192
ag193
ag194
ag195
ag196
ag197
ag198
ag199
ag200
ag236
ag237
ag238
ag239
ag240
ag241
ag242
ag243
ag244
ag245
ag271
ag272
ag273
ag274
ag275
ag276
ag277
ag278
ag279
ag280
ag292
ag293
ag294
ag31
ag32
ag69
ag70
ag71
ag72
ag73
ag74
ag75
ag76
ag136
ag137
ag138
ag139
ag140
ag141
ag142
ag143
ag144
ag145
ag201
ag202
ag203
ag204
ag205
ag206
ag207
ag208
ag209
ag210
ag246
ag247
ag248
ag249
ag250
ag251
ag252
ag253
ag254
ag255
ag281
ag282
ag283
ag284
ag285
ag286
ag33
ag34
ag77
ag78
ag79
ag80
ag81
ag82
ag83
ag84
ag146
ag147
ag148
ag149
ag35
ag36
ag85
ag86
ag87
ag88
ag89
ag90
ag91
ag92
ag150
ag151
ag152
ag153
ag154
ag155
ag156
ag157
ag158
ag159
ag211
ag212
ag213
ag214
ag215
ag216
ag217
ag218
ag219
ag220
ag256
ag257
ag258
ag259
ag260
ag261
ag262
ag37
ag38
ag93
ag94
ag95
ag96
ag97
ag98
ag99
ag100
ag160
ag161
ag162
ag163
ag164
ag165
ag166
ag167
ag168
ag169
ag221
ag222
ag223
ag224
ag225
ag226
ag227
ag228
ag229
ag230
ag263
ag264
ag265
asg39
I239
sS'n'
I240
sa(dp385
g13
(g14
(g16
S'\x00\x00\x00\x00\x00\x00\x00\x00'
tRp386
g18
(g19
(I0
tS'b'
tRp387
(I1
(I4
tg21
I00
S'\x00\x00\x00\x00\x00\x00\x00@\x00\x00\x00\x00\x00\x00\x00@\x00\x00\x00\x00\x00\x00\x00@\x00\x00\x00\x00\x00\x00\x00@'
tbtp388
sg23
(lp389
g25
ag26
ag45
ag46
ag47
ag48
ag49
ag50
ag51
ag52
ag106
ag107
ag108
ag109
ag110
ag111
ag112
ag113
ag114
ag115
ag175
ag176
ag177
ag178
ag179
ag180
ag27
ag28
ag53
ag54
ag55
ag56
ag57
ag58
ag59
ag60
ag116
ag117
ag118
ag119
ag120
ag121
ag122
ag123
ag124
ag125
ag181
ag182
ag183
ag184
ag185
ag186
ag187
ag188
ag189
ag190
ag29
ag30
ag61
ag62
ag63
ag64
ag65
ag66
ag67
ag68
ag126
ag127
ag128
ag129
ag130
ag131
ag132
ag133
ag134
ag135
ag191
ag192
ag193
ag194
ag195
ag196
ag197
ag198
ag199
ag200
ag236
ag237
ag238
ag239
ag240
ag241
ag242
ag243
ag244
ag245
ag271
ag272
ag273
ag274
ag275
ag276
ag277
ag278
ag279
ag280
ag292
ag293
ag294
ag31
ag32
ag69
ag70
ag71
ag72
ag73
ag74
ag75
ag76
ag136
ag137
ag138
ag139
ag140
ag141
ag142
ag143
ag144
ag145
ag201
ag202
ag203
ag204
ag205
ag206
ag207
ag208
ag209
ag210
ag246
ag247
ag248
ag249
ag250
ag251
ag252
ag253
ag254
ag255
ag281
ag282
ag283
ag284
ag285
ag286
ag33
ag34
ag77
ag78
ag79
ag80
ag81
ag82
ag83
ag84
ag146
ag147
ag148
ag149
ag35
ag36
ag85
ag86
ag87
ag88
ag89
ag90
ag91
ag92
ag150
ag151
ag152
ag153
ag154
ag155
ag156
ag157
ag158
ag159
ag211
ag212
ag213
ag214
ag215
ag216
ag217
ag218
ag219
ag220
ag256
ag257
ag258
ag259
ag260
ag261
ag262
ag37
ag38
ag93
ag94
ag95
ag96
ag97
ag98
ag99
ag100
ag160
ag161
ag162
ag163
ag164
ag165
ag166
ag167
ag168
ag169
ag221
ag222
ag223
ag224
ag225
ag226
ag227
ag228
ag229
ag230
ag263
ag264
ag265
asg39
I239
sS'n'
I250
sa(dp390
g13
(g14
(g16
S'\x00\x00\x00\x00\x00\x00\x00\x00'
tRp391
g18
(g19
(I0
tS'b'
tRp392
(I1
(I4
tg21
I00
S'\x00\x00\x00\x00\x00\x00\x00@\x00\x00\x00\x00\x00\x00\x00@\x00\x00\x00\x00\x00\x00\x00@\x00\x00\x00\x00\x00\x00\x00@'
tbtp393
sg23
(lp394
g25
ag26
ag45
ag46
ag47
ag48
ag49
ag50
ag51
ag52
ag106
ag107
ag108
ag109
ag110
ag111
ag112
ag113
ag114
ag115
ag175
ag176
ag177
ag178
ag179
ag180
ag27
ag28
ag53
ag54
ag55
ag56
ag57
ag58
ag59
ag60
ag116
ag117
ag118
ag119
ag120
ag121
ag122
ag123
ag124
ag125
ag181
ag182
ag183
ag184
ag185
ag186
ag187
ag188
ag189
ag190
ag29
ag30
ag61
ag62
ag63
ag64
ag65
ag66
ag67
ag68
ag126
ag127
ag128
ag129
ag130
ag131
ag132
ag133
ag134
ag135
ag191
ag192
ag193
ag194
ag195
ag196
ag197
ag198
ag199
ag200
ag236
ag237
ag238
ag239
ag240
ag241
ag242
ag243
ag244
ag245
ag271
ag272
ag273
ag274
ag275
ag276
ag277
ag278
ag279
ag280
ag292
ag293
ag294
ag31
ag32
ag69
ag70
ag71
ag72
ag73
ag74
ag75
ag76
ag136
ag137
ag138
ag139
ag140
ag141
ag142
ag143
ag144
ag145
ag201
ag202
ag203
ag204
ag205
ag206
ag207
ag208
ag209
ag210
ag246
ag247
ag248
ag249
ag250
ag251
ag252
ag253
ag254
ag255
ag281
ag282
ag283
ag284
ag285
ag286
ag33
ag34
ag77
ag78
ag79
ag80
ag81
ag82
ag83
ag84
ag146
ag147
ag148
ag149
ag35
ag36
ag85
ag86
ag87
ag88
ag89
ag90
ag91
ag92
ag150
ag151
ag152
ag153
ag154
ag155
ag156
ag157
ag158
ag159
ag211
ag212
ag213
ag214
ag215
ag216
ag217
ag218
ag219
ag220
ag256
ag257
ag258
ag259
ag260
ag261
ag262
ag37
ag38
ag93
ag94
ag95
ag96
ag97
ag98
ag99
ag100
ag160
ag161
ag162
ag163
ag164
ag165
ag166
ag167
ag168
ag169
ag221
ag222
ag223
ag224
ag225
ag226
ag227
ag228
ag229
ag230
ag263
ag264
ag265
asg39
I239
sS'n'
I260
sa(dp395
g13
(g14
(g16
S'\x00\x00\x00\x00\x00\x00\x00\x00'
tRp396
g18
(g19
(I0
tS'b'
tRp397
(I1
(I4
tg21
I00
S'\x00\x00\x00\x00\x00\x00\x00@\x00\x00\x00\x00\x00\x00\x00@\x00\x00\x00\x00\x00\x00\x00@\x00\x00\x00\x00\x00\x00\x00@'
tbtp398
sg23
(lp399
g25
ag26
ag45
ag46
ag47
ag48
ag49
ag50
ag51
ag52
ag106
ag107
ag108
ag109
ag110
ag111
ag112
ag113
ag114
ag115
ag175
ag176
ag177
ag178
ag179
ag180
ag27
ag28
ag53
ag54
ag55
ag56
ag57
ag58
ag59
ag60
ag116
ag117
ag118
ag119
ag120
ag121
ag122
ag123
ag124
ag125
ag181
ag182
ag183
ag184
ag185
ag186
ag187
ag188
ag189
ag190
ag29
ag30
ag61
ag62
ag63
ag64
ag65
ag66
ag67
ag68
ag126
ag127
ag128
ag129
ag130
ag131
ag132
ag133
ag134
ag135
ag191
ag192
ag193
ag194
ag195
ag196
ag197
ag198
ag199
ag200
ag236
ag237
ag238
ag239
ag240
ag241
ag242
ag243
ag244
ag245
ag271
ag272
ag273
ag274
ag275
ag276
ag277
ag278
ag279
ag280
ag292
ag293
ag294
ag31
ag32
ag69
ag70
ag71
ag72
ag73
ag74
ag75
ag76
ag136
ag137
ag138
ag139
ag140
ag141
ag142
ag143
ag144
ag145
ag201
ag202
ag203
ag204
ag205
ag206
ag207
ag208
ag209
ag210
ag246
ag247
ag248
ag249
ag250
ag251
ag252
ag253
ag254
ag255
ag281
ag282
ag283
ag284
ag285
ag286
ag33
ag34
ag77
ag78
ag79
ag80
ag81
ag82
ag83
ag84
ag146
ag147
ag148
ag149
ag35
ag36
ag85
ag86
ag87
ag88
ag89
ag90
ag91
ag92
ag150
ag151
ag152
ag153
ag154
ag155
ag156
ag157
ag158
ag159
ag211
ag212
ag213
ag214
ag215
ag216
ag217
ag218
ag219
ag220
ag256
ag257
ag258
ag259
ag260
ag261
ag262
ag37
ag38
ag93
ag94
ag95
ag96
ag97
ag98
ag99
ag100
ag160
ag161
ag162
ag163
ag164
ag165
ag166
ag167
ag168
ag169
ag221
ag222
ag223
ag224
ag225
ag226
ag227
ag228
ag229
ag230
ag263
ag264
ag265
asg39
I239
sS'n'
I270
sa(dp400
g13
(g14
(g16
S'\x00\x00\x00\x00\x00\x00\x00\x00'
tRp401
g18
(g19
(I0
tS'b'
tRp402
(I1
(I4
tg21
I00
S'\x00\x00\x00\x00\x00\x00\x00@\x00\x00\x00\x00\x00\x00\x00@\x00\x00\x00\x00\x00\x00\x00@\x00\x00\x00\x00\x00\x00\x00@'
tbtp403
sg23
(lp404
g25
ag26
ag45
ag46
ag47
ag48
ag49
ag50
ag51
ag52
ag106
ag107
ag108
ag109
ag110
ag111
ag112
ag113
ag114
ag115
ag175
ag176
ag177
ag178
ag179
ag180
ag27
ag28
ag53
ag54
ag55
ag56
ag57
ag58
ag59
ag60
ag116
ag117
ag118
ag119
ag120
ag121
ag122
ag123
ag124
ag125
ag181
ag182
ag183
ag184
ag185
ag186
ag187
ag188
ag189
ag190
ag29
ag30
ag61
ag62
ag63
ag64
ag65
ag66
ag67
ag68
ag126
ag127
ag128
ag129
ag130
ag131
ag132
ag133
ag134
ag135
ag191
ag192
ag193
ag194
ag195
ag196
ag197
ag198
ag199
ag200
ag236
ag237
ag238
ag239
ag240
ag241
ag242
ag243
ag244
ag245
ag271
ag272
ag273
ag274
ag275
ag276
ag277
ag278
ag279
ag280
ag292
ag293
ag294
ag31
ag32
ag69
ag70
ag71
ag72
ag73
ag74
ag75
ag76
ag136
ag137
ag138
ag139
ag140
ag141
ag142
ag143
ag144
ag145
ag201
ag202
ag203
ag204
ag205
ag206
ag207
ag208
ag209
ag210
ag246
ag247
ag248
ag249
ag250
ag251
ag252
ag253
ag254
ag255
ag281
ag282
ag283
ag284
ag285
ag286
ag33
ag34
ag77
ag78
ag79
ag80
ag81
ag82
ag83
ag84
ag146
ag147
ag148
ag149
ag35
ag36
ag85
ag86
ag87
ag88
ag89
ag90
ag91
ag92
ag150
ag151
ag152
ag153
ag154
ag155
ag156
ag157
ag158
ag159
ag211
ag212
ag213
ag214
ag215
ag216
ag217
ag218
ag219
ag220
ag256
ag257
ag258
ag259
ag260
ag261
ag262
ag37
ag38
ag93
ag94
ag95
ag96
ag97
ag98
ag99
ag100
ag160
ag161
ag162
ag163
ag164
ag165
ag166
ag167
ag168
ag169
ag221
ag222
ag223
ag224
ag225
ag226
ag227
ag228
ag229
ag230
ag263
ag264
ag265
asg39
I239
sS'n'
I280
sa(dp405
g13
(g14
(g16
S'\x00\x00\x00\x00\x00\x00\x00\x00'
tRp406
g18
(g19
(I0
tS'b'
tRp407
(I1
(I4
tg21
I00
S'\x00\x00\x00\x00\x00\x00\x00@\x00\x00\x00\x00\x00\x00\x00@\x00\x00\x00\x00\x00\x00\x00@\x00\x00\x00\x00\x00\x00\x00@'
tbtp408
sg23
(lp409
g25
ag26
ag45
ag46
ag47
ag48
ag49
ag50
ag51
ag52
ag106
ag107
ag108
ag109
ag110
ag111
ag112
ag113
ag114
ag115
ag175
ag176
ag177
ag178
ag179
ag180
ag27
ag28
ag53
ag54
ag55
ag56
ag57
ag58
ag59
ag60
ag116
ag117
ag118
ag119
ag120
ag121
ag122
ag123
ag124
ag125
ag181
ag182
ag183
ag184
ag185
ag186
ag187
ag188
ag189
ag190
ag29
ag30
ag61
ag62
ag63
ag64
ag65
ag66
ag67
ag68
ag126
ag127
ag128
ag129
ag130
ag131
ag132
ag133
ag134
ag135
ag191
ag192
ag193
ag194
ag195
ag196
ag197
ag198
ag199
ag200
ag236
ag237
ag238
ag239
ag240
ag241
ag242
ag243
ag244
ag245
ag271
ag272
ag273
ag274
ag275
ag276
ag277
ag278
ag279
ag280
ag292
ag293
ag294
ag31
ag32
ag69
ag70
ag71
ag72
ag73
ag74
ag75
ag76
ag136
ag137
ag138
ag139
ag140
ag141
ag142
ag143
ag144
ag145
ag201
ag202
ag203
ag204
ag205
ag206
ag207
ag208
ag209
ag210
ag246
ag247
ag248
ag249
ag250
ag251
ag252
ag253
ag254
ag255
ag281
ag282
ag283
ag284
ag285
ag286
ag33
ag34
ag77
ag78
ag79
ag80
ag81
ag82
ag83
ag84
ag146
ag147
ag148
ag149
ag35
ag36
ag85
ag86
ag87
ag88
ag89
ag90
ag91
ag92
ag150
ag151
ag152
ag153
ag154
ag155
ag156
ag157
ag158
ag159
ag211
ag212
ag213
ag214
ag215
ag216
ag217
ag218
ag219
ag220
ag256
ag257
ag258
ag259
ag260
ag261
ag262
ag37
ag38
ag93
ag94
ag95
ag96
ag97
ag98
ag99
ag100
ag160
ag161
ag162
ag163
ag164
ag165
ag166
ag167
ag168
ag169
ag221
ag222
ag223
ag224
ag225
ag226
ag227
ag228
ag229
ag230
ag263
ag264
ag265
asg39
I239
sS'n'
I290
sa(dp410
g13
(g14
(g16
S'\x00\x00\x00\x00\x00\x00\x00\x00'
tRp411
g18
(g19
(I0
tS'b'
tRp412
(I1
(I4
tg21
I00
S'\x00\x00\x00\x00\x00\x00\x00@\x00\x00\x00\x00\x00\x00\x00@\x00\x00\x00\x00\x00\x00\x00@\x00\x00\x00\x00\x00\x00\x00@'
tbtp413
sg23
(lp414
g25
ag26
ag45
ag46
ag47
ag48
ag49
ag50
ag51
ag52
ag106
ag107
ag108
ag109
ag110
ag111
ag112
ag113
ag114
ag115
ag175
ag176
ag177
ag178
ag179
ag180
ag27
ag28
ag53
ag54
ag55
ag56
ag57
ag58
ag59
ag60
ag116
ag117
ag118
ag119
ag120
ag121
ag122
ag123
ag124
ag125
ag181
ag182
ag183
ag184
ag185
ag186
ag187
ag188
ag189
ag190
ag29
ag30
ag61
ag62
ag63
ag64
ag65
ag66
ag67
ag68
ag126
ag127
ag128
ag129
ag130
ag131
ag132
ag133
ag134
ag135
ag191
ag192
ag193
ag194
ag195
ag196
ag197
ag198
ag199
ag200
ag236
ag237
ag238
ag239
ag240
ag241
ag242
ag243
ag244
ag245
ag271
ag272
ag273
ag274
ag275
ag276
ag277
ag278
ag279
ag280
ag292
ag293
ag294
ag31
ag32
ag69
ag70
ag71
ag72
ag73
ag74
ag75
ag76
ag136
ag137
ag138
ag139
ag140
ag141
ag142
ag143
ag144
ag145
ag201
ag202
ag203
ag204
ag205
ag206
ag207
ag208
ag209
ag210
ag246
ag247
ag248
ag249
ag250
ag251
ag252
ag253
ag254
ag255
ag281
ag282
ag283
ag284
ag285
ag286
ag33
ag34
ag77
ag78
ag79
ag80
ag81
ag82
ag83
ag84
ag146
ag147
ag148
ag149
ag35
ag36
ag85
ag86
ag87
ag88
ag89
ag90
ag91
ag92
ag150
ag151
ag152
ag153
ag154
ag155
ag156
ag157
ag158
ag159
ag211
ag212
ag213
ag214
ag215
ag216
ag217
ag218
ag219
ag220
ag256
ag257
ag258
ag259
ag260
ag261
ag262
ag37
ag38
ag93
ag94
ag95
ag96
ag97
ag98
ag99
ag100
ag160
ag161
ag162
ag163
ag164
ag165
ag166
ag167
ag168
ag169
ag221
ag222
ag223
ag224
ag225
ag226
ag227
ag228
ag229
ag230
ag263
ag264
ag265
asg39
I239
sS'n'
I300
sa(dp415
g13
(g14
(g16
S'\x00\x00\x00\x00\x00\x00\x00\x00'
tRp416
g18
(g19
(I0
tS'b'
tRp417
(I1
(I4
tg21
I00
S'\x00\x00\x00\x00\x00\x00\x00@\x00\x00\x00\x00\x00\x00\x00@\x00\x00\x00\x00\x00\x00\x00@\x00\x00\x00\x00\x00\x00\x00@'
tbtp418
sg23
(lp419
g25
ag26
ag45
ag46
ag47
ag48
ag49
ag50
ag51
ag52
ag106
ag107
ag108
ag109
ag110
ag111
ag112
ag113
ag114
ag115
ag175
ag176
ag177
ag178
ag179
ag180
ag27
ag28
ag53
ag54
ag55
ag56
ag57
ag58
ag59
ag60
ag116
ag117
ag118
ag119
ag120
ag121
ag122
ag123
ag124
ag125
ag181
ag182
ag183
ag184
ag185
ag186
ag187
ag188
ag189
ag190
ag29
ag30
ag61
ag62
ag63
ag64
ag65
ag66
ag67
ag68
ag126
ag127
ag128
ag129
ag130
ag131
ag132
ag133
ag134
ag135
ag191
ag192
ag193
ag194
ag195
ag196
ag197
ag198
ag199
ag200
ag236
ag237
ag238
ag239
ag240
ag241
ag242
ag243
ag244
ag245
ag271
ag272
ag273
ag274
ag275
ag276
ag277
ag278
ag279
ag280
ag292
ag293
ag294
ag31
ag32
ag69
ag70
ag71
ag72
ag73
ag74
ag75
ag76
ag136
ag137
ag138
ag139
ag140
ag141
ag142
ag143
ag144
ag145
ag201
ag202
ag203
ag204
ag205
ag206
ag207
ag208
ag209
ag210
ag246
ag247
ag248
ag249
ag250
ag251
ag252
ag253
ag254
ag255
ag281
ag282
ag283
ag284
ag285
ag286
ag33
ag34
ag77
ag78
ag79
ag80
ag81
ag82
ag83
ag84
ag146
ag147
ag148
ag149
ag35
ag36
ag85
ag86
ag87
ag88
ag89
ag90
ag91
ag92
ag150
ag151
ag152
ag153
ag154
ag155
ag156
ag157
ag158
ag159
ag211
ag212
ag213
ag214
ag215
ag216
ag217
ag218
ag219
ag220
ag256
ag257
ag258
ag259
ag260
ag261
ag262
ag37
ag38
ag93
ag94
ag95
ag96
ag97
ag98
ag99
ag100
ag160
ag161
ag162
ag163
ag164
ag165
ag166
ag167
ag168
ag169
ag221
ag222
ag223
ag224
ag225
ag226
ag227
ag228
ag229
ag230
ag263
ag264
ag265
asg39
I239
sS'n'
I310
sa(dp420
g13
(g14
(g16
S'\x00\x00\x00\x00\x00\x00\x00\x00'
tRp421
g18
(g19
(I0
tS'b'
tRp422
(I1
(I4
tg21
I00
S'\x00\x00\x00\x00\x00\x00\x00@\x00\x00\x00\x00\x00\x00\x00@\x00\x00\x00\x00\x00\x00\x00@\x00\x00\x00\x00\x00\x00\x00@'
tbtp423
sg23
(lp424
g25
ag26
ag45
ag46
ag47
ag48
ag49
ag50
ag51
ag52
ag106
ag107
ag108
ag109
ag110
ag111
ag112
ag113
ag114
ag115
ag175
ag176
ag177
ag178
ag179
ag180
ag27
ag28
ag53
ag54
ag55
ag56
ag57
ag58
ag59
ag60
ag116
ag117
ag118
ag119
ag120
ag121
ag122
ag123
ag124
ag125
ag181
ag182
ag183
ag184
ag185
ag186
ag187
ag188
ag189
ag190
ag29
ag30
ag61
ag62
ag63
ag64
ag65
ag66
ag67
ag68
ag126
ag127
ag128
ag129
ag130
ag131
ag132
ag133
ag134
ag135
ag191
ag192
ag193
ag194
ag195
ag196
ag197
ag198
ag199
ag200
ag236
ag237
ag238
ag239
ag240
ag241
ag242
ag243
ag244
ag245
ag271
ag272
ag273
ag274
ag275
ag276
ag277
ag278
ag279
ag280
ag292
ag293
ag294
ag31
ag32
ag69
ag70
ag71
ag72
ag73
ag74
ag75
ag76
ag136
ag137
ag138
ag139
ag140
ag141
ag142
ag143
ag144
ag145
ag201
ag202
ag203
ag204
ag205
ag206
ag207
ag208
ag209
ag210
ag246
ag247
ag248
ag249
ag250
ag251
ag252
ag253
ag254
ag255
ag281
ag282
ag283
ag284
ag285
ag286
ag33
ag34
ag77
ag78
ag79
ag80
ag81
ag82
ag83
ag84
ag146
ag147
ag148
ag149
ag35
ag36
ag85
ag86
ag87
ag88
ag89
ag90
ag91
ag92
ag150
ag151
ag152
ag153
ag154
ag155
ag156
ag157
ag158
ag159
ag211
ag212
ag213
ag214
ag215
ag216
ag217
ag218
ag219
ag220
ag256
ag257
ag258
ag259
ag260
ag261
ag262
ag37
ag38
ag93
ag94
ag95
ag96
ag97
ag98
ag99
ag100
ag160
ag161
ag162
ag163
ag164
ag165
ag166
ag167
ag168
ag169
ag221
ag222
ag223
ag224
ag225
ag226
ag227
ag228
ag229
ag230
ag263
ag264
ag265
asg39
I239
sS'n'
I320
sa(dp425
g13
(g14
(g16
S'\x00\x00\x00\x00\x00\x00\x00\x00'
tRp426
g18
(g19
(I0
tS'b'
tRp427
(I1
(I4
tg21
I00
S'\x00\x00\x00\x00\x00\x00\x00@\x00\x00\x00\x00\x00\x00\x00@\x00\x00\x00\x00\x00\x00\x00@\x00\x00\x00\x00\x00\x00\x00@'
tbtp428
sg23
(lp429
g25
ag26
ag45
ag46
ag47
ag48
ag49
ag50
ag51
ag52
ag106
ag107
ag108
ag109
ag110
ag111
ag112
ag113
ag114
ag115
ag175
ag176
ag177
ag178
ag179
ag180
ag27
ag28
ag53
ag54
ag55
ag56
ag57
ag58
ag59
ag60
ag116
ag117
ag118
ag119
ag120
ag121
ag122
ag123
ag124
ag125
ag181
ag182
ag183
ag184
ag185
ag186
ag187
ag188
ag189
ag190
ag29
ag30
ag61
ag62
ag63
ag64
ag65
ag66
ag67
ag68
ag126
ag127
ag128
ag129
ag130
ag131
ag132
ag133
ag134
ag135
ag191
ag192
ag193
ag194
ag195
ag196
ag197
ag198
ag199
ag200
ag236
ag237
ag238
ag239
ag240
ag241
ag242
ag243
ag244
ag245
ag271
ag272
ag273
ag274
ag275
ag276
ag277
ag278
ag279
ag280
ag292
ag293
ag294
ag31
ag32
ag69
ag70
ag71
ag72
ag73
ag74
ag75
ag76
ag136
ag137
ag138
ag139
ag140
ag141
ag142
ag143
ag144
ag145
ag201
ag202
ag203
ag204
ag205
ag206
ag207
ag208
ag209
ag210
ag246
ag247
ag248
ag249
ag250
ag251
ag252
ag253
ag254
ag255
ag281
ag282
ag283
ag284
ag285
ag286
ag33
ag34
ag77
ag78
ag79
ag80
ag81
ag82
ag83
ag84
ag146
ag147
ag148
ag149
ag35
ag36
ag85
ag86
ag87
ag88
ag89
ag90
ag91
ag92
ag150
ag151
ag152
ag153
ag154
ag155
ag156
ag157
ag158
ag159
ag211
ag212
ag213
ag214
ag215
ag216
ag217
ag218
ag219
ag220
ag256
ag257
ag258
ag259
ag260
ag261
ag262
ag37
ag38
ag93
ag94
ag95
ag96
ag97
ag98
ag99
ag100
ag160
ag161
ag162
ag163
ag164
ag165
ag166
ag167
ag168
ag169
ag221
ag222
ag223
ag224
ag225
ag226
ag227
ag228
ag229
ag230
ag263
ag264
ag265
asg39
I239
sS'n'
I330
sa(dp430
g13
(g14
(g16
S'\x00\x00\x00\x00\x00\x00\x00\x00'
tRp431
g18
(g19
(I0
tS'b'
tRp432
(I1
(I4
tg21
I00
S'\x00\x00\x00\x00\x00\x00\x00@\x00\x00\x00\x00\x00\x00\x00@\x00\x00\x00\x00\x00\x00\x00@\x00\x00\x00\x00\x00\x00\x00@'
tbtp433
sg23
(lp434
g25
ag26
ag45
ag46
ag47
ag48
ag49
ag50
ag51
ag52
ag106
ag107
ag108
ag109
ag110
ag111
ag112
ag113
ag114
ag115
ag175
ag176
ag177
ag178
ag179
ag180
ag27
ag28
ag53
ag54
ag55
ag56
ag57
ag58
ag59
ag60
ag116
ag117
ag118
ag119
ag120
ag121
ag122
ag123
ag124
ag125
ag181
ag182
ag183
ag184
ag185
ag186
ag187
ag188
ag189
ag190
ag29
ag30
ag61
ag62
ag63
ag64
ag65
ag66
ag67
ag68
ag126
ag127
ag128
ag129
ag130
ag131
ag132
ag133
ag134
ag135
ag191
ag192
ag193
ag194
ag195
ag196
ag197
ag198
ag199
ag200
ag236
ag237
ag238
ag239
ag240
ag241
ag242
ag243
ag244
ag245
ag271
ag272
ag273
ag274
ag275
ag276
ag277
ag278
ag279
ag280
ag292
ag293
ag294
ag31
ag32
ag69
ag70
ag71
ag72
ag73
ag74
ag75
ag76
ag136
ag137
ag138
ag139
ag140
ag141
ag142
ag143
ag144
ag145
ag201
ag202
ag203
ag204
ag205
ag206
ag207
ag208
ag209
ag210
ag246
ag247
ag248
ag249
ag250
ag251
ag252
ag253
ag254
ag255
ag281
ag282
ag283
ag284
ag285
ag286
ag33
ag34
ag77
ag78
ag79
ag80
ag81
ag82
ag83
ag84
ag146
ag147
ag148
ag149
ag35
ag36
ag85
ag86
ag87
ag88
ag89
ag90
ag91
ag92
ag150
ag151
ag152
ag153
ag154
ag155
ag156
ag157
ag158
ag159
ag211
ag212
ag213
ag214
ag215
ag216
ag217
ag218
ag219
ag220
ag256
ag257
ag258
ag259
ag260
ag261
ag262
ag37
ag38
ag93
ag94
ag95
ag96
ag97
ag98
ag99
ag100
ag160
ag161
ag162
ag163
ag164
ag165
ag166
ag167
ag168
ag169
ag221
ag222
ag223
ag224
ag225
ag226
ag227
ag228
ag229
ag230
ag263
ag264
ag265
asg39
I239
sS'n'
I340
sa(dp435
g13
(g14
(g16
S'\x00\x00\x00\x00\x00\x00\x00\x00'
tRp436
g18
(g19
(I0
tS'b'
tRp437
(I1
(I4
tg21
I00
S'\x00\x00\x00\x00\x00\x00\x00@\x00\x00\x00\x00\x00\x00\x00@\x00\x00\x00\x00\x00\x00\x00@\x00\x00\x00\x00\x00\x00\x00@'
tbtp438
sg23
(lp439
g25
ag26
ag45
ag46
ag47
ag48
ag49
ag50
ag51
ag52
ag106
ag107
ag108
ag109
ag110
ag111
ag112
ag113
ag114
ag115
ag175
ag176
ag177
ag178
ag179
ag180
ag27
ag28
ag53
ag54
ag55
ag56
ag57
ag58
ag59
ag60
ag116
ag117
ag118
ag119
ag120
ag121
ag122
ag123
ag124
ag125
ag181
ag182
ag183
ag184
ag185
ag186
ag187
ag188
ag189
ag190
ag29
ag30
ag61
ag62
ag63
ag64
ag65
ag66
ag67
ag68
ag126
ag127
ag128
ag129
ag130
ag131
ag132
ag133
ag134
ag135
ag191
ag192
ag193
ag194
ag195
ag196
ag197
ag198
ag199
ag200
ag236
ag237
ag238
ag239
ag240
ag241
ag242
ag243
ag244
ag245
ag271
ag272
ag273
ag274
ag275
ag276
ag277
ag278
ag279
ag280
ag292
ag293
ag294
ag31
ag32
ag69
ag70
ag71
ag72
ag73
ag74
ag75
ag76
ag136
ag137
ag138
ag139
ag140
ag141
ag142
ag143
ag144
ag145
ag201
ag202
ag203
ag204
ag205
ag206
ag207
ag208
ag209
ag210
ag246
ag247
ag248
ag249
ag250
ag251
ag252
ag253
ag254
ag255
ag281
ag282
ag283
ag284
ag285
ag286
ag33
ag34
ag77
ag78
ag79
ag80
ag81
ag82
ag83
ag84
ag146
ag147
ag148
ag149
ag35
ag36
ag85
ag86
ag87
ag88
ag89
ag90
ag91
ag92
ag150
ag151
ag152
ag153
ag154
ag155
ag156
ag157
ag158
ag159
ag211
ag212
ag213
ag214
ag215
ag216
ag217
ag218
ag219
ag220
ag256
ag257
ag258
ag259
ag260
ag261
ag262
ag37
ag38
ag93
ag94
ag95
ag96
ag97
ag98
ag99
ag100
ag160
ag161
ag162
ag163
ag164
ag165
ag166
ag167
ag168
ag169
ag221
ag222
ag223
ag224
ag225
ag226
ag227
ag228
ag229
ag230
ag263
ag264
ag265
asg39
I239
sS'n'
I350
sa(dp440
g13
(g14
(g16
S'\x00\x00\x00\x00\x00\x00\x00\x00'
tRp441
g18
(g19
(I0
tS'b'
tRp442
(I1
(I4
tg21
I00
S'\x00\x00\x00\x00\x00\x00\x00@\x00\x00\x00\x00\x00\x00\x00@\x00\x00\x00\x00\x00\x00\x00@\x00\x00\x00\x00\x00\x00\x00@'
tbtp443
sg23
(lp444
g25
ag26
ag45
ag46
ag47
ag48
ag49
ag50
ag51
ag52
ag106
ag107
ag108
ag109
ag110
ag111
ag112
ag113
ag114
ag115
ag175
ag176
ag177
ag178
ag179
ag180
ag27
ag28
ag53
ag54
ag55
ag56
ag57
ag58
ag59
ag60
ag116
ag117
ag118
ag119
ag120
ag121
ag122
ag123
ag124
ag125
ag181
ag182
ag183
ag184
ag185
ag186
ag187
ag188
ag189
ag190
ag29
ag30
ag61
ag62
ag63
ag64
ag65
ag66
ag67
ag68
ag126
ag127
ag128
ag129
ag130
ag131
ag132
ag133
ag134
ag135
ag191
ag192
ag193
ag194
ag195
ag196
ag197
ag198
ag199
ag200
ag236
ag237
ag238
ag239
ag240
ag241
ag242
ag243
ag244
ag245
ag271
ag272
ag273
ag274
ag275
ag276
ag277
ag278
ag279
ag280
ag292
ag293
ag294
ag31
ag32
ag69
ag70
ag71
ag72
ag73
ag74
ag75
ag76
ag136
ag137
ag138
ag139
ag140
ag141
ag142
ag143
ag144
ag145
ag201
ag202
ag203
ag204
ag205
ag206
ag207
ag208
ag209
ag210
ag246
ag247
ag248
ag249
ag250
ag251
ag252
ag253
ag254
ag255
ag281
ag282
ag283
ag284
ag285
ag286
ag33
ag34
ag77
ag78
ag79
ag80
ag81
ag82
ag83
ag84
ag146
ag147
ag148
ag149
ag35
ag36
ag85
ag86
ag87
ag88
ag89
ag90
ag91
ag92
ag150
ag151
ag152
ag153
ag154
ag155
ag156
ag157
ag158
ag159
ag211
ag212
ag213
ag214
ag215
ag216
ag217
ag218
ag219
ag220
ag256
ag257
ag258
ag259
ag260
ag261
ag262
ag37
ag38
ag93
ag94
ag95
ag96
ag97
ag98
ag99
ag100
ag160
ag161
ag162
ag163
ag164
ag165
ag166
ag167
ag168
ag169
ag221
ag222
ag223
ag224
ag225
ag226
ag227
ag228
ag229
ag230
ag263
ag264
ag265
asg39
I239
sS'n'
I360
sa(dp445
g13
(g14
(g16
S'\x00\x00\x00\x00\x00\x00\x00\x00'
tRp446
g18
(g19
(I0
tS'b'
tRp447
(I1
(I4
tg21
I00
S'\x00\x00\x00\x00\x00\x00\x00@\x00\x00\x00\x00\x00\x00\x00@\x00\x00\x00\x00\x00\x00\x00@\x00\x00\x00\x00\x00\x00\x00@'
tbtp448
sg23
(lp449
g25
ag26
ag45
ag46
ag47
ag48
ag49
ag50
ag51
ag52
ag106
ag107
ag108
ag109
ag110
ag111
ag112
ag113
ag114
ag115
ag175
ag176
ag177
ag178
ag179
ag180
ag27
ag28
ag53
ag54
ag55
ag56
ag57
ag58
ag59
ag60
ag116
ag117
ag118
ag119
ag120
ag121
ag122
ag123
ag124
ag125
ag181
ag182
ag183
ag184
ag185
ag186
ag187
ag188
ag189
ag190
ag29
ag30
ag61
ag62
ag63
ag64
ag65
ag66
ag67
ag68
ag126
ag127
ag128
ag129
ag130
ag131
ag132
ag133
ag134
ag135
ag191
ag192
ag193
ag194
ag195
ag196
ag197
ag198
ag199
ag200
ag236
ag237
ag238
ag239
ag240
ag241
ag242
ag243
ag244
ag245
ag271
ag272
ag273
ag274
ag275
ag276
ag277
ag278
ag279
ag280
ag292
ag293
ag294
ag31
ag32
ag69
ag70
ag71
ag72
ag73
ag74
ag75
ag76
ag136
ag137
ag138
ag139
ag140
ag141
ag142
ag143
ag144
ag145
ag201
ag202
ag203
ag204
ag205
ag206
ag207
ag208
ag209
ag210
ag246
ag247
ag248
ag249
ag250
ag251
ag252
ag253
ag254
ag255
ag281
ag282
ag283
ag284
ag285
ag286
ag33
ag34
ag77
ag78
ag79
ag80
ag81
ag82
ag83
ag84
ag146
ag147
ag148
ag149
ag35
ag36
ag85
ag86
ag87
ag88
ag89
ag90
ag91
ag92
ag150
ag151
ag152
ag153
ag154
ag155
ag156
ag157
ag158
ag159
ag211
ag212
ag213
ag214
ag215
ag216
ag217
ag218
ag219
ag220
ag256
ag257
ag258
ag259
ag260
ag261
ag262
ag37
ag38
ag93
ag94
ag95
ag96
ag97
ag98
ag99
ag100
ag160
ag161
ag162
ag163
ag164
ag165
ag166
ag167
ag168
ag169
ag221
ag222
ag223
ag224
ag225
ag226
ag227
ag228
ag229
ag230
ag263
ag264
ag265
asg39
I239
sS'n'
I370
sa(dp450
g13
(g14
(g16
S'\x00\x00\x00\x00\x00\x00\x00\x00'
tRp451
g18
(g19
(I0
tS'b'
tRp452
(I1
(I4
tg21
I00
S'\x00\x00\x00\x00\x00\x00\x00@\x00\x00\x00\x00\x00\x00\x00@\x00\x00\x00\x00\x00\x00\x00@\x00\x00\x00\x00\x00\x00\x00@'
tbtp453
sg23
(lp454
g25
ag26
ag45
ag46
ag47
ag48
ag49
ag50
ag51
ag52
ag106
ag107
ag108
ag109
ag110
ag111
ag112
ag113
ag114
ag115
ag175
ag176
ag177
ag178
ag179
ag180
ag27
ag28
ag53
ag54
ag55
ag56
ag57
ag58
ag59
ag60
ag116
ag117
ag118
ag119
ag120
ag121
ag122
ag123
ag124
ag125
ag181
ag182
ag183
ag184
ag185
ag186
ag187
ag188
ag189
ag190
ag29
ag30
ag61
ag62
ag63
ag64
ag65
ag66
ag67
ag68
ag126
ag127
ag128
ag129
ag130
ag131
ag132
ag133
ag134
ag135
ag191
ag192
ag193
ag194
ag195
ag196
ag197
ag198
ag199
ag200
ag236
ag237
ag238
ag239
ag240
ag241
ag242
ag243
ag244
ag245
ag271
ag272
ag273
ag274
ag275
ag276
ag277
ag278
ag279
ag280
ag292
ag293
ag294
ag31
ag32
ag69
ag70
ag71
ag72
ag73
ag74
ag75
ag76
ag136
ag137
ag138
ag139
ag140
ag141
ag142
ag143
ag144
ag145
ag201
ag202
ag203
ag204
ag205
ag206
ag207
ag208
ag209
ag210
ag246
ag247
ag248
ag249
ag250
ag251
ag252
ag253
ag254
ag255
ag281
ag282
ag283
ag284
ag285
ag286
ag33
ag34
ag77
ag78
ag79
ag80
ag81
ag82
ag83
ag84
ag146
ag147
ag148
ag149
ag35
ag36
ag85
ag86
ag87
ag88
ag89
ag90
ag91
ag92
ag150
ag151
ag152
ag153
ag154
ag155
ag156
ag157
ag158
ag159
ag211
ag212
ag213
ag214
ag215
ag216
ag217
ag218
ag219
ag220
ag256
ag257
ag258
ag259
ag260
ag261
ag262
ag37
ag38
ag93
ag94
ag95
ag96
ag97
ag98
ag99
ag100
ag160
ag161
ag162
ag163
ag164
ag165
ag166
ag167
ag168
ag169
ag221
ag222
ag223
ag224
ag225
ag226
ag227
ag228
ag229
ag230
ag263
ag264
ag265
asg39
I239
sS'n'
I380
sa(dp455
g13
(g14
(g16
S'\x00\x00\x00\x00\x00\x00\x00\x00'
tRp456
g18
(g19
(I0
tS'b'
tRp457
(I1
(I4
tg21
I00
S'\x00\x00\x00\x00\x00\x00\x00@\x00\x00\x00\x00\x00\x00\x00@\x00\x00\x00\x00\x00\x00\x00@\x00\x00\x00\x00\x00\x00\x00@'
tbtp458
sg23
(lp459
g25
ag26
ag45
ag46
ag47
ag48
ag49
ag50
ag51
ag52
ag106
ag107
ag108
ag109
ag110
ag111
ag112
ag113
ag114
ag115
ag175
ag176
ag177
ag178
ag179
ag180
ag27
ag28
ag53
ag54
ag55
ag56
ag57
ag58
ag59
ag60
ag116
ag117
ag118
ag119
ag120
ag121
ag122
ag123
ag124
ag125
ag181
ag182
ag183
ag184
ag185
ag186
ag187
ag188
ag189
ag190
ag29
ag30
ag61
ag62
ag63
ag64
ag65
ag66
ag67
ag68
ag126
ag127
ag128
ag129
ag130
ag131
ag132
ag133
ag134
ag135
ag191
ag192
ag193
ag194
ag195
ag196
ag197
ag198
ag199
ag200
ag236
ag237
ag238
ag239
ag240
ag241
ag242
ag243
ag244
ag245
ag271
ag272
ag273
ag274
ag275
ag276
ag277
ag278
ag279
ag280
ag292
ag293
ag294
ag31
ag32
ag69
ag70
ag71
ag72
ag73
ag74
ag75
ag76
ag136
ag137
ag138
ag139
ag140
ag141
ag142
ag143
ag144
ag145
ag201
ag202
ag203
ag204
ag205
ag206
ag207
ag208
ag209
ag210
ag246
ag247
ag248
ag249
ag250
ag251
ag252
ag253
ag254
ag255
ag281
ag282
ag283
ag284
ag285
ag286
ag33
ag34
ag77
ag78
ag79
ag80
ag81
ag82
ag83
ag84
ag146
ag147
ag148
ag149
ag35
ag36
ag85
ag86
ag87
ag88
ag89
ag90
ag91
ag92
ag150
ag151
ag152
ag153
ag154
ag155
ag156
ag157
ag158
ag159
ag211
ag212
ag213
ag214
ag215
ag216
ag217
ag218
ag219
ag220
ag256
ag257
ag258
ag259
ag260
ag261
ag262
ag37
ag38
ag93
ag94
ag95
ag96
ag97
ag98
ag99
ag100
ag160
ag161
ag162
ag163
ag164
ag165
ag166
ag167
ag168
ag169
ag221
ag222
ag223
ag224
ag225
ag226
ag227
ag228
ag229
ag230
ag263
ag264
ag265
asg39
I239
sS'n'
I390
sa(dp460
g13
(g14
(g16
S'\x00\x00\x00\x00\x00\x00\x00\x00'
tRp461
g18
(g19
(I0
tS'b'
tRp462
(I1
(I4
tg21
I00
S'\x00\x00\x00\x00\x00\x00\x00@\x00\x00\x00\x00\x00\x00\x00@\x00\x00\x00\x00\x00\x00\x00@\x00\x00\x00\x00\x00\x00\x00@'
tbtp463
sg23
(lp464
g25
ag26
ag45
ag46
ag47
ag48
ag49
ag50
ag51
ag52
ag106
ag107
ag108
ag109
ag110
ag111
ag112
ag113
ag114
ag115
ag175
ag176
ag177
ag178
ag179
ag180
ag27
ag28
ag53
ag54
ag55
ag56
ag57
ag58
ag59
ag60
ag116
ag117
ag118
ag119
ag120
ag121
ag122
ag123
ag124
ag125
ag181
ag182
ag183
ag184
ag185
ag186
ag187
ag188
ag189
ag190
ag29
ag30
ag61
ag62
ag63
ag64
ag65
ag66
ag67
ag68
ag126
ag127
ag128
ag129
ag130
ag131
ag132
ag133
ag134
ag135
ag191
ag192
ag193
ag194
ag195
ag196
ag197
ag198
ag199
ag200
ag236
ag237
ag238
ag239
ag240
ag241
ag242
ag243
ag244
ag245
ag271
ag272
ag273
ag274
ag275
ag276
ag277
ag278
ag279
ag280
ag292
ag293
ag294
ag31
ag32
ag69
ag70
ag71
ag72
ag73
ag74
ag75
ag76
ag136
ag137
ag138
ag139
ag140
ag141
ag142
ag143
ag144
ag145
ag201
ag202
ag203
ag204
ag205
ag206
ag207
ag208
ag209
ag210
ag246
ag247
ag248
ag249
ag250
ag251
ag252
ag253
ag254
ag255
ag281
ag282
ag283
ag284
ag285
ag286
ag33
ag34
ag77
ag78
ag79
ag80
ag81
ag82
ag83
ag84
ag146
ag147
ag148
ag149
ag35
ag36
ag85
ag86
ag87
ag88
ag89
ag90
ag91
ag92
ag150
ag151
ag152
ag153
ag154
ag155
ag156
ag157
ag158
ag159
ag211
ag212
ag213
ag214
ag215
ag216
ag217
ag218
ag219
ag220
ag256
ag257
ag258
ag259
ag260
ag261
ag262
ag37
ag38
ag93
ag94
ag95
ag96
ag97
ag98
ag99
ag100
ag160
ag161
ag162
ag163
ag164
ag165
ag166
ag167
ag168
ag169
ag221
ag222
ag223
ag224
ag225
ag226
ag227
ag228
ag229
ag230
ag263
ag264
ag265
asg39
I239
sS'n'
I400
sa(dp465
g13
(g14
(g16
S'\x00\x00\x00\x00\x00\x00\x00\x00'
tRp466
g18
(g19
(I0
tS'b'
tRp467
(I1
(I4
tg21
I00
S'\x00\x00\x00\x00\x00\x00\x00@\x00\x00\x00\x00\x00\x00\x00@\x00\x00\x00\x00\x00\x00\x00@\x00\x00\x00\x00\x00\x00\x00@'
tbtp468
sg23
(lp469
g25
ag26
ag45
ag46
ag47
ag48
ag49
ag50
ag51
ag52
ag106
ag107
ag108
ag109
ag110
ag111
ag112
ag113
ag114
ag115
ag175
ag176
ag177
ag178
ag179
ag180
ag27
ag28
ag53
ag54
ag55
ag56
ag57
ag58
ag59
ag60
ag116
ag117
ag118
ag119
ag120
ag121
ag122
ag123
ag124
ag125
ag181
ag182
ag183
ag184
ag185
ag186
ag187
ag188
ag189
ag190
ag29
ag30
ag61
ag62
ag63
ag64
ag65
ag66
ag67
ag68
ag126
ag127
ag128
ag129
ag130
ag131
ag132
ag133
ag134
ag135
ag191
ag192
ag193
ag194
ag195
ag196
ag197
ag198
ag199
ag200
ag236
ag237
ag238
ag239
ag240
ag241
ag242
ag243
ag244
ag245
ag271
ag272
ag273
ag274
ag275
ag276
ag277
ag278
ag279
ag280
ag292
ag293
ag294
ag31
ag32
ag69
ag70
ag71
ag72
ag73
ag74
ag75
ag76
ag136
ag137
ag138
ag139
ag140
ag141
ag142
ag143
ag144
ag145
ag201
ag202
ag203
ag204
ag205
ag206
ag207
ag208
ag209
ag210
ag246
ag247
ag248
ag249
ag250
ag251
ag252
ag253
ag254
ag255
ag281
ag282
ag283
ag284
ag285
ag286
ag33
ag34
ag77
ag78
ag79
ag80
ag81
ag82
ag83
ag84
ag146
ag147
ag148
ag149
ag35
ag36
ag85
ag86
ag87
ag88
ag89
ag90
ag91
ag92
ag150
ag151
ag152
ag153
ag154
ag155
ag156
ag157
ag158
ag159
ag211
ag212
ag213
ag214
ag215
ag216
ag217
ag218
ag219
ag220
ag256
ag257
ag258
ag259
ag260
ag261
ag262
ag37
ag38
ag93
ag94
ag95
ag96
ag97
ag98
ag99
ag100
ag160
ag161
ag162
ag163
ag164
ag165
ag166
ag167
ag168
ag169
ag221
ag222
ag223
ag224
ag225
ag226
ag227
ag228
ag229
ag230
ag263
ag264
ag265
asg39
I239
sS'n'
I410
sa(dp470
g13
(g14
(g16
S'\x00\x00\x00\x00\x00\x00\x00\x00'
tRp471
g18
(g19
(I0
tS'b'
tRp472
(I1
(I4
tg21
I00
S'\x00\x00\x00\x00\x00\x00\x00@\x00\x00\x00\x00\x00\x00\x00@\x00\x00\x00\x00\x00\x00\x00@\x00\x00\x00\x00\x00\x00\x00@'
tbtp473
sg23
(lp474
g25
ag26
ag45
ag46
ag47
ag48
ag49
ag50
ag51
ag52
ag106
ag107
ag108
ag109
ag110
ag111
ag112
ag113
ag114
ag115
ag175
ag176
ag177
ag178
ag179
ag180
ag27
ag28
ag53
ag54
ag55
ag56
ag57
ag58
ag59
ag60
ag116
ag117
ag118
ag119
ag120
ag121
ag122
ag123
ag124
ag125
ag181
ag182
ag183
ag184
ag185
ag186
ag187
ag188
ag189
ag190
ag29
ag30
ag61
ag62
ag63
ag64
ag65
ag66
ag67
ag68
ag126
ag127
ag128
ag129
ag130
ag131
ag132
ag133
ag134
ag135
ag191
ag192
ag193
ag194
ag195
ag196
ag197
ag198
ag199
ag200
ag236
ag237
ag238
ag239
ag240
ag241
ag242
ag243
ag244
ag245
ag271
ag272
ag273
ag274
ag275
ag276
ag277
ag278
ag279
ag280
ag292
ag293
ag294
ag31
ag32
ag69
ag70
ag71
ag72
ag73
ag74
ag75
ag76
ag136
ag137
ag138
ag139
ag140
ag141
ag142
ag143
ag144
ag145
ag201
ag202
ag203
ag204
ag205
ag206
ag207
ag208
ag209
ag210
ag246
ag247
ag248
ag249
ag250
ag251
ag252
ag253
ag254
ag255
ag281
ag282
ag283
ag284
ag285
ag286
ag33
ag34
ag77
ag78
ag79
ag80
ag81
ag82
ag83
ag84
ag146
ag147
ag148
ag149
ag35
ag36
ag85
ag86
ag87
ag88
ag89
ag90
ag91
ag92
ag150
ag151
ag152
ag153
ag154
ag155
ag156
ag157
ag158
ag159
ag211
ag212
ag213
ag214
ag215
ag216
ag217
ag218
ag219
ag220
ag256
ag257
ag258
ag259
ag260
ag261
ag262
ag37
ag38
ag93
ag94
ag95
ag96
ag97
ag98
ag99
ag100
ag160
ag161
ag162
ag163
ag164
ag165
ag166
ag167
ag168
ag169
ag221
ag222
ag223
ag224
ag225
ag226
ag227
ag228
ag229
ag230
ag263
ag264
ag265
asg39
I239
sS'n'
I420
sa(dp475
g13
(g14
(g16
S'\x00\x00\x00\x00\x00\x00\x00\x00'
tRp476
g18
(g19
(I0
tS'b'
tRp477
(I1
(I4
tg21
I00
S'\x00\x00\x00\x00\x00\x00\x00@\x00\x00\x00\x00\x00\x00\x00@\x00\x00\x00\x00\x00\x00\x00@\x00\x00\x00\x00\x00\x00\x00@'
tbtp478
sg23
(lp479
g25
ag26
ag45
ag46
ag47
ag48
ag49
ag50
ag51
ag52
ag106
ag107
ag108
ag109
ag110
ag111
ag112
ag113
ag114
ag115
ag175
ag176
ag177
ag178
ag179
ag180
ag27
ag28
ag53
ag54
ag55
ag56
ag57
ag58
ag59
ag60
ag116
ag117
ag118
ag119
ag120
ag121
ag122
ag123
ag124
ag125
ag181
ag182
ag183
ag184
ag185
ag186
ag187
ag188
ag189
ag190
ag29
ag30
ag61
ag62
ag63
ag64
ag65
ag66
ag67
ag68
ag126
ag127
ag128
ag129
ag130
ag131
ag132
ag133
ag134
ag135
ag191
ag192
ag193
ag194
ag195
ag196
ag197
ag198
ag199
ag200
ag236
ag237
ag238
ag239
ag240
ag241
ag242
ag243
ag244
ag245
ag271
ag272
ag273
ag274
ag275
ag276
ag277
ag278
ag279
ag280
ag292
ag293
ag294
ag31
ag32
ag69
ag70
ag71
ag72
ag73
ag74
ag75
ag76
ag136
ag137
ag138
ag139
ag140
ag141
ag142
ag143
ag144
ag145
ag201
ag202
ag203
ag204
ag205
ag206
ag207
ag208
ag209
ag210
ag246
ag247
ag248
ag249
ag250
ag251
ag252
ag253
ag254
ag255
ag281
ag282
ag283
ag284
ag285
ag286
ag33
ag34
ag77
ag78
ag79
ag80
ag81
ag82
ag83
ag84
ag146
ag147
ag148
ag149
ag35
ag36
ag85
ag86
ag87
ag88
ag89
ag90
ag91
ag92
ag150
ag151
ag152
ag153
ag154
ag155
ag156
ag157
ag158
ag159
ag211
ag212
ag213
ag214
ag215
ag216
ag217
ag218
ag219
ag220
ag256
ag257
ag258
ag259
ag260
ag261
ag262
ag37
ag38
ag93
ag94
ag95
ag96
ag97
ag98
ag99
ag100
ag160
ag161
ag162
ag163
ag164
ag165
ag166
ag167
ag168
ag169
ag221
ag222
ag223
ag224
ag225
ag226
ag227
ag228
ag229
ag230
ag263
ag264
ag265
asg39
I239
sS'n'
I430
sa(dp480
g13
(g14
(g16
S'\x00\x00\x00\x00\x00\x00\x00\x00'
tRp481
g18
(g19
(I0
tS'b'
tRp482
(I1
(I4
tg21
I00
S'\x00\x00\x00\x00\x00\x00\x00@\x00\x00\x00\x00\x00\x00\x00@\x00\x00\x00\x00\x00\x00\x00@\x00\x00\x00\x00\x00\x00\x00@'
tbtp483
sg23
(lp484
g25
ag26
ag45
ag46
ag47
ag48
ag49
ag50
ag51
ag52
ag106
ag107
ag108
ag109
ag110
ag111
ag112
ag113
ag114
ag115
ag175
ag176
ag177
ag178
ag179
ag180
ag27
ag28
ag53
ag54
ag55
ag56
ag57
ag58
ag59
ag60
ag116
ag117
ag118
ag119
ag120
ag121
ag122
ag123
ag124
ag125
ag181
ag182
ag183
ag184
ag185
ag186
ag187
ag188
ag189
ag190
ag29
ag30
ag61
ag62
ag63
ag64
ag65
ag66
ag67
ag68
ag126
ag127
ag128
ag129
ag130
ag131
ag132
ag133
ag134
ag135
ag191
ag192
ag193
ag194
ag195
ag196
ag197
ag198
ag199
ag200
ag236
ag237
ag238
ag239
ag240
ag241
ag242
ag243
ag244
ag245
ag271
ag272
ag273
ag274
ag275
ag276
ag277
ag278
ag279
ag280
ag292
ag293
ag294
ag31
ag32
ag69
ag70
ag71
ag72
ag73
ag74
ag75
ag76
ag136
ag137
ag138
ag139
ag140
ag141
ag142
ag143
ag144
ag145
ag201
ag202
ag203
ag204
ag205
ag206
ag207
ag208
ag209
ag210
ag246
ag247
ag248
ag249
ag250
ag251
ag252
ag253
ag254
ag255
ag281
ag282
ag283
ag284
ag285
ag286
ag33
ag34
ag77
ag78
ag79
ag80
ag81
ag82
ag83
ag84
ag146
ag147
ag148
ag149
ag35
ag36
ag85
ag86
ag87
ag88
ag89
ag90
ag91
ag92
ag150
ag151
ag152
ag153
ag154
ag155
ag156
ag157
ag158
ag159
ag211
ag212
ag213
ag214
ag215
ag216
ag217
ag218
ag219
ag220
ag256
ag257
ag258
ag259
ag260
ag261
ag262
ag37
ag38
ag93
ag94
ag95
ag96
ag97
ag98
ag99
ag100
ag160
ag161
ag162
ag163
ag164
ag165
ag166
ag167
ag168
ag169
ag221
ag222
ag223
ag224
ag225
ag226
ag227
ag228
ag229
ag230
ag263
ag264
ag265
asg39
I239
sS'n'
I440
sa(dp485
g13
(g14
(g16
S'\x00\x00\x00\x00\x00\x00\x00\x00'
tRp486
g18
(g19
(I0
tS'b'
tRp487
(I1
(I4
tg21
I00
S'\x00\x00\x00\x00\x00\x00\x00@\x00\x00\x00\x00\x00\x00\x00@\x00\x00\x00\x00\x00\x00\x00@\x00\x00\x00\x00\x00\x00\x00@'
tbtp488
sg23
(lp489
g25
ag26
ag45
ag46
ag47
ag48
ag49
ag50
ag51
ag52
ag106
ag107
ag108
ag109
ag110
ag111
ag112
ag113
ag114
ag115
ag175
ag176
ag177
ag178
ag179
ag180
ag27
ag28
ag53
ag54
ag55
ag56
ag57
ag58
ag59
ag60
ag116
ag117
ag118
ag119
ag120
ag121
ag122
ag123
ag124
ag125
ag181
ag182
ag183
ag184
ag185
ag186
ag187
ag188
ag189
ag190
ag29
ag30
ag61
ag62
ag63
ag64
ag65
ag66
ag67
ag68
ag126
ag127
ag128
ag129
ag130
ag131
ag132
ag133
ag134
ag135
ag191
ag192
ag193
ag194
ag195
ag196
ag197
ag198
ag199
ag200
ag236
ag237
ag238
ag239
ag240
ag241
ag242
ag243
ag244
ag245
ag271
ag272
ag273
ag274
ag275
ag276
ag277
ag278
ag279
ag280
ag292
ag293
ag294
ag31
ag32
ag69
ag70
ag71
ag72
ag73
ag74
ag75
ag76
ag136
ag137
ag138
ag139
ag140
ag141
ag142
ag143
ag144
ag145
ag201
ag202
ag203
ag204
ag205
ag206
ag207
ag208
ag209
ag210
ag246
ag247
ag248
ag249
ag250
ag251
ag252
ag253
ag254
ag255
ag281
ag282
ag283
ag284
ag285
ag286
ag33
ag34
ag77
ag78
ag79
ag80
ag81
ag82
ag83
ag84
ag146
ag147
ag148
ag149
ag35
ag36
ag85
ag86
ag87
ag88
ag89
ag90
ag91
ag92
ag150
ag151
ag152
ag153
ag154
ag155
ag156
ag157
ag158
ag159
ag211
ag212
ag213
ag214
ag215
ag216
ag217
ag218
ag219
ag220
ag256
ag257
ag258
ag259
ag260
ag261
ag262
ag37
ag38
ag93
ag94
ag95
ag96
ag97
ag98
ag99
ag100
ag160
ag161
ag162
ag163
ag164
ag165
ag166
ag167
ag168
ag169
ag221
ag222
ag223
ag224
ag225
ag226
ag227
ag228
ag229
ag230
ag263
ag264
ag265
asg39
I239
sS'n'
I450
sa(dp490
g13
(g14
(g16
S'\x00\x00\x00\x00\x00\x00\x00\x00'
tRp491
g18
(g19
(I0
tS'b'
tRp492
(I1
(I4
tg21
I00
S'\x00\x00\x00\x00\x00\x00\x00@\x00\x00\x00\x00\x00\x00\x00@\x00\x00\x00\x00\x00\x00\x00@\x00\x00\x00\x00\x00\x00\x00@'
tbtp493
sg23
(lp494
g25
ag26
ag45
ag46
ag47
ag48
ag49
ag50
ag51
ag52
ag106
ag107
ag108
ag109
ag110
ag111
ag112
ag113
ag114
ag115
ag175
ag176
ag177
ag178
ag179
ag180
ag27
ag28
ag53
ag54
ag55
ag56
ag57
ag58
ag59
ag60
ag116
ag117
ag118
ag119
ag120
ag121
ag122
ag123
ag124
ag125
ag181
ag182
ag183
ag184
ag185
ag186
ag187
ag188
ag189
ag190
ag29
ag30
ag61
ag62
ag63
ag64
ag65
ag66
ag67
ag68
ag126
ag127
ag128
ag129
ag130
ag131
ag132
ag133
ag134
ag135
ag191
ag192
ag193
ag194
ag195
ag196
ag197
ag198
ag199
ag200
ag236
ag237
ag238
ag239
ag240
ag241
ag242
ag243
ag244
ag245
ag271
ag272
ag273
ag274
ag275
ag276
ag277
ag278
ag279
ag280
ag292
ag293
ag294
ag31
ag32
ag69
ag70
ag71
ag72
ag73
ag74
ag75
ag76
ag136
ag137
ag138
ag139
ag140
ag141
ag142
ag143
ag144
ag145
ag201
ag202
ag203
ag204
ag205
ag206
ag207
ag208
ag209
ag210
ag246
ag247
ag248
ag249
ag250
ag251
ag252
ag253
ag254
ag255
ag281
ag282
ag283
ag284
ag285
ag286
ag33
ag34
ag77
ag78
ag79
ag80
ag81
ag82
ag83
ag84
ag146
ag147
ag148
ag149
ag35
ag36
ag85
ag86
ag87
ag88
ag89
ag90
ag91
ag92
ag150
ag151
ag152
ag153
ag154
ag155
ag156
ag157
ag158
ag159
ag211
ag212
ag213
ag214
ag215
ag216
ag217
ag218
ag219
ag220
ag256
ag257
ag258
ag259
ag260
ag261
ag262
ag37
ag38
ag93
ag94
ag95
ag96
ag97
ag98
ag99
ag100
ag160
ag161
ag162
ag163
ag164
ag165
ag166
ag167
ag168
ag169
ag221
ag222
ag223
ag224
ag225
ag226
ag227
ag228
ag229
ag230
ag263
ag264
ag265
asg39
I239
sS'n'
I460
sa(dp495
g13
(g14
(g16
S'\x00\x00\x00\x00\x00\x00\x00\x00'
tRp496
g18
(g19
(I0
tS'b'
tRp497
(I1
(I4
tg21
I00
S'\x00\x00\x00\x00\x00\x00\x00@\x00\x00\x00\x00\x00\x00\x00@\x00\x00\x00\x00\x00\x00\x00@\x00\x00\x00\x00\x00\x00\x00@'
tbtp498
sg23
(lp499
g25
ag26
ag45
ag46
ag47
ag48
ag49
ag50
ag51
ag52
ag106
ag107
ag108
ag109
ag110
ag111
ag112
ag113
ag114
ag115
ag175
ag176
ag177
ag178
ag179
ag180
ag27
ag28
ag53
ag54
ag55
ag56
ag57
ag58
ag59
ag60
ag116
ag117
ag118
ag119
ag120
ag121
ag122
ag123
ag124
ag125
ag181
ag182
ag183
ag184
ag185
ag186
ag187
ag188
ag189
ag190
ag29
ag30
ag61
ag62
ag63
ag64
ag65
ag66
ag67
ag68
ag126
ag127
ag128
ag129
ag130
ag131
ag132
ag133
ag134
ag135
ag191
ag192
ag193
ag194
ag195
ag196
ag197
ag198
ag199
ag200
ag236
ag237
ag238
ag239
ag240
ag241
ag242
ag243
ag244
ag245
ag271
ag272
ag273
ag274
ag275
ag276
ag277
ag278
ag279
ag280
ag292
ag293
ag294
ag31
ag32
ag69
ag70
ag71
ag72
ag73
ag74
ag75
ag76
ag136
ag137
ag138
ag139
ag140
ag141
ag142
ag143
ag144
ag145
ag201
ag202
ag203
ag204
ag205
ag206
ag207
ag208
ag209
ag210
ag246
ag247
ag248
ag249
ag250
ag251
ag252
ag253
ag254
ag255
ag281
ag282
ag283
ag284
ag285
ag286
ag33
ag34
ag77
ag78
ag79
ag80
ag81
ag82
ag83
ag84
ag146
ag147
ag148
ag149
ag35
ag36
ag85
ag86
ag87
ag88
ag89
ag90
ag91
ag92
ag150
ag151
ag152
ag153
ag154
ag155
ag156
ag157
ag158
ag159
ag211
ag212
ag213
ag214
ag215
ag216
ag217
ag218
ag219
ag220
ag256
ag257
ag258
ag259
ag260
ag261
ag262
ag37
ag38
ag93
ag94
ag95
ag96
ag97
ag98
ag99
ag100
ag160
ag161
ag162
ag163
ag164
ag165
ag166
ag167
ag168
ag169
ag221
ag222
ag223
ag224
ag225
ag226
ag227
ag228
ag229
ag230
ag263
ag264
ag265
asg39
I239
sS'n'
I470
sa(dp500
g13
(g14
(g16
S'\x00\x00\x00\x00\x00\x00\x00\x00'
tRp501
g18
(g19
(I0
tS'b'
tRp502
(I1
(I4
tg21
I00
S'\x00\x00\x00\x00\x00\x00\x00@\x00\x00\x00\x00\x00\x00\x00@\x00\x00\x00\x00\x00\x00\x00@\x00\x00\x00\x00\x00\x00\x00@'
tbtp503
sg23
(lp504
g25
ag26
ag45
ag46
ag47
ag48
ag49
ag50
ag51
ag52
ag106
ag107
ag108
ag109
ag110
ag111
ag112
ag113
ag114
ag115
ag175
ag176
ag177
ag178
ag179
ag180
ag27
ag28
ag53
ag54
ag55
ag56
ag57
ag58
ag59
ag60
ag116
ag117
ag118
ag119
ag120
ag121
ag122
ag123
ag124
ag125
ag181
ag182
ag183
ag184
ag185
ag186
ag187
ag188
ag189
ag190
ag29
ag30
ag61
ag62
ag63
ag64
ag65
ag66
ag67
ag68
ag126
ag127
ag128
ag129
ag130
ag131
ag132
ag133
ag134
ag135
ag191
ag192
ag193
ag194
ag195
ag196
ag197
ag198
ag199
ag200
ag236
ag237
ag238
ag239
ag240
ag241
ag242
ag243
ag244
ag245
ag271
ag272
ag273
ag274
ag275
ag276
ag277
ag278
ag279
ag280
ag292
ag293
ag294
ag31
ag32
ag69
ag70
ag71
ag72
ag73
ag74
ag75
ag76
ag136
ag137
ag138
ag139
ag140
ag141
ag142
ag143
ag144
ag145
ag201
ag202
ag203
ag204
ag205
ag206
ag207
ag208
ag209
ag210
ag246
ag247
ag248
ag249
ag250
ag251
ag252
ag253
ag254
ag255
ag281
ag282
ag283
ag284
ag285
ag286
ag33
ag34
ag77
ag78
ag79
ag80
ag81
ag82
ag83
ag84
ag146
ag147
ag148
ag149
ag35
ag36
ag85
ag86
ag87
ag88
ag89
ag90
ag91
ag92
ag150
ag151
ag152
ag153
ag154
ag155
ag156
ag157
ag158
ag159
ag211
ag212
ag213
ag214
ag215
ag216
ag217
ag218
ag219
ag220
ag256
ag257
ag258
ag259
ag260
ag261
ag262
ag37
ag38
ag93
ag94
ag95
ag96
ag97
ag98
ag99
ag100
ag160
ag161
ag162
ag163
ag164
ag165
ag166
ag167
ag168
ag169
ag221
ag222
ag223
ag224
ag225
ag226
ag227
ag228
ag229
ag230
ag263
ag264
ag265
asg39
I239
sS'n'
I480
sa(dp505
g13
(g14
(g16
S'\x00\x00\x00\x00\x00\x00\x00\x00'
tRp506
g18
(g19
(I0
tS'b'
tRp507
(I1
(I4
tg21
I00
S'\x00\x00\x00\x00\x00\x00\x00@\x00\x00\x00\x00\x00\x00\x00@\x00\x00\x00\x00\x00\x00\x00@\x00\x00\x00\x00\x00\x00\x00@'
tbtp508
sg23
(lp509
g25
ag26
ag45
ag46
ag47
ag48
ag49
ag50
ag51
ag52
ag106
ag107
ag108
ag109
ag110
ag111
ag112
ag113
ag114
ag115
ag175
ag176
ag177
ag178
ag179
ag180
ag27
ag28
ag53
ag54
ag55
ag56
ag57
ag58
ag59
ag60
ag116
ag117
ag118
ag119
ag120
ag121
ag122
ag123
ag124
ag125
ag181
ag182
ag183
ag184
ag185
ag186
ag187
ag188
ag189
ag190
ag29
ag30
ag61
ag62
ag63
ag64
ag65
ag66
ag67
ag68
ag126
ag127
ag128
ag129
ag130
ag131
ag132
ag133
ag134
ag135
ag191
ag192
ag193
ag194
ag195
ag196
ag197
ag198
ag199
ag200
ag236
ag237
ag238
ag239
ag240
ag241
ag242
ag243
ag244
ag245
ag271
ag272
ag273
ag274
ag275
ag276
ag277
ag278
ag279
ag280
ag292
ag293
ag294
ag31
ag32
ag69
ag70
ag71
ag72
ag73
ag74
ag75
ag76
ag136
ag137
ag138
ag139
ag140
ag141
ag142
ag143
ag144
ag145
ag201
ag202
ag203
ag204
ag205
ag206
ag207
ag208
ag209
ag210
ag246
ag247
ag248
ag249
ag250
ag251
ag252
ag253
ag254
ag255
ag281
ag282
ag283
ag284
ag285
ag286
ag33
ag34
ag77
ag78
ag79
ag80
ag81
ag82
ag83
ag84
ag146
ag147
ag148
ag149
ag35
ag36
ag85
ag86
ag87
ag88
ag89
ag90
ag91
ag92
ag150
ag151
ag152
ag153
ag154
ag155
ag156
ag157
ag158
ag159
ag211
ag212
ag213
ag214
ag215
ag216
ag217
ag218
ag219
ag220
ag256
ag257
ag258
ag259
ag260
ag261
ag262
ag37
ag38
ag93
ag94
ag95
ag96
ag97
ag98
ag99
ag100
ag160
ag161
ag162
ag163
ag164
ag165
ag166
ag167
ag168
ag169
ag221
ag222
ag223
ag224
ag225
ag226
ag227
ag228
ag229
ag230
ag263
ag264
ag265
asg39
I239
sS'n'
I490
sasS'comments'
p510
S'Using median-median qa distance and Rel Weights'
p511
sS'q_text_entities'
p512
(lp513
S'deoxyadenosine'
p514
aS'active triphosphate'
p515
aS'viral replication'
p516
aS'HIV reverse transcriptase'
p517
aS'chain termination'
p518
aS'zidovudine'
p519
aS'monotherapy'
p520
aS'dose-dependent pancreatitis'
p521
asS'weights'
p522
S'rel_weight'
p523
sS'graph'
p524
S'drugbank-ext-v3.graphml'
p525
sS'qid'
p526
S'Q119#2'
p527
sS'date'
p528
S'2014/08/16 12:30'
p529
sS'pickle'
p530
S'qa-experimente5-v7.p'
p531
sS'correct'
p532
I2
sS'ans_text_entities'
p533
(lp534
(lp535
S'zalcitabine'
p536
aa(lp537
S'trifluridine'
p538
aa(lp539
S'didanosine'
p540
aa(lp541
S'foscarnet'
p542
aas.