(dp1
S'expid'
p2
S'e5-v0'
p3
sS'description'
p4
S'What is the effect of certain design choices?\n    In particular, what is the effect of the qa-distance function?\n    And, second, how does the algorigh perform using rel_weights?'
p5
sS'trials'
p6
(lp7
I2
aI10
aI20
aI30
aI40
aI50
aI60
aI70
aI80
aI90
aI100
aI110
aI120
aI130
aI140
aI150
aI160
aI170
aI180
aI190
aI200
aI210
aI220
aI230
aI240
aI250
aI260
aI270
aI280
aI290
aI300
aI310
aI320
aI330
aI340
aI350
aI360
aI370
aI380
aI390
aI400
aI410
aI420
aI430
aI440
aI450
aI460
aI470
aI480
aI490
asS'qa_dist_fn'
p8
NsS'results'
p9
(lp10
(dp11
S'output'
p12
(cnumpy.core.multiarray
scalar
p13
(cnumpy
dtype
p14
(S'i8'
I0
I1
tRp15
(I3
S'<'
NNNI-1
I-1
I0
tbS'\x00\x00\x00\x00\x00\x00\x00\x00'
tRp16
cnumpy.core.multiarray
_reconstruct
p17
(cnumpy
ndarray
p18
(I0
tS'b'
tRp19
(I1
(I4
tg14
(S'f8'
I0
I1
tRp20
(I3
S'<'
NNNI-1
I-1
I0
tbI00
S'K=\xce\xf3%\x835@\xcb\x8b\x8d\xfb\x93\xa56@\xd3l_\xc2\xa5\x146@Z\xd9\x01\x96\xda\x8e6@'
tbtp21
sS'q_entities'
p22
(lp23
S'<http://bio2rdf.org/drugbank:DB02573>'
p24
aS'<http://bio2rdf.org/drugbank:DB02947>'
p25
aS'<http://bio2rdf.org/drugbank:BE0001218>'
p26
aS'<http://bio2rdf.org/drugbank_resource:dd1f46b3f814ae19967e3aa941116f21>'
p27
aS'<http://bio2rdf.org/drugbank:DB00495>'
p28
aS'<http://bio2rdf.org/drugbank:BE0001667>'
p29
aS'<http://bio2rdf.org/drugbank:DB00709>'
p30
aS'<http://bio2rdf.org/drugbank_resource:5524af5a69a8a56dfce67eed71af8d43>'
p31
aS'<http://bio2rdf.org/drugbank:DB00943>'
p32
aS'<http://bio2rdf.org/drugbank_resource:51a493652a13f9f15bfa7880693fc8f4>'
p33
aS'<http://bio2rdf.org/drugbank_resource:calculated-properties-DB00495-10>'
p34
aS'<http://bio2rdf.org/drugbank_resource:4ae6628acf456f373bb1241494313680>'
p35
aS'<http://bio2rdf.org/drugbank_resource:8069e8c4ef1d26165be249ff29aa06d8>'
p36
aS'<http://bio2rdf.org/drugbank_resource:febcec2ab95e291795b5d3aab5c19806>'
p37
asS'q_len'
p38
I14
sS'n'
I2
sa(dp39
g12
(g13
(g15
S'\x02\x00\x00\x00\x00\x00\x00\x00'
tRp40
g17
(g18
(I0
tS'b'
tRp41
(I1
(I4
tg20
I00
S'\xb5u>\xa1\x07\xcb5@\x8f\xfa\x82\xe1(\xdc6@\xab\xb3\x8d\rBi5@BZ.\xe7QZ6@'
tbtp42
sg22
(lp43
g24
ag25
aS"<http://bio2rdf.org/drugbank_vocabulary:5'-[N-[(3s)-3-Amino-3-Carboxypropyl]-N-Methylamino]-5'-Deoxyadenosine>"
p44
aS'<http://bio2rdf.org/drugbank:DB03716>'
p45
aS'<http://bio2rdf.org/drugbank:DB02573>'
p46
aS'<http://bio2rdf.org/drugbank:DB02947>'
p47
aS'<http://bio2rdf.org/drugbank:DB03716>'
p48
aS"<http://bio2rdf.org/drugbank_vocabulary:5'-[N-[(3s)-3-Amino-3-Carboxypropyl]-N-Methylamino]-5'-Deoxyadenosine>"
p49
aS'<http://bio2rdf.org/drugbank_resource:0af7b52de7c231d2b18103eedd8afac6>'
p50
aS"<http://bio2rdf.org/drugbank_vocabulary:5'-[N-[(3s)-3-Amino-3-Carboxypropyl]-N-Methylamino]-5'-Deoxyadenosine>"
p51
ag26
ag27
aS'<http://bio2rdf.org/drugbank_resource:41f41e4111532cb6ffe23996850852a5>'
p52
aS'<http://bio2rdf.org/drugbank_resource:d25a1498a6928f4ec245f730e1c7361d>'
p53
aS'<http://bio2rdf.org/drugbank_resource:76c04f36b8437521d0973352f80eff02>'
p54
aS'<http://bio2rdf.org/drugbank_resource:51f4ea955e20199e39200ae8f2717b5d>'
p55
aS'<http://bio2rdf.org/drugbank_resource:e8679877bff5eea2db3bc0017366cf02>'
p56
aS'<http://bio2rdf.org/drugbank_resource:11168e1047169f5c5034d23b19c09ead>'
p57
aS'<http://bio2rdf.org/drugbank_resource:7a0084de517fc32ebc79fa1cdce0dd34>'
p58
aS'<http://bio2rdf.org/drugbank_resource:d34ae46da31b9764c2bc974e02b21a71>'
p59
ag28
ag29
aS'<http://bio2rdf.org/drugbank_resource:b6058c7beb94d0fd5ce55f119743ca63>'
p60
aS'<http://bio2rdf.org/drugbank:DB00943>'
p61
aS'<http://bio2rdf.org/drugbank_resource:d6662f94aaf0247859cf44477cc46d19>'
p62
aS'<http://bio2rdf.org/drugbank_resource:8739b9a4b6e21dbd59226dd1a794cf31>'
p63
aS'<http://bio2rdf.org/drugbank_resource:7e726c96468b7f5aec8355d21c38ad50>'
p64
aS'<http://bio2rdf.org/drugbank_resource:7ba164a8211d3349080d3bdae8fab1f7>'
p65
aS'<http://bio2rdf.org/drugbank_resource:e1322c4847b4c6b1c54575991a554ac4>'
p66
aS'<http://bio2rdf.org/drugbank_resource:da4f1790e97e9296162f48811061cb9d>'
p67
ag30
ag31
aS'<http://bio2rdf.org/drugbank_resource:5d9496db3a3b2b800487fb51c7162950>'
p68
aS'<http://bio2rdf.org/drugbank:DB05228>'
p69
aS'<http://bio2rdf.org/drugbank_resource:d6420ab6f3cf89ce3fe8c5831402371e>'
p70
aS'<http://bio2rdf.org/drugbank_resource:4ae6628acf456f373bb1241494313680>'
p71
aS'<http://bio2rdf.org/drugbank_resource:fd39b01f96e3a80b0899e380c7507c79>'
p72
aS'<http://bio2rdf.org/drugbank:DB00300>'
p73
aS'<http://bio2rdf.org/drugbank_resource:08d0fa54553c69d124a356172a2da104>'
p74
aS'<http://bio2rdf.org/drugbank_resource:dd1f46b3f814ae19967e3aa941116f21>'
p75
ag32
ag33
aS'<http://bio2rdf.org/drugbank_resource:cf68dbe2ccc938c0c1d778610549ef55>'
p76
aS'<http://bio2rdf.org/drugbank_resource:b6058c7beb94d0fd5ce55f119743ca63>'
p77
aS'<http://bio2rdf.org/drugbank_resource:7a0084de517fc32ebc79fa1cdce0dd34>'
p78
aS'<http://bio2rdf.org/drugbank_resource:76c04f36b8437521d0973352f80eff02>'
p79
aS'<http://bio2rdf.org/drugbank_resource:51f4ea955e20199e39200ae8f2717b5d>'
p80
aS'<http://bio2rdf.org/drugbank_resource:c8a52bb6529b48b77f58f467ac6f50a1>'
p81
aS'<http://bio2rdf.org/drugbank_resource:f246c72c7439c8777583162763440757>'
p82
aS'<http://bio2rdf.org/drugbank_resource:e98047130e40dc991c8215e0210294ad>'
p83
ag34
ag35
aS'<http://bio2rdf.org/wikipedia:Zidovudine>'
p84
aS'<http://bio2rdf.org/drugbank_resource:Combid>'
p85
aS'<http://bio2rdf.org/drugbank_resource:Avocomb>'
p86
aS'<http://bio2rdf.org/drugbank_resource:Avudin>'
p87
aS'<http://bio2rdf.org/drugbank_resource:Biovir>'
p88
aS'<http://bio2rdf.org/drugbank_resource:Cipla-Duovir>'
p89
aS'<http://bio2rdf.org/drugbank_resource:Cytocom>'
p90
aS'<http://bio2rdf.org/drugbank_resource:Ganvirel-Duo>'
p91
ag36
ag37
aS'<http://bio2rdf.org/drugbank_resource:35ae2f32598bfc4e5d071ca6b55eb635>'
p92
aS'<http://bio2rdf.org/drugbank_resource:5f1019892af904259e3533b9b9f9cef3>'
p93
aS'<http://bio2rdf.org/drugbank_resource:5b58142878345818d14535ffff60e7dc>'
p94
aS'<http://bio2rdf.org/drugbank_resource:c924f5533e36f0c96f9df2dcb5a51070>'
p95
aS'<http://bio2rdf.org/drugbank_resource:b8aa593aa534794a6c1230548cf41e08>'
p96
aS'<http://bio2rdf.org/drugbank_resource:7cd9314a589894288607e3f69cf82aa9>'
p97
aS'<http://bio2rdf.org/drugbank_resource:695dae7eee65c1184ebbacf21a52da36>'
p98
aS'<http://bio2rdf.org/drugbank_resource:bc3c0498349c8454c719b777feb87df0>'
p99
asg38
I70
sS'n'
I10
sa(dp100
g12
(g13
(g15
S'\x02\x00\x00\x00\x00\x00\x00\x00'
tRp101
g17
(g18
(I0
tS'b'
tRp102
(I1
(I4
tg20
I00
S'\xa1/\xc4\xf9\x08%6@\x8c\xe7\x99lZ67@\xe4\x97\xfd\xfc2\xe05@\xab\xcd\x1c\x1d\x15\xb06@'
tbtp103
sg22
(lp104
g24
ag25
ag44
ag45
ag46
ag47
ag48
ag49
ag50
ag51
aS'<http://bio2rdf.org/drugbank_resource:1381a171a212990181a6aad111bcb533>'
p105
aS'<http://bio2rdf.org/drugbank_resource:8e1dcb5ec448d70b95b4e8de581db1f0>'
p106
aS'<http://bio2rdf.org/drugbank_resource:f246c72c7439c8777583162763440757>'
p107
aS"<http://bio2rdf.org/drugbank_vocabulary:5'-[N-[(3s)-3-Amino-3-Carboxypropyl]-N-Methylamino]-5'-Deoxyadenosine>"
p108
aS"<http://bio2rdf.org/drugbank_vocabulary:5'-[N-[(3s)-3-Amino-3-Carboxypropyl]-N-Methylamino]-5'-Deoxyadenosine>"
p109
aS'<http://bio2rdf.org/drugbank_resource:4b7b6b33e952268669c6bcc19f0e9a47>'
p110
aS'<http://bio2rdf.org/drugbank_resource:6f49e1143ca22c3d5731154239b6fa82>'
p111
aS'<http://bio2rdf.org/drugbank_resource:d69d4c8b4006a14887402a3db12a5618>'
p112
aS'<http://bio2rdf.org/drugbank_resource:e98047130e40dc991c8215e0210294ad>'
p113
aS'<http://bio2rdf.org/drugbank_resource:9a31158364606e8c2f84582f61bd993e>'
p114
ag26
ag27
ag52
ag53
ag54
ag55
ag56
ag57
ag58
ag59
aS'<http://bio2rdf.org/drugbank_resource:8cab8ce4d252226be193312fc01c4615>'
p115
aS'<http://bio2rdf.org/drugbank_resource:778d26a251be340dea392b7179181db4>'
p116
aS'<http://bio2rdf.org/drugbank_resource:44145bd60d187ae53e10d42aa1d126e0>'
p117
aS'<http://bio2rdf.org/drugbank_resource:ccdebb4e140093739925bc9052d4575d>'
p118
aS'<http://bio2rdf.org/drugbank_resource:0978f2a4793088a06752ef94bcb2a41f>'
p119
aS'<http://bio2rdf.org/drugbank_resource:4c5a18f63601fc79a778956507b27124>'
p120
aS'<http://bio2rdf.org/drugbank_resource:e077cef3b00c70353e4b40350d0b9dc5>'
p121
aS'<http://bio2rdf.org/drugbank_resource:4e116831377945974844123477c94d11>'
p122
aS'<http://bio2rdf.org/drugbank_resource:8e273d05ae5d1365a3420e051a7739c4>'
p123
aS'<http://bio2rdf.org/drugbank_resource:f1c1c0243af97612a3cd132afbce25be>'
p124
ag28
ag29
ag60
ag61
ag62
ag63
ag64
ag65
ag66
ag67
aS'<http://bio2rdf.org/drugbank_resource:1e69b2728fb47129630d7b13b6565dc5>'
p125
aS'<http://bio2rdf.org/drugbank_resource:51a493652a13f9f15bfa7880693fc8f4>'
p126
aS'<http://bio2rdf.org/drugbank_resource:b32da34f868abf10f48ac93c0289803c>'
p127
aS'<http://bio2rdf.org/drugbank_resource:886a56c32aa326ce14ee5fddd4e88a7c>'
p128
aS'<http://bio2rdf.org/drugbank_resource:76c04f36b8437521d0973352f80eff02>'
p129
aS'<http://bio2rdf.org/drugbank_resource:38cbb5517a4fce5f50e741e5c8deeeb2>'
p130
aS'<http://bio2rdf.org/drugbank_resource:d9ea663823ba777b61d6178c216ba28d>'
p131
aS'<http://bio2rdf.org/drugbank_resource:1722eb920ad0bbe1db51ac1d1a159d28>'
p132
aS'<http://bio2rdf.org/drugbank_resource:e575717ae39517db8b48e9da5d25e30c>'
p133
aS'<http://bio2rdf.org/drugbank_resource:8b58c2bbdb6fc525f9a11f116d5d2d78>'
p134
ag30
ag31
ag68
ag69
ag70
ag71
ag72
ag73
ag74
ag75
aS'<http://bio2rdf.org/drugbank_resource:85e317b55999b7a27430a9790de26a66>'
p135
aS'<http://bio2rdf.org/drugbank_resource:b157f64ab8a4f457df8bb878a1492a10>'
p136
aS'<http://bio2rdf.org/drugbank_resource:ea15c95120f73c93ca28ec1a15b48536>'
p137
aS'<http://bio2rdf.org/drugbank:DB00943>'
p138
aS'<http://bio2rdf.org/drugbank_resource:8e273d05ae5d1365a3420e051a7739c4>'
p139
aS'<http://bio2rdf.org/drugbank_resource:d1cb83e9bff15515880f9e15f8bdc957>'
p140
aS'<http://bio2rdf.org/drugbank_resource:425518c4ac4b087126b14b9ce0e7fe1b>'
p141
aS'<http://bio2rdf.org/drugbank_resource:40399ad2d2482e70ad847052042cba9f>'
p142
aS'<http://bio2rdf.org/drugbank_resource:d34ae46da31b9764c2bc974e02b21a71>'
p143
aS'<http://bio2rdf.org/drugbank_resource:fa4334e48e40e8d5ac4eb24171c364fa>'
p144
ag32
ag33
ag76
ag77
ag78
ag79
ag80
ag81
ag82
ag83
aS'<http://bio2rdf.org/drugbank_resource:b157f64ab8a4f457df8bb878a1492a10>'
p145
aS'<http://bio2rdf.org/drugbank_resource:8e273d05ae5d1365a3420e051a7739c4>'
p146
aS'<http://bio2rdf.org/drugbank_resource:1f9520cfa5e06b9a5e77f2508c2d6e87>'
p147
aS'<http://bio2rdf.org/drugbank:DB00970>'
p148
ag34
ag35
ag84
ag85
ag86
ag87
ag88
ag89
ag90
ag91
aS'<http://bio2rdf.org/drugbank_resource:Lamda-Z>'
p149
aS'<http://bio2rdf.org/drugbank_resource:Cytocom-N>'
p150
aS'<http://bio2rdf.org/drugbank_resource:calculated-properties-DB00495-10>'
p151
aS'<http://bio2rdf.org/drugbank_resource:16f596f16a2f57a6500d7e8a98ac9404>'
p152
aS'<http://bio2rdf.org/drugbank_resource:d1cb83e9bff15515880f9e15f8bdc957>'
p153
aS'<http://bio2rdf.org/drugbank_resource:Lamivudine-and-Zidovudine>'
p154
aS'<http://bio2rdf.org/drugbank_resource:Lamivudine-and-Zidovudine>'
p155
aS'<http://bio2rdf.org/drugbank_resource:Lamivudine-and-Zidovudine>'
p156
aS'<http://bio2rdf.org/drugbank_resource:Trizivir>'
p157
aS'<http://bio2rdf.org/drugbank_resource:Trizivir>'
p158
ag36
ag37
ag92
ag93
ag94
ag95
ag96
ag97
ag98
ag99
aS'<http://bio2rdf.org/drugbank_resource:1ace0b3c033dd9c0e8f921de569f17d3>'
p159
aS'<http://bio2rdf.org/drugbank_resource:703a58bd543ce6e87c5eb22579024be0>'
p160
aS'<http://bio2rdf.org/drugbank_resource:23f291d257cf1dd41ff7d36c4a8e0014>'
p161
aS'<http://bio2rdf.org/drugbank_resource:37cdf0a17b41427ffefc8c66976a9894>'
p162
aS'<http://bio2rdf.org/drugbank_resource:7612c80c4b85cde88e984138cff9fda3>'
p163
aS'<http://bio2rdf.org/drugbank_resource:199ce6ec43abf8b17c36780b32c10b2e>'
p164
aS'<http://bio2rdf.org/drugbank_resource:c51d4caf224a13eba60feab4e86958c3>'
p165
aS'<http://bio2rdf.org/drugbank_resource:7921794a9b077dd3150073303a3cb962>'
p166
aS'<http://bio2rdf.org/drugbank_resource:138b47706025a903063bca30bbcbdcf2>'
p167
aS'<http://bio2rdf.org/drugbank_resource:72c7b64a0278833f006cc8f9ebd58efa>'
p168
asg38
I134
sS'n'
I20
sa(dp169
g12
(g13
(g15
S'\x02\x00\x00\x00\x00\x00\x00\x00'
tRp170
g17
(g18
(I0
tS'b'
tRp171
(I1
(I4
tg20
I00
S'A.~(;<6@\xf4m\xa6y\x9d$7@5\x1aJ\xa6O\xdb5@\x8e\xe3\x9f\x81\xe4\xc96@'
tbtp172
sg22
(lp173
g24
ag25
ag44
ag45
ag46
ag47
ag48
ag49
ag50
ag51
ag105
ag106
ag107
ag108
ag109
ag110
ag111
ag112
ag113
ag114
aS'<http://bio2rdf.org/drugbank_resource:41f41e4111532cb6ffe23996850852a5>'
p174
aS'<http://bio2rdf.org/drugbank:DB03222>'
p175
aS'<http://bio2rdf.org/drugbank:DB03222>'
p176
aS'<http://bio2rdf.org/drugbank:DB04485>'
p177
aS'<http://bio2rdf.org/drugbank:BE0001731>'
p178
aS'<http://bio2rdf.org/drugbank:BE0001556>'
p179
ag26
ag27
ag52
ag53
ag54
ag55
ag56
ag57
ag58
ag59
ag115
ag116
ag117
ag118
ag119
ag120
ag121
ag122
ag123
ag124
aS'<http://bio2rdf.org/drugbank_resource:e98047130e40dc991c8215e0210294ad>'
p180
aS'<http://bio2rdf.org/drugbank_resource:fe2695819cad1797be87d6c4b67dd8d2>'
p181
aS'<http://bio2rdf.org/drugbank_resource:155d10ed42188391ec9c054f90b4d91b>'
p182
aS'<http://bio2rdf.org/drugbank_resource:b6058c7beb94d0fd5ce55f119743ca63>'
p183
aS'<http://bio2rdf.org/drugbank_resource:091df563607d4fdfe7102639140a0314>'
p184
aS'<http://bio2rdf.org/drugbank_resource:9d9aff577549d959cbdb935abe34bee0>'
p185
aS'<http://bio2rdf.org/drugbank_resource:b6e49069b3e39b22a03227631c16f227>'
p186
aS'<http://bio2rdf.org/drugbank_resource:2475486082ccacad6ca9b29d6ec97d82>'
p187
aS'<http://bio2rdf.org/drugbank_resource:1f9520cfa5e06b9a5e77f2508c2d6e87>'
p188
aS'<http://bio2rdf.org/drugbank:DB00900>'
p189
ag28
ag29
ag60
ag61
ag62
ag63
ag64
ag65
ag66
ag67
ag125
ag126
ag127
ag128
ag129
ag130
ag131
ag132
ag133
ag134
aS'<http://bio2rdf.org/drugbank_resource:83e2951873b95c4cd7faa52da0a3d5e2>'
p190
aS'<http://bio2rdf.org/drugbank_resource:e064b83b901106207c6d0edbee634798>'
p191
aS'<http://bio2rdf.org/drugbank_resource:b7b70130c66f757a546be3f3e8581260>'
p192
aS'<http://bio2rdf.org/drugbank:DB00442>'
p193
aS'<http://bio2rdf.org/drugbank_resource:0a61abac69324cb6158a2af2f5941c84>'
p194
aS'<http://bio2rdf.org/drugbank_resource:0978f2a4793088a06752ef94bcb2a41f>'
p195
aS'<http://bio2rdf.org/drugbank_resource:6a8eb83fccbadfd0d6564dbdf03c06da>'
p196
aS'<http://bio2rdf.org/drugbank:DB05060>'
p197
aS'<http://bio2rdf.org/drugbank_resource:c81d90fa4e70225c424a1ce63ce2062a>'
p198
aS'<http://bio2rdf.org/drugbank_resource:73668ef550de6539613a2889902dbf73>'
p199
ag30
ag31
ag68
ag69
ag70
ag71
ag72
ag73
ag74
ag75
ag135
ag136
ag137
ag138
ag139
ag140
ag141
ag142
ag143
ag144
aS'<http://bio2rdf.org/drugbank_resource:4c43b083d27d561f8c90a55123d5dba3>'
p200
aS'<http://bio2rdf.org/drugbank_resource:f246c72c7439c8777583162763440757>'
p201
aS'<http://bio2rdf.org/drugbank_resource:60b6ddd7a8f7546eb80c5ec9f77cdf94>'
p202
aS'<http://bio2rdf.org/drugbank_resource:7a0084de517fc32ebc79fa1cdce0dd34>'
p203
aS'<http://bio2rdf.org/drugbank_resource:1b4e550ca199af3136abb1fca6697741>'
p204
aS'<http://bio2rdf.org/drugbank_resource:51f4ea955e20199e39200ae8f2717b5d>'
p205
aS'<http://bio2rdf.org/drugbank_resource:334a228ef3dfe692771a870afa41329c>'
p206
aS'<http://bio2rdf.org/drugbank_resource:920f159188a5763be91d3999a27798b3>'
p207
aS'<http://bio2rdf.org/drugbank_resource:2f27d4bd79b12628ec476767c0f4e030>'
p208
aS'<http://bio2rdf.org/drugbank_resource:e7efbff1e7e96879a3270d796956d8d6>'
p209
ag32
ag33
ag76
ag77
ag78
ag79
ag80
ag81
ag82
ag83
ag145
ag146
ag147
ag148
ag34
ag35
ag84
ag85
ag86
ag87
ag88
ag89
ag90
ag91
ag149
ag150
ag151
ag152
ag153
ag154
ag155
ag156
ag157
ag158
aS'<http://bio2rdf.org/drugbank_resource:DB00495_DB00649>'
p210
aS'<http://bio2rdf.org/drugbank_resource:DB00495_DB00932>'
p211
aS'<http://bio2rdf.org/drugbank_resource:DB00333_DB00495>'
p212
aS'<http://bio2rdf.org/drugbank_resource:DB00495_DB01117>'
p213
aS'<http://bio2rdf.org/drugbank_resource:DB00333_DB00495>'
p214
aS'<http://bio2rdf.org/drugbank_resource:DB00495_DB01117>'
p215
aS'<http://bio2rdf.org/drugbank_resource:DB00495_DB01045>'
p216
aS'<http://bio2rdf.org/drugbank_resource:DB00068_DB00495>'
p217
aS'<http://bio2rdf.org/drugbank_resource:DB00495_DB00997>'
p218
aS'<http://bio2rdf.org/drugbank_resource:Combivir>'
p219
ag36
ag37
ag92
ag93
ag94
ag95
ag96
ag97
ag98
ag99
ag159
ag160
ag161
ag162
ag163
ag164
ag165
ag166
ag167
ag168
aS'<http://bio2rdf.org/drugbank_resource:216e05bfbe71b7bc3a0fc242e5393526>'
p220
aS'<http://bio2rdf.org/drugbank_resource:476b0e71f45f1e6109d650c91187376d>'
p221
aS'<http://bio2rdf.org/drugbank_resource:e6382f4d83246dd7574f9932b0f6a441>'
p222
aS'<http://bio2rdf.org/drugbank_resource:1c1c988707cce70a99a865dc9f2affab>'
p223
aS'<http://bio2rdf.org/drugbank_resource:06c1f9b941b6abebd0dd3f12d0148390>'
p224
aS'<http://bio2rdf.org/drugbank_resource:37b601a572c04ca9facf0834d0a6c2c9>'
p225
aS'<http://bio2rdf.org/drugbank_resource:dbaef74d523c15713978850dfbf547fd>'
p226
aS'<http://bio2rdf.org/drugbank_resource:6464ceab8ac90dccfbc0cc7ae9afeb1a>'
p227
aS'<http://bio2rdf.org/drugbank:DB00665>'
p228
aS'<http://bio2rdf.org/drugbank:DB01367>'
p229
asg38
I190
sS'n'
I30
sa(dp230
g12
(g13
(g15
S'\x02\x00\x00\x00\x00\x00\x00\x00'
tRp231
g17
(g18
(I0
tS'b'
tRp232
(I1
(I4
tg20
I00
S'\x8a\x91\xc1T\xcc\x1a6@C\xa5\x82W\xfd(7@&\xf82\xda\x9a\xc75@\xecB\xcbB\xf8\x946@'
tbtp233
sg22
(lp234
g24
ag25
ag44
ag45
ag46
ag47
ag48
ag49
ag50
ag51
ag105
ag106
ag107
ag108
ag109
ag110
ag111
ag112
ag113
ag114
ag174
ag175
ag176
ag177
ag178
ag179
ag26
ag27
ag52
ag53
ag54
ag55
ag56
ag57
ag58
ag59
ag115
ag116
ag117
ag118
ag119
ag120
ag121
ag122
ag123
ag124
ag180
ag181
ag182
ag183
ag184
ag185
ag186
ag187
ag188
ag189
ag28
ag29
ag60
ag61
ag62
ag63
ag64
ag65
ag66
ag67
ag125
ag126
ag127
ag128
ag129
ag130
ag131
ag132
ag133
ag134
ag190
ag191
ag192
ag193
ag194
ag195
ag196
ag197
ag198
ag199
aS'<http://bio2rdf.org/drugbank_resource:32dc7fd32146dc55e4bb7ae8c80111ef>'
p235
aS'<http://bio2rdf.org/drugbank_resource:d1cb83e9bff15515880f9e15f8bdc957>'
p236
aS'<http://bio2rdf.org/drugbank_resource:a73f762ea8cf789383f28463a8b4e7a7>'
p237
aS'<http://bio2rdf.org/drugbank_resource:7de8f358feb5564a0a8e45e16732464b>'
p238
aS'<http://bio2rdf.org/drugbank_resource:d86aa8df2a7f00be2c360ec724beff42>'
p239
aS'<http://bio2rdf.org/drugbank_resource:11168e1047169f5c5034d23b19c09ead>'
p240
aS'<http://bio2rdf.org/drugbank_resource:bc897473441e06dd07310521ae45dd38>'
p241
aS'<http://bio2rdf.org/drugbank_resource:72a909df7cbe7aa381c14dde2bf7cfc5>'
p242
aS'<http://bio2rdf.org/drugbank_resource:e24f7c4ac1c5b7296270f5175635a357>'
p243
aS'<http://bio2rdf.org/drugbank:BE0001468>'
p244
ag30
ag31
ag68
ag69
ag70
ag71
ag72
ag73
ag74
ag75
ag135
ag136
ag137
ag138
ag139
ag140
ag141
ag142
ag143
ag144
ag200
ag201
ag202
ag203
ag204
ag205
ag206
ag207
ag208
ag209
aS'<http://bio2rdf.org/drugbank_resource:78c0642412264f8ee62be60b9fd92496>'
p245
aS'<http://bio2rdf.org/drugbank_resource:4c5a18f63601fc79a778956507b27124>'
p246
aS'<http://bio2rdf.org/drugbank_resource:08f82aaa90d4ff2703b0992217214576>'
p247
aS'<http://bio2rdf.org/drugbank_resource:74f915eb3586cb9e3d342dc602990fd9>'
p248
aS'<http://bio2rdf.org/drugbank:DB00705>'
p249
aS'<http://bio2rdf.org/drugbank:DB08864>'
p250
aS'<http://bio2rdf.org/drugbank:DB00625>'
p251
aS'<http://bio2rdf.org/drugbank:DB01048>'
p252
aS'<http://bio2rdf.org/drugbank:DB00238>'
p253
aS'<http://bio2rdf.org/drugbank:DB00718>'
p254
ag32
ag33
ag76
ag77
ag78
ag79
ag80
ag81
ag82
ag83
ag145
ag146
ag147
ag148
ag34
ag35
ag84
ag85
ag86
ag87
ag88
ag89
ag90
ag91
ag149
ag150
ag151
ag152
ag153
ag154
ag155
ag156
ag157
ag158
ag210
ag211
ag212
ag213
ag214
ag215
ag216
ag217
ag218
ag219
aS'<http://bio2rdf.org/drugbank_resource:DB00495_DB01004>'
p255
aS'<http://bio2rdf.org/drugbank_resource:DB00495_DB01004>'
p256
aS'<http://bio2rdf.org/drugbank_resource:Zidovudine>'
p257
aS'<http://bio2rdf.org/drugbank_resource:Zidovudine>'
p258
aS'<http://bio2rdf.org/drugbank_resource:Lamivudine-and-Zidovudine,>'
p259
aS'<http://bio2rdf.org/drugbank_resource:Lamivudine-and-Zidovudine,>'
p260
aS'<http://bio2rdf.org/drugbank_resource:Lamivudine-and-Zidovudine,>'
p261
ag36
ag37
ag92
ag93
ag94
ag95
ag96
ag97
ag98
ag99
ag159
ag160
ag161
ag162
ag163
ag164
ag165
ag166
ag167
ag168
ag220
ag221
ag222
ag223
ag224
ag225
ag226
ag227
ag228
ag229
aS'<http://bio2rdf.org/drugbank:DB04914>'
p262
aS'<http://bio2rdf.org/drugbank:DB05015>'
p263
aS'<http://bio2rdf.org/drugbank:DB05322>'
p264
asg38
I220
sS'n'
I40
sa(dp265
g12
(g13
(g15
S'\x02\x00\x00\x00\x00\x00\x00\x00'
tRp266
g17
(g18
(I0
tS'b'
tRp267
(I1
(I4
tg20
I00
S'\xb4{\xf2\xb0P36@\xcf\x85\xde$\xad87@\x97G#]\x8c\xe95@\xee}\xd8p;\xa16@'
tbtp268
sg22
(lp269
g24
ag25
ag44
ag45
ag46
ag47
ag48
ag49
ag50
ag51
ag105
ag106
ag107
ag108
ag109
ag110
ag111
ag112
ag113
ag114
ag174
ag175
ag176
ag177
ag178
ag179
ag26
ag27
ag52
ag53
ag54
ag55
ag56
ag57
ag58
ag59
ag115
ag116
ag117
ag118
ag119
ag120
ag121
ag122
ag123
ag124
ag180
ag181
ag182
ag183
ag184
ag185
ag186
ag187
ag188
ag189
ag28
ag29
ag60
ag61
ag62
ag63
ag64
ag65
ag66
ag67
ag125
ag126
ag127
ag128
ag129
ag130
ag131
ag132
ag133
ag134
ag190
ag191
ag192
ag193
ag194
ag195
ag196
ag197
ag198
ag199
ag235
ag236
ag237
ag238
ag239
ag240
ag241
ag242
ag243
ag244
aS'<http://bio2rdf.org/drugbank:BE0001930>'
p270
aS'<http://bio2rdf.org/drugbank:BE0001261>'
p271
aS'<http://bio2rdf.org/drugbank:DB00900>'
p272
aS'<http://bio2rdf.org/drugbank:BE0000057>'
p273
aS'<http://bio2rdf.org/drugbank:BE0003527>'
p274
aS'<http://bio2rdf.org/drugbank:DB00369>'
p275
aS'<http://bio2rdf.org/drugbank:BE0000282>'
p276
aS'<http://bio2rdf.org/drugbank:BE0002813>'
p277
aS'<http://bio2rdf.org/drugbank:BE0001685>'
p278
aS'<http://bio2rdf.org/drugbank:DB00632>'
p279
ag30
ag31
ag68
ag69
ag70
ag71
ag72
ag73
ag74
ag75
ag135
ag136
ag137
ag138
ag139
ag140
ag141
ag142
ag143
ag144
ag200
ag201
ag202
ag203
ag204
ag205
ag206
ag207
ag208
ag209
ag245
ag246
ag247
ag248
ag249
ag250
ag251
ag252
ag253
ag254
aS'<http://bio2rdf.org/drugbank:DB00649>'
p280
aS'<http://bio2rdf.org/drugbank:DB00900>'
p281
aS'<http://bio2rdf.org/drugbank:DB00879>'
p282
aS'<http://bio2rdf.org/drugbank:DB06414>'
p283
aS'<http://bio2rdf.org/drugbank:DB04886>'
p284
aS'<http://bio2rdf.org/drugbank:DB05083>'
p285
ag32
ag33
ag76
ag77
ag78
ag79
ag80
ag81
ag82
ag83
ag145
ag146
ag147
ag148
ag34
ag35
ag84
ag85
ag86
ag87
ag88
ag89
ag90
ag91
ag149
ag150
ag151
ag152
ag153
ag154
ag155
ag156
ag157
ag158
ag210
ag211
ag212
ag213
ag214
ag215
ag216
ag217
ag218
ag219
ag255
ag256
ag257
ag258
ag259
ag260
ag261
ag36
ag37
ag92
ag93
ag94
ag95
ag96
ag97
ag98
ag99
ag159
ag160
ag161
ag162
ag163
ag164
ag165
ag166
ag167
ag168
ag220
ag221
ag222
ag223
ag224
ag225
ag226
ag227
ag228
ag229
ag262
ag263
ag264
asg38
I236
sS'n'
I50
sa(dp286
g12
(g13
(g15
S'\x02\x00\x00\x00\x00\x00\x00\x00'
tRp287
g17
(g18
(I0
tS'b'
tRp288
(I1
(I4
tg20
I00
S'Nr\xa2\xa3\xed:6@\xe9\x96\x91\x18W<7@\xb6\x13\x98\x16\xcb\xf95@\xa8LZ\xa5;\xa76@'
tbtp289
sg22
(lp290
g24
ag25
ag44
ag45
ag46
ag47
ag48
ag49
ag50
ag51
ag105
ag106
ag107
ag108
ag109
ag110
ag111
ag112
ag113
ag114
ag174
ag175
ag176
ag177
ag178
ag179
ag26
ag27
ag52
ag53
ag54
ag55
ag56
ag57
ag58
ag59
ag115
ag116
ag117
ag118
ag119
ag120
ag121
ag122
ag123
ag124
ag180
ag181
ag182
ag183
ag184
ag185
ag186
ag187
ag188
ag189
ag28
ag29
ag60
ag61
ag62
ag63
ag64
ag65
ag66
ag67
ag125
ag126
ag127
ag128
ag129
ag130
ag131
ag132
ag133
ag134
ag190
ag191
ag192
ag193
ag194
ag195
ag196
ag197
ag198
ag199
ag235
ag236
ag237
ag238
ag239
ag240
ag241
ag242
ag243
ag244
ag270
ag271
ag272
ag273
ag274
ag275
ag276
ag277
ag278
ag279
aS'<http://bio2rdf.org/drugbank:BE0000584>'
p291
aS'<http://bio2rdf.org/drugbank:DB05483>'
p292
aS'<http://bio2rdf.org/drugbank:DB05193>'
p293
ag30
ag31
ag68
ag69
ag70
ag71
ag72
ag73
ag74
ag75
ag135
ag136
ag137
ag138
ag139
ag140
ag141
ag142
ag143
ag144
ag200
ag201
ag202
ag203
ag204
ag205
ag206
ag207
ag208
ag209
ag245
ag246
ag247
ag248
ag249
ag250
ag251
ag252
ag253
ag254
ag280
ag281
ag282
ag283
ag284
ag285
ag32
ag33
ag76
ag77
ag78
ag79
ag80
ag81
ag82
ag83
ag145
ag146
ag147
ag148
ag34
ag35
ag84
ag85
ag86
ag87
ag88
ag89
ag90
ag91
ag149
ag150
ag151
ag152
ag153
ag154
ag155
ag156
ag157
ag158
ag210
ag211
ag212
ag213
ag214
ag215
ag216
ag217
ag218
ag219
ag255
ag256
ag257
ag258
ag259
ag260
ag261
ag36
ag37
ag92
ag93
ag94
ag95
ag96
ag97
ag98
ag99
ag159
ag160
ag161
ag162
ag163
ag164
ag165
ag166
ag167
ag168
ag220
ag221
ag222
ag223
ag224
ag225
ag226
ag227
ag228
ag229
ag262
ag263
ag264
asg38
I239
sS'n'
I60
sa(dp294
g12
(g13
(g15
S'\x02\x00\x00\x00\x00\x00\x00\x00'
tRp295
g17
(g18
(I0
tS'b'
tRp296
(I1
(I4
tg20
I00
S'Nr\xa2\xa3\xed:6@\xe9\x96\x91\x18W<7@\xb6\x13\x98\x16\xcb\xf95@\xa8LZ\xa5;\xa76@'
tbtp297
sg22
(lp298
g24
ag25
ag44
ag45
ag46
ag47
ag48
ag49
ag50
ag51
ag105
ag106
ag107
ag108
ag109
ag110
ag111
ag112
ag113
ag114
ag174
ag175
ag176
ag177
ag178
ag179
ag26
ag27
ag52
ag53
ag54
ag55
ag56
ag57
ag58
ag59
ag115
ag116
ag117
ag118
ag119
ag120
ag121
ag122
ag123
ag124
ag180
ag181
ag182
ag183
ag184
ag185
ag186
ag187
ag188
ag189
ag28
ag29
ag60
ag61
ag62
ag63
ag64
ag65
ag66
ag67
ag125
ag126
ag127
ag128
ag129
ag130
ag131
ag132
ag133
ag134
ag190
ag191
ag192
ag193
ag194
ag195
ag196
ag197
ag198
ag199
ag235
ag236
ag237
ag238
ag239
ag240
ag241
ag242
ag243
ag244
ag270
ag271
ag272
ag273
ag274
ag275
ag276
ag277
ag278
ag279
ag291
ag292
ag293
ag30
ag31
ag68
ag69
ag70
ag71
ag72
ag73
ag74
ag75
ag135
ag136
ag137
ag138
ag139
ag140
ag141
ag142
ag143
ag144
ag200
ag201
ag202
ag203
ag204
ag205
ag206
ag207
ag208
ag209
ag245
ag246
ag247
ag248
ag249
ag250
ag251
ag252
ag253
ag254
ag280
ag281
ag282
ag283
ag284
ag285
ag32
ag33
ag76
ag77
ag78
ag79
ag80
ag81
ag82
ag83
ag145
ag146
ag147
ag148
ag34
ag35
ag84
ag85
ag86
ag87
ag88
ag89
ag90
ag91
ag149
ag150
ag151
ag152
ag153
ag154
ag155
ag156
ag157
ag158
ag210
ag211
ag212
ag213
ag214
ag215
ag216
ag217
ag218
ag219
ag255
ag256
ag257
ag258
ag259
ag260
ag261
ag36
ag37
ag92
ag93
ag94
ag95
ag96
ag97
ag98
ag99
ag159
ag160
ag161
ag162
ag163
ag164
ag165
ag166
ag167
ag168
ag220
ag221
ag222
ag223
ag224
ag225
ag226
ag227
ag228
ag229
ag262
ag263
ag264
asg38
I239
sS'n'
I70
sa(dp299
g12
(g13
(g15
S'\x02\x00\x00\x00\x00\x00\x00\x00'
tRp300
g17
(g18
(I0
tS'b'
tRp301
(I1
(I4
tg20
I00
S'Nr\xa2\xa3\xed:6@\xe9\x96\x91\x18W<7@\xb6\x13\x98\x16\xcb\xf95@\xa8LZ\xa5;\xa76@'
tbtp302
sg22
(lp303
g24
ag25
ag44
ag45
ag46
ag47
ag48
ag49
ag50
ag51
ag105
ag106
ag107
ag108
ag109
ag110
ag111
ag112
ag113
ag114
ag174
ag175
ag176
ag177
ag178
ag179
ag26
ag27
ag52
ag53
ag54
ag55
ag56
ag57
ag58
ag59
ag115
ag116
ag117
ag118
ag119
ag120
ag121
ag122
ag123
ag124
ag180
ag181
ag182
ag183
ag184
ag185
ag186
ag187
ag188
ag189
ag28
ag29
ag60
ag61
ag62
ag63
ag64
ag65
ag66
ag67
ag125
ag126
ag127
ag128
ag129
ag130
ag131
ag132
ag133
ag134
ag190
ag191
ag192
ag193
ag194
ag195
ag196
ag197
ag198
ag199
ag235
ag236
ag237
ag238
ag239
ag240
ag241
ag242
ag243
ag244
ag270
ag271
ag272
ag273
ag274
ag275
ag276
ag277
ag278
ag279
ag291
ag292
ag293
ag30
ag31
ag68
ag69
ag70
ag71
ag72
ag73
ag74
ag75
ag135
ag136
ag137
ag138
ag139
ag140
ag141
ag142
ag143
ag144
ag200
ag201
ag202
ag203
ag204
ag205
ag206
ag207
ag208
ag209
ag245
ag246
ag247
ag248
ag249
ag250
ag251
ag252
ag253
ag254
ag280
ag281
ag282
ag283
ag284
ag285
ag32
ag33
ag76
ag77
ag78
ag79
ag80
ag81
ag82
ag83
ag145
ag146
ag147
ag148
ag34
ag35
ag84
ag85
ag86
ag87
ag88
ag89
ag90
ag91
ag149
ag150
ag151
ag152
ag153
ag154
ag155
ag156
ag157
ag158
ag210
ag211
ag212
ag213
ag214
ag215
ag216
ag217
ag218
ag219
ag255
ag256
ag257
ag258
ag259
ag260
ag261
ag36
ag37
ag92
ag93
ag94
ag95
ag96
ag97
ag98
ag99
ag159
ag160
ag161
ag162
ag163
ag164
ag165
ag166
ag167
ag168
ag220
ag221
ag222
ag223
ag224
ag225
ag226
ag227
ag228
ag229
ag262
ag263
ag264
asg38
I239
sS'n'
I80
sa(dp304
g12
(g13
(g15
S'\x02\x00\x00\x00\x00\x00\x00\x00'
tRp305
g17
(g18
(I0
tS'b'
tRp306
(I1
(I4
tg20
I00
S'Nr\xa2\xa3\xed:6@\xe9\x96\x91\x18W<7@\xb6\x13\x98\x16\xcb\xf95@\xa8LZ\xa5;\xa76@'
tbtp307
sg22
(lp308
g24
ag25
ag44
ag45
ag46
ag47
ag48
ag49
ag50
ag51
ag105
ag106
ag107
ag108
ag109
ag110
ag111
ag112
ag113
ag114
ag174
ag175
ag176
ag177
ag178
ag179
ag26
ag27
ag52
ag53
ag54
ag55
ag56
ag57
ag58
ag59
ag115
ag116
ag117
ag118
ag119
ag120
ag121
ag122
ag123
ag124
ag180
ag181
ag182
ag183
ag184
ag185
ag186
ag187
ag188
ag189
ag28
ag29
ag60
ag61
ag62
ag63
ag64
ag65
ag66
ag67
ag125
ag126
ag127
ag128
ag129
ag130
ag131
ag132
ag133
ag134
ag190
ag191
ag192
ag193
ag194
ag195
ag196
ag197
ag198
ag199
ag235
ag236
ag237
ag238
ag239
ag240
ag241
ag242
ag243
ag244
ag270
ag271
ag272
ag273
ag274
ag275
ag276
ag277
ag278
ag279
ag291
ag292
ag293
ag30
ag31
ag68
ag69
ag70
ag71
ag72
ag73
ag74
ag75
ag135
ag136
ag137
ag138
ag139
ag140
ag141
ag142
ag143
ag144
ag200
ag201
ag202
ag203
ag204
ag205
ag206
ag207
ag208
ag209
ag245
ag246
ag247
ag248
ag249
ag250
ag251
ag252
ag253
ag254
ag280
ag281
ag282
ag283
ag284
ag285
ag32
ag33
ag76
ag77
ag78
ag79
ag80
ag81
ag82
ag83
ag145
ag146
ag147
ag148
ag34
ag35
ag84
ag85
ag86
ag87
ag88
ag89
ag90
ag91
ag149
ag150
ag151
ag152
ag153
ag154
ag155
ag156
ag157
ag158
ag210
ag211
ag212
ag213
ag214
ag215
ag216
ag217
ag218
ag219
ag255
ag256
ag257
ag258
ag259
ag260
ag261
ag36
ag37
ag92
ag93
ag94
ag95
ag96
ag97
ag98
ag99
ag159
ag160
ag161
ag162
ag163
ag164
ag165
ag166
ag167
ag168
ag220
ag221
ag222
ag223
ag224
ag225
ag226
ag227
ag228
ag229
ag262
ag263
ag264
asg38
I239
sS'n'
I90
sa(dp309
g12
(g13
(g15
S'\x02\x00\x00\x00\x00\x00\x00\x00'
tRp310
g17
(g18
(I0
tS'b'
tRp311
(I1
(I4
tg20
I00
S'Nr\xa2\xa3\xed:6@\xe9\x96\x91\x18W<7@\xb6\x13\x98\x16\xcb\xf95@\xa8LZ\xa5;\xa76@'
tbtp312
sg22
(lp313
g24
ag25
ag44
ag45
ag46
ag47
ag48
ag49
ag50
ag51
ag105
ag106
ag107
ag108
ag109
ag110
ag111
ag112
ag113
ag114
ag174
ag175
ag176
ag177
ag178
ag179
ag26
ag27
ag52
ag53
ag54
ag55
ag56
ag57
ag58
ag59
ag115
ag116
ag117
ag118
ag119
ag120
ag121
ag122
ag123
ag124
ag180
ag181
ag182
ag183
ag184
ag185
ag186
ag187
ag188
ag189
ag28
ag29
ag60
ag61
ag62
ag63
ag64
ag65
ag66
ag67
ag125
ag126
ag127
ag128
ag129
ag130
ag131
ag132
ag133
ag134
ag190
ag191
ag192
ag193
ag194
ag195
ag196
ag197
ag198
ag199
ag235
ag236
ag237
ag238
ag239
ag240
ag241
ag242
ag243
ag244
ag270
ag271
ag272
ag273
ag274
ag275
ag276
ag277
ag278
ag279
ag291
ag292
ag293
ag30
ag31
ag68
ag69
ag70
ag71
ag72
ag73
ag74
ag75
ag135
ag136
ag137
ag138
ag139
ag140
ag141
ag142
ag143
ag144
ag200
ag201
ag202
ag203
ag204
ag205
ag206
ag207
ag208
ag209
ag245
ag246
ag247
ag248
ag249
ag250
ag251
ag252
ag253
ag254
ag280
ag281
ag282
ag283
ag284
ag285
ag32
ag33
ag76
ag77
ag78
ag79
ag80
ag81
ag82
ag83
ag145
ag146
ag147
ag148
ag34
ag35
ag84
ag85
ag86
ag87
ag88
ag89
ag90
ag91
ag149
ag150
ag151
ag152
ag153
ag154
ag155
ag156
ag157
ag158
ag210
ag211
ag212
ag213
ag214
ag215
ag216
ag217
ag218
ag219
ag255
ag256
ag257
ag258
ag259
ag260
ag261
ag36
ag37
ag92
ag93
ag94
ag95
ag96
ag97
ag98
ag99
ag159
ag160
ag161
ag162
ag163
ag164
ag165
ag166
ag167
ag168
ag220
ag221
ag222
ag223
ag224
ag225
ag226
ag227
ag228
ag229
ag262
ag263
ag264
asg38
I239
sS'n'
I100
sa(dp314
g12
(g13
(g15
S'\x02\x00\x00\x00\x00\x00\x00\x00'
tRp315
g17
(g18
(I0
tS'b'
tRp316
(I1
(I4
tg20
I00
S'Nr\xa2\xa3\xed:6@\xe9\x96\x91\x18W<7@\xb6\x13\x98\x16\xcb\xf95@\xa8LZ\xa5;\xa76@'
tbtp317
sg22
(lp318
g24
ag25
ag44
ag45
ag46
ag47
ag48
ag49
ag50
ag51
ag105
ag106
ag107
ag108
ag109
ag110
ag111
ag112
ag113
ag114
ag174
ag175
ag176
ag177
ag178
ag179
ag26
ag27
ag52
ag53
ag54
ag55
ag56
ag57
ag58
ag59
ag115
ag116
ag117
ag118
ag119
ag120
ag121
ag122
ag123
ag124
ag180
ag181
ag182
ag183
ag184
ag185
ag186
ag187
ag188
ag189
ag28
ag29
ag60
ag61
ag62
ag63
ag64
ag65
ag66
ag67
ag125
ag126
ag127
ag128
ag129
ag130
ag131
ag132
ag133
ag134
ag190
ag191
ag192
ag193
ag194
ag195
ag196
ag197
ag198
ag199
ag235
ag236
ag237
ag238
ag239
ag240
ag241
ag242
ag243
ag244
ag270
ag271
ag272
ag273
ag274
ag275
ag276
ag277
ag278
ag279
ag291
ag292
ag293
ag30
ag31
ag68
ag69
ag70
ag71
ag72
ag73
ag74
ag75
ag135
ag136
ag137
ag138
ag139
ag140
ag141
ag142
ag143
ag144
ag200
ag201
ag202
ag203
ag204
ag205
ag206
ag207
ag208
ag209
ag245
ag246
ag247
ag248
ag249
ag250
ag251
ag252
ag253
ag254
ag280
ag281
ag282
ag283
ag284
ag285
ag32
ag33
ag76
ag77
ag78
ag79
ag80
ag81
ag82
ag83
ag145
ag146
ag147
ag148
ag34
ag35
ag84
ag85
ag86
ag87
ag88
ag89
ag90
ag91
ag149
ag150
ag151
ag152
ag153
ag154
ag155
ag156
ag157
ag158
ag210
ag211
ag212
ag213
ag214
ag215
ag216
ag217
ag218
ag219
ag255
ag256
ag257
ag258
ag259
ag260
ag261
ag36
ag37
ag92
ag93
ag94
ag95
ag96
ag97
ag98
ag99
ag159
ag160
ag161
ag162
ag163
ag164
ag165
ag166
ag167
ag168
ag220
ag221
ag222
ag223
ag224
ag225
ag226
ag227
ag228
ag229
ag262
ag263
ag264
asg38
I239
sS'n'
I110
sa(dp319
g12
(g13
(g15
S'\x02\x00\x00\x00\x00\x00\x00\x00'
tRp320
g17
(g18
(I0
tS'b'
tRp321
(I1
(I4
tg20
I00
S'Nr\xa2\xa3\xed:6@\xe9\x96\x91\x18W<7@\xb6\x13\x98\x16\xcb\xf95@\xa8LZ\xa5;\xa76@'
tbtp322
sg22
(lp323
g24
ag25
ag44
ag45
ag46
ag47
ag48
ag49
ag50
ag51
ag105
ag106
ag107
ag108
ag109
ag110
ag111
ag112
ag113
ag114
ag174
ag175
ag176
ag177
ag178
ag179
ag26
ag27
ag52
ag53
ag54
ag55
ag56
ag57
ag58
ag59
ag115
ag116
ag117
ag118
ag119
ag120
ag121
ag122
ag123
ag124
ag180
ag181
ag182
ag183
ag184
ag185
ag186
ag187
ag188
ag189
ag28
ag29
ag60
ag61
ag62
ag63
ag64
ag65
ag66
ag67
ag125
ag126
ag127
ag128
ag129
ag130
ag131
ag132
ag133
ag134
ag190
ag191
ag192
ag193
ag194
ag195
ag196
ag197
ag198
ag199
ag235
ag236
ag237
ag238
ag239
ag240
ag241
ag242
ag243
ag244
ag270
ag271
ag272
ag273
ag274
ag275
ag276
ag277
ag278
ag279
ag291
ag292
ag293
ag30
ag31
ag68
ag69
ag70
ag71
ag72
ag73
ag74
ag75
ag135
ag136
ag137
ag138
ag139
ag140
ag141
ag142
ag143
ag144
ag200
ag201
ag202
ag203
ag204
ag205
ag206
ag207
ag208
ag209
ag245
ag246
ag247
ag248
ag249
ag250
ag251
ag252
ag253
ag254
ag280
ag281
ag282
ag283
ag284
ag285
ag32
ag33
ag76
ag77
ag78
ag79
ag80
ag81
ag82
ag83
ag145
ag146
ag147
ag148
ag34
ag35
ag84
ag85
ag86
ag87
ag88
ag89
ag90
ag91
ag149
ag150
ag151
ag152
ag153
ag154
ag155
ag156
ag157
ag158
ag210
ag211
ag212
ag213
ag214
ag215
ag216
ag217
ag218
ag219
ag255
ag256
ag257
ag258
ag259
ag260
ag261
ag36
ag37
ag92
ag93
ag94
ag95
ag96
ag97
ag98
ag99
ag159
ag160
ag161
ag162
ag163
ag164
ag165
ag166
ag167
ag168
ag220
ag221
ag222
ag223
ag224
ag225
ag226
ag227
ag228
ag229
ag262
ag263
ag264
asg38
I239
sS'n'
I120
sa(dp324
g12
(g13
(g15
S'\x02\x00\x00\x00\x00\x00\x00\x00'
tRp325
g17
(g18
(I0
tS'b'
tRp326
(I1
(I4
tg20
I00
S'Nr\xa2\xa3\xed:6@\xe9\x96\x91\x18W<7@\xb6\x13\x98\x16\xcb\xf95@\xa8LZ\xa5;\xa76@'
tbtp327
sg22
(lp328
g24
ag25
ag44
ag45
ag46
ag47
ag48
ag49
ag50
ag51
ag105
ag106
ag107
ag108
ag109
ag110
ag111
ag112
ag113
ag114
ag174
ag175
ag176
ag177
ag178
ag179
ag26
ag27
ag52
ag53
ag54
ag55
ag56
ag57
ag58
ag59
ag115
ag116
ag117
ag118
ag119
ag120
ag121
ag122
ag123
ag124
ag180
ag181
ag182
ag183
ag184
ag185
ag186
ag187
ag188
ag189
ag28
ag29
ag60
ag61
ag62
ag63
ag64
ag65
ag66
ag67
ag125
ag126
ag127
ag128
ag129
ag130
ag131
ag132
ag133
ag134
ag190
ag191
ag192
ag193
ag194
ag195
ag196
ag197
ag198
ag199
ag235
ag236
ag237
ag238
ag239
ag240
ag241
ag242
ag243
ag244
ag270
ag271
ag272
ag273
ag274
ag275
ag276
ag277
ag278
ag279
ag291
ag292
ag293
ag30
ag31
ag68
ag69
ag70
ag71
ag72
ag73
ag74
ag75
ag135
ag136
ag137
ag138
ag139
ag140
ag141
ag142
ag143
ag144
ag200
ag201
ag202
ag203
ag204
ag205
ag206
ag207
ag208
ag209
ag245
ag246
ag247
ag248
ag249
ag250
ag251
ag252
ag253
ag254
ag280
ag281
ag282
ag283
ag284
ag285
ag32
ag33
ag76
ag77
ag78
ag79
ag80
ag81
ag82
ag83
ag145
ag146
ag147
ag148
ag34
ag35
ag84
ag85
ag86
ag87
ag88
ag89
ag90
ag91
ag149
ag150
ag151
ag152
ag153
ag154
ag155
ag156
ag157
ag158
ag210
ag211
ag212
ag213
ag214
ag215
ag216
ag217
ag218
ag219
ag255
ag256
ag257
ag258
ag259
ag260
ag261
ag36
ag37
ag92
ag93
ag94
ag95
ag96
ag97
ag98
ag99
ag159
ag160
ag161
ag162
ag163
ag164
ag165
ag166
ag167
ag168
ag220
ag221
ag222
ag223
ag224
ag225
ag226
ag227
ag228
ag229
ag262
ag263
ag264
asg38
I239
sS'n'
I130
sa(dp329
g12
(g13
(g15
S'\x02\x00\x00\x00\x00\x00\x00\x00'
tRp330
g17
(g18
(I0
tS'b'
tRp331
(I1
(I4
tg20
I00
S'Nr\xa2\xa3\xed:6@\xe9\x96\x91\x18W<7@\xb6\x13\x98\x16\xcb\xf95@\xa8LZ\xa5;\xa76@'
tbtp332
sg22
(lp333
g24
ag25
ag44
ag45
ag46
ag47
ag48
ag49
ag50
ag51
ag105
ag106
ag107
ag108
ag109
ag110
ag111
ag112
ag113
ag114
ag174
ag175
ag176
ag177
ag178
ag179
ag26
ag27
ag52
ag53
ag54
ag55
ag56
ag57
ag58
ag59
ag115
ag116
ag117
ag118
ag119
ag120
ag121
ag122
ag123
ag124
ag180
ag181
ag182
ag183
ag184
ag185
ag186
ag187
ag188
ag189
ag28
ag29
ag60
ag61
ag62
ag63
ag64
ag65
ag66
ag67
ag125
ag126
ag127
ag128
ag129
ag130
ag131
ag132
ag133
ag134
ag190
ag191
ag192
ag193
ag194
ag195
ag196
ag197
ag198
ag199
ag235
ag236
ag237
ag238
ag239
ag240
ag241
ag242
ag243
ag244
ag270
ag271
ag272
ag273
ag274
ag275
ag276
ag277
ag278
ag279
ag291
ag292
ag293
ag30
ag31
ag68
ag69
ag70
ag71
ag72
ag73
ag74
ag75
ag135
ag136
ag137
ag138
ag139
ag140
ag141
ag142
ag143
ag144
ag200
ag201
ag202
ag203
ag204
ag205
ag206
ag207
ag208
ag209
ag245
ag246
ag247
ag248
ag249
ag250
ag251
ag252
ag253
ag254
ag280
ag281
ag282
ag283
ag284
ag285
ag32
ag33
ag76
ag77
ag78
ag79
ag80
ag81
ag82
ag83
ag145
ag146
ag147
ag148
ag34
ag35
ag84
ag85
ag86
ag87
ag88
ag89
ag90
ag91
ag149
ag150
ag151
ag152
ag153
ag154
ag155
ag156
ag157
ag158
ag210
ag211
ag212
ag213
ag214
ag215
ag216
ag217
ag218
ag219
ag255
ag256
ag257
ag258
ag259
ag260
ag261
ag36
ag37
ag92
ag93
ag94
ag95
ag96
ag97
ag98
ag99
ag159
ag160
ag161
ag162
ag163
ag164
ag165
ag166
ag167
ag168
ag220
ag221
ag222
ag223
ag224
ag225
ag226
ag227
ag228
ag229
ag262
ag263
ag264
asg38
I239
sS'n'
I140
sa(dp334
g12
(g13
(g15
S'\x02\x00\x00\x00\x00\x00\x00\x00'
tRp335
g17
(g18
(I0
tS'b'
tRp336
(I1
(I4
tg20
I00
S'Nr\xa2\xa3\xed:6@\xe9\x96\x91\x18W<7@\xb6\x13\x98\x16\xcb\xf95@\xa8LZ\xa5;\xa76@'
tbtp337
sg22
(lp338
g24
ag25
ag44
ag45
ag46
ag47
ag48
ag49
ag50
ag51
ag105
ag106
ag107
ag108
ag109
ag110
ag111
ag112
ag113
ag114
ag174
ag175
ag176
ag177
ag178
ag179
ag26
ag27
ag52
ag53
ag54
ag55
ag56
ag57
ag58
ag59
ag115
ag116
ag117
ag118
ag119
ag120
ag121
ag122
ag123
ag124
ag180
ag181
ag182
ag183
ag184
ag185
ag186
ag187
ag188
ag189
ag28
ag29
ag60
ag61
ag62
ag63
ag64
ag65
ag66
ag67
ag125
ag126
ag127
ag128
ag129
ag130
ag131
ag132
ag133
ag134
ag190
ag191
ag192
ag193
ag194
ag195
ag196
ag197
ag198
ag199
ag235
ag236
ag237
ag238
ag239
ag240
ag241
ag242
ag243
ag244
ag270
ag271
ag272
ag273
ag274
ag275
ag276
ag277
ag278
ag279
ag291
ag292
ag293
ag30
ag31
ag68
ag69
ag70
ag71
ag72
ag73
ag74
ag75
ag135
ag136
ag137
ag138
ag139
ag140
ag141
ag142
ag143
ag144
ag200
ag201
ag202
ag203
ag204
ag205
ag206
ag207
ag208
ag209
ag245
ag246
ag247
ag248
ag249
ag250
ag251
ag252
ag253
ag254
ag280
ag281
ag282
ag283
ag284
ag285
ag32
ag33
ag76
ag77
ag78
ag79
ag80
ag81
ag82
ag83
ag145
ag146
ag147
ag148
ag34
ag35
ag84
ag85
ag86
ag87
ag88
ag89
ag90
ag91
ag149
ag150
ag151
ag152
ag153
ag154
ag155
ag156
ag157
ag158
ag210
ag211
ag212
ag213
ag214
ag215
ag216
ag217
ag218
ag219
ag255
ag256
ag257
ag258
ag259
ag260
ag261
ag36
ag37
ag92
ag93
ag94
ag95
ag96
ag97
ag98
ag99
ag159
ag160
ag161
ag162
ag163
ag164
ag165
ag166
ag167
ag168
ag220
ag221
ag222
ag223
ag224
ag225
ag226
ag227
ag228
ag229
ag262
ag263
ag264
asg38
I239
sS'n'
I150
sa(dp339
g12
(g13
(g15
S'\x02\x00\x00\x00\x00\x00\x00\x00'
tRp340
g17
(g18
(I0
tS'b'
tRp341
(I1
(I4
tg20
I00
S'Nr\xa2\xa3\xed:6@\xe9\x96\x91\x18W<7@\xb6\x13\x98\x16\xcb\xf95@\xa8LZ\xa5;\xa76@'
tbtp342
sg22
(lp343
g24
ag25
ag44
ag45
ag46
ag47
ag48
ag49
ag50
ag51
ag105
ag106
ag107
ag108
ag109
ag110
ag111
ag112
ag113
ag114
ag174
ag175
ag176
ag177
ag178
ag179
ag26
ag27
ag52
ag53
ag54
ag55
ag56
ag57
ag58
ag59
ag115
ag116
ag117
ag118
ag119
ag120
ag121
ag122
ag123
ag124
ag180
ag181
ag182
ag183
ag184
ag185
ag186
ag187
ag188
ag189
ag28
ag29
ag60
ag61
ag62
ag63
ag64
ag65
ag66
ag67
ag125
ag126
ag127
ag128
ag129
ag130
ag131
ag132
ag133
ag134
ag190
ag191
ag192
ag193
ag194
ag195
ag196
ag197
ag198
ag199
ag235
ag236
ag237
ag238
ag239
ag240
ag241
ag242
ag243
ag244
ag270
ag271
ag272
ag273
ag274
ag275
ag276
ag277
ag278
ag279
ag291
ag292
ag293
ag30
ag31
ag68
ag69
ag70
ag71
ag72
ag73
ag74
ag75
ag135
ag136
ag137
ag138
ag139
ag140
ag141
ag142
ag143
ag144
ag200
ag201
ag202
ag203
ag204
ag205
ag206
ag207
ag208
ag209
ag245
ag246
ag247
ag248
ag249
ag250
ag251
ag252
ag253
ag254
ag280
ag281
ag282
ag283
ag284
ag285
ag32
ag33
ag76
ag77
ag78
ag79
ag80
ag81
ag82
ag83
ag145
ag146
ag147
ag148
ag34
ag35
ag84
ag85
ag86
ag87
ag88
ag89
ag90
ag91
ag149
ag150
ag151
ag152
ag153
ag154
ag155
ag156
ag157
ag158
ag210
ag211
ag212
ag213
ag214
ag215
ag216
ag217
ag218
ag219
ag255
ag256
ag257
ag258
ag259
ag260
ag261
ag36
ag37
ag92
ag93
ag94
ag95
ag96
ag97
ag98
ag99
ag159
ag160
ag161
ag162
ag163
ag164
ag165
ag166
ag167
ag168
ag220
ag221
ag222
ag223
ag224
ag225
ag226
ag227
ag228
ag229
ag262
ag263
ag264
asg38
I239
sS'n'
I160
sa(dp344
g12
(g13
(g15
S'\x02\x00\x00\x00\x00\x00\x00\x00'
tRp345
g17
(g18
(I0
tS'b'
tRp346
(I1
(I4
tg20
I00
S'Nr\xa2\xa3\xed:6@\xe9\x96\x91\x18W<7@\xb6\x13\x98\x16\xcb\xf95@\xa8LZ\xa5;\xa76@'
tbtp347
sg22
(lp348
g24
ag25
ag44
ag45
ag46
ag47
ag48
ag49
ag50
ag51
ag105
ag106
ag107
ag108
ag109
ag110
ag111
ag112
ag113
ag114
ag174
ag175
ag176
ag177
ag178
ag179
ag26
ag27
ag52
ag53
ag54
ag55
ag56
ag57
ag58
ag59
ag115
ag116
ag117
ag118
ag119
ag120
ag121
ag122
ag123
ag124
ag180
ag181
ag182
ag183
ag184
ag185
ag186
ag187
ag188
ag189
ag28
ag29
ag60
ag61
ag62
ag63
ag64
ag65
ag66
ag67
ag125
ag126
ag127
ag128
ag129
ag130
ag131
ag132
ag133
ag134
ag190
ag191
ag192
ag193
ag194
ag195
ag196
ag197
ag198
ag199
ag235
ag236
ag237
ag238
ag239
ag240
ag241
ag242
ag243
ag244
ag270
ag271
ag272
ag273
ag274
ag275
ag276
ag277
ag278
ag279
ag291
ag292
ag293
ag30
ag31
ag68
ag69
ag70
ag71
ag72
ag73
ag74
ag75
ag135
ag136
ag137
ag138
ag139
ag140
ag141
ag142
ag143
ag144
ag200
ag201
ag202
ag203
ag204
ag205
ag206
ag207
ag208
ag209
ag245
ag246
ag247
ag248
ag249
ag250
ag251
ag252
ag253
ag254
ag280
ag281
ag282
ag283
ag284
ag285
ag32
ag33
ag76
ag77
ag78
ag79
ag80
ag81
ag82
ag83
ag145
ag146
ag147
ag148
ag34
ag35
ag84
ag85
ag86
ag87
ag88
ag89
ag90
ag91
ag149
ag150
ag151
ag152
ag153
ag154
ag155
ag156
ag157
ag158
ag210
ag211
ag212
ag213
ag214
ag215
ag216
ag217
ag218
ag219
ag255
ag256
ag257
ag258
ag259
ag260
ag261
ag36
ag37
ag92
ag93
ag94
ag95
ag96
ag97
ag98
ag99
ag159
ag160
ag161
ag162
ag163
ag164
ag165
ag166
ag167
ag168
ag220
ag221
ag222
ag223
ag224
ag225
ag226
ag227
ag228
ag229
ag262
ag263
ag264
asg38
I239
sS'n'
I170
sa(dp349
g12
(g13
(g15
S'\x02\x00\x00\x00\x00\x00\x00\x00'
tRp350
g17
(g18
(I0
tS'b'
tRp351
(I1
(I4
tg20
I00
S'Nr\xa2\xa3\xed:6@\xe9\x96\x91\x18W<7@\xb6\x13\x98\x16\xcb\xf95@\xa8LZ\xa5;\xa76@'
tbtp352
sg22
(lp353
g24
ag25
ag44
ag45
ag46
ag47
ag48
ag49
ag50
ag51
ag105
ag106
ag107
ag108
ag109
ag110
ag111
ag112
ag113
ag114
ag174
ag175
ag176
ag177
ag178
ag179
ag26
ag27
ag52
ag53
ag54
ag55
ag56
ag57
ag58
ag59
ag115
ag116
ag117
ag118
ag119
ag120
ag121
ag122
ag123
ag124
ag180
ag181
ag182
ag183
ag184
ag185
ag186
ag187
ag188
ag189
ag28
ag29
ag60
ag61
ag62
ag63
ag64
ag65
ag66
ag67
ag125
ag126
ag127
ag128
ag129
ag130
ag131
ag132
ag133
ag134
ag190
ag191
ag192
ag193
ag194
ag195
ag196
ag197
ag198
ag199
ag235
ag236
ag237
ag238
ag239
ag240
ag241
ag242
ag243
ag244
ag270
ag271
ag272
ag273
ag274
ag275
ag276
ag277
ag278
ag279
ag291
ag292
ag293
ag30
ag31
ag68
ag69
ag70
ag71
ag72
ag73
ag74
ag75
ag135
ag136
ag137
ag138
ag139
ag140
ag141
ag142
ag143
ag144
ag200
ag201
ag202
ag203
ag204
ag205
ag206
ag207
ag208
ag209
ag245
ag246
ag247
ag248
ag249
ag250
ag251
ag252
ag253
ag254
ag280
ag281
ag282
ag283
ag284
ag285
ag32
ag33
ag76
ag77
ag78
ag79
ag80
ag81
ag82
ag83
ag145
ag146
ag147
ag148
ag34
ag35
ag84
ag85
ag86
ag87
ag88
ag89
ag90
ag91
ag149
ag150
ag151
ag152
ag153
ag154
ag155
ag156
ag157
ag158
ag210
ag211
ag212
ag213
ag214
ag215
ag216
ag217
ag218
ag219
ag255
ag256
ag257
ag258
ag259
ag260
ag261
ag36
ag37
ag92
ag93
ag94
ag95
ag96
ag97
ag98
ag99
ag159
ag160
ag161
ag162
ag163
ag164
ag165
ag166
ag167
ag168
ag220
ag221
ag222
ag223
ag224
ag225
ag226
ag227
ag228
ag229
ag262
ag263
ag264
asg38
I239
sS'n'
I180
sa(dp354
g12
(g13
(g15
S'\x02\x00\x00\x00\x00\x00\x00\x00'
tRp355
g17
(g18
(I0
tS'b'
tRp356
(I1
(I4
tg20
I00
S'Nr\xa2\xa3\xed:6@\xe9\x96\x91\x18W<7@\xb6\x13\x98\x16\xcb\xf95@\xa8LZ\xa5;\xa76@'
tbtp357
sg22
(lp358
g24
ag25
ag44
ag45
ag46
ag47
ag48
ag49
ag50
ag51
ag105
ag106
ag107
ag108
ag109
ag110
ag111
ag112
ag113
ag114
ag174
ag175
ag176
ag177
ag178
ag179
ag26
ag27
ag52
ag53
ag54
ag55
ag56
ag57
ag58
ag59
ag115
ag116
ag117
ag118
ag119
ag120
ag121
ag122
ag123
ag124
ag180
ag181
ag182
ag183
ag184
ag185
ag186
ag187
ag188
ag189
ag28
ag29
ag60
ag61
ag62
ag63
ag64
ag65
ag66
ag67
ag125
ag126
ag127
ag128
ag129
ag130
ag131
ag132
ag133
ag134
ag190
ag191
ag192
ag193
ag194
ag195
ag196
ag197
ag198
ag199
ag235
ag236
ag237
ag238
ag239
ag240
ag241
ag242
ag243
ag244
ag270
ag271
ag272
ag273
ag274
ag275
ag276
ag277
ag278
ag279
ag291
ag292
ag293
ag30
ag31
ag68
ag69
ag70
ag71
ag72
ag73
ag74
ag75
ag135
ag136
ag137
ag138
ag139
ag140
ag141
ag142
ag143
ag144
ag200
ag201
ag202
ag203
ag204
ag205
ag206
ag207
ag208
ag209
ag245
ag246
ag247
ag248
ag249
ag250
ag251
ag252
ag253
ag254
ag280
ag281
ag282
ag283
ag284
ag285
ag32
ag33
ag76
ag77
ag78
ag79
ag80
ag81
ag82
ag83
ag145
ag146
ag147
ag148
ag34
ag35
ag84
ag85
ag86
ag87
ag88
ag89
ag90
ag91
ag149
ag150
ag151
ag152
ag153
ag154
ag155
ag156
ag157
ag158
ag210
ag211
ag212
ag213
ag214
ag215
ag216
ag217
ag218
ag219
ag255
ag256
ag257
ag258
ag259
ag260
ag261
ag36
ag37
ag92
ag93
ag94
ag95
ag96
ag97
ag98
ag99
ag159
ag160
ag161
ag162
ag163
ag164
ag165
ag166
ag167
ag168
ag220
ag221
ag222
ag223
ag224
ag225
ag226
ag227
ag228
ag229
ag262
ag263
ag264
asg38
I239
sS'n'
I190
sa(dp359
g12
(g13
(g15
S'\x02\x00\x00\x00\x00\x00\x00\x00'
tRp360
g17
(g18
(I0
tS'b'
tRp361
(I1
(I4
tg20
I00
S'Nr\xa2\xa3\xed:6@\xe9\x96\x91\x18W<7@\xb6\x13\x98\x16\xcb\xf95@\xa8LZ\xa5;\xa76@'
tbtp362
sg22
(lp363
g24
ag25
ag44
ag45
ag46
ag47
ag48
ag49
ag50
ag51
ag105
ag106
ag107
ag108
ag109
ag110
ag111
ag112
ag113
ag114
ag174
ag175
ag176
ag177
ag178
ag179
ag26
ag27
ag52
ag53
ag54
ag55
ag56
ag57
ag58
ag59
ag115
ag116
ag117
ag118
ag119
ag120
ag121
ag122
ag123
ag124
ag180
ag181
ag182
ag183
ag184
ag185
ag186
ag187
ag188
ag189
ag28
ag29
ag60
ag61
ag62
ag63
ag64
ag65
ag66
ag67
ag125
ag126
ag127
ag128
ag129
ag130
ag131
ag132
ag133
ag134
ag190
ag191
ag192
ag193
ag194
ag195
ag196
ag197
ag198
ag199
ag235
ag236
ag237
ag238
ag239
ag240
ag241
ag242
ag243
ag244
ag270
ag271
ag272
ag273
ag274
ag275
ag276
ag277
ag278
ag279
ag291
ag292
ag293
ag30
ag31
ag68
ag69
ag70
ag71
ag72
ag73
ag74
ag75
ag135
ag136
ag137
ag138
ag139
ag140
ag141
ag142
ag143
ag144
ag200
ag201
ag202
ag203
ag204
ag205
ag206
ag207
ag208
ag209
ag245
ag246
ag247
ag248
ag249
ag250
ag251
ag252
ag253
ag254
ag280
ag281
ag282
ag283
ag284
ag285
ag32
ag33
ag76
ag77
ag78
ag79
ag80
ag81
ag82
ag83
ag145
ag146
ag147
ag148
ag34
ag35
ag84
ag85
ag86
ag87
ag88
ag89
ag90
ag91
ag149
ag150
ag151
ag152
ag153
ag154
ag155
ag156
ag157
ag158
ag210
ag211
ag212
ag213
ag214
ag215
ag216
ag217
ag218
ag219
ag255
ag256
ag257
ag258
ag259
ag260
ag261
ag36
ag37
ag92
ag93
ag94
ag95
ag96
ag97
ag98
ag99
ag159
ag160
ag161
ag162
ag163
ag164
ag165
ag166
ag167
ag168
ag220
ag221
ag222
ag223
ag224
ag225
ag226
ag227
ag228
ag229
ag262
ag263
ag264
asg38
I239
sS'n'
I200
sa(dp364
g12
(g13
(g15
S'\x02\x00\x00\x00\x00\x00\x00\x00'
tRp365
g17
(g18
(I0
tS'b'
tRp366
(I1
(I4
tg20
I00
S'Nr\xa2\xa3\xed:6@\xe9\x96\x91\x18W<7@\xb6\x13\x98\x16\xcb\xf95@\xa8LZ\xa5;\xa76@'
tbtp367
sg22
(lp368
g24
ag25
ag44
ag45
ag46
ag47
ag48
ag49
ag50
ag51
ag105
ag106
ag107
ag108
ag109
ag110
ag111
ag112
ag113
ag114
ag174
ag175
ag176
ag177
ag178
ag179
ag26
ag27
ag52
ag53
ag54
ag55
ag56
ag57
ag58
ag59
ag115
ag116
ag117
ag118
ag119
ag120
ag121
ag122
ag123
ag124
ag180
ag181
ag182
ag183
ag184
ag185
ag186
ag187
ag188
ag189
ag28
ag29
ag60
ag61
ag62
ag63
ag64
ag65
ag66
ag67
ag125
ag126
ag127
ag128
ag129
ag130
ag131
ag132
ag133
ag134
ag190
ag191
ag192
ag193
ag194
ag195
ag196
ag197
ag198
ag199
ag235
ag236
ag237
ag238
ag239
ag240
ag241
ag242
ag243
ag244
ag270
ag271
ag272
ag273
ag274
ag275
ag276
ag277
ag278
ag279
ag291
ag292
ag293
ag30
ag31
ag68
ag69
ag70
ag71
ag72
ag73
ag74
ag75
ag135
ag136
ag137
ag138
ag139
ag140
ag141
ag142
ag143
ag144
ag200
ag201
ag202
ag203
ag204
ag205
ag206
ag207
ag208
ag209
ag245
ag246
ag247
ag248
ag249
ag250
ag251
ag252
ag253
ag254
ag280
ag281
ag282
ag283
ag284
ag285
ag32
ag33
ag76
ag77
ag78
ag79
ag80
ag81
ag82
ag83
ag145
ag146
ag147
ag148
ag34
ag35
ag84
ag85
ag86
ag87
ag88
ag89
ag90
ag91
ag149
ag150
ag151
ag152
ag153
ag154
ag155
ag156
ag157
ag158
ag210
ag211
ag212
ag213
ag214
ag215
ag216
ag217
ag218
ag219
ag255
ag256
ag257
ag258
ag259
ag260
ag261
ag36
ag37
ag92
ag93
ag94
ag95
ag96
ag97
ag98
ag99
ag159
ag160
ag161
ag162
ag163
ag164
ag165
ag166
ag167
ag168
ag220
ag221
ag222
ag223
ag224
ag225
ag226
ag227
ag228
ag229
ag262
ag263
ag264
asg38
I239
sS'n'
I210
sa(dp369
g12
(g13
(g15
S'\x02\x00\x00\x00\x00\x00\x00\x00'
tRp370
g17
(g18
(I0
tS'b'
tRp371
(I1
(I4
tg20
I00
S'Nr\xa2\xa3\xed:6@\xe9\x96\x91\x18W<7@\xb6\x13\x98\x16\xcb\xf95@\xa8LZ\xa5;\xa76@'
tbtp372
sg22
(lp373
g24
ag25
ag44
ag45
ag46
ag47
ag48
ag49
ag50
ag51
ag105
ag106
ag107
ag108
ag109
ag110
ag111
ag112
ag113
ag114
ag174
ag175
ag176
ag177
ag178
ag179
ag26
ag27
ag52
ag53
ag54
ag55
ag56
ag57
ag58
ag59
ag115
ag116
ag117
ag118
ag119
ag120
ag121
ag122
ag123
ag124
ag180
ag181
ag182
ag183
ag184
ag185
ag186
ag187
ag188
ag189
ag28
ag29
ag60
ag61
ag62
ag63
ag64
ag65
ag66
ag67
ag125
ag126
ag127
ag128
ag129
ag130
ag131
ag132
ag133
ag134
ag190
ag191
ag192
ag193
ag194
ag195
ag196
ag197
ag198
ag199
ag235
ag236
ag237
ag238
ag239
ag240
ag241
ag242
ag243
ag244
ag270
ag271
ag272
ag273
ag274
ag275
ag276
ag277
ag278
ag279
ag291
ag292
ag293
ag30
ag31
ag68
ag69
ag70
ag71
ag72
ag73
ag74
ag75
ag135
ag136
ag137
ag138
ag139
ag140
ag141
ag142
ag143
ag144
ag200
ag201
ag202
ag203
ag204
ag205
ag206
ag207
ag208
ag209
ag245
ag246
ag247
ag248
ag249
ag250
ag251
ag252
ag253
ag254
ag280
ag281
ag282
ag283
ag284
ag285
ag32
ag33
ag76
ag77
ag78
ag79
ag80
ag81
ag82
ag83
ag145
ag146
ag147
ag148
ag34
ag35
ag84
ag85
ag86
ag87
ag88
ag89
ag90
ag91
ag149
ag150
ag151
ag152
ag153
ag154
ag155
ag156
ag157
ag158
ag210
ag211
ag212
ag213
ag214
ag215
ag216
ag217
ag218
ag219
ag255
ag256
ag257
ag258
ag259
ag260
ag261
ag36
ag37
ag92
ag93
ag94
ag95
ag96
ag97
ag98
ag99
ag159
ag160
ag161
ag162
ag163
ag164
ag165
ag166
ag167
ag168
ag220
ag221
ag222
ag223
ag224
ag225
ag226
ag227
ag228
ag229
ag262
ag263
ag264
asg38
I239
sS'n'
I220
sa(dp374
g12
(g13
(g15
S'\x02\x00\x00\x00\x00\x00\x00\x00'
tRp375
g17
(g18
(I0
tS'b'
tRp376
(I1
(I4
tg20
I00
S'Nr\xa2\xa3\xed:6@\xe9\x96\x91\x18W<7@\xb6\x13\x98\x16\xcb\xf95@\xa8LZ\xa5;\xa76@'
tbtp377
sg22
(lp378
g24
ag25
ag44
ag45
ag46
ag47
ag48
ag49
ag50
ag51
ag105
ag106
ag107
ag108
ag109
ag110
ag111
ag112
ag113
ag114
ag174
ag175
ag176
ag177
ag178
ag179
ag26
ag27
ag52
ag53
ag54
ag55
ag56
ag57
ag58
ag59
ag115
ag116
ag117
ag118
ag119
ag120
ag121
ag122
ag123
ag124
ag180
ag181
ag182
ag183
ag184
ag185
ag186
ag187
ag188
ag189
ag28
ag29
ag60
ag61
ag62
ag63
ag64
ag65
ag66
ag67
ag125
ag126
ag127
ag128
ag129
ag130
ag131
ag132
ag133
ag134
ag190
ag191
ag192
ag193
ag194
ag195
ag196
ag197
ag198
ag199
ag235
ag236
ag237
ag238
ag239
ag240
ag241
ag242
ag243
ag244
ag270
ag271
ag272
ag273
ag274
ag275
ag276
ag277
ag278
ag279
ag291
ag292
ag293
ag30
ag31
ag68
ag69
ag70
ag71
ag72
ag73
ag74
ag75
ag135
ag136
ag137
ag138
ag139
ag140
ag141
ag142
ag143
ag144
ag200
ag201
ag202
ag203
ag204
ag205
ag206
ag207
ag208
ag209
ag245
ag246
ag247
ag248
ag249
ag250
ag251
ag252
ag253
ag254
ag280
ag281
ag282
ag283
ag284
ag285
ag32
ag33
ag76
ag77
ag78
ag79
ag80
ag81
ag82
ag83
ag145
ag146
ag147
ag148
ag34
ag35
ag84
ag85
ag86
ag87
ag88
ag89
ag90
ag91
ag149
ag150
ag151
ag152
ag153
ag154
ag155
ag156
ag157
ag158
ag210
ag211
ag212
ag213
ag214
ag215
ag216
ag217
ag218
ag219
ag255
ag256
ag257
ag258
ag259
ag260
ag261
ag36
ag37
ag92
ag93
ag94
ag95
ag96
ag97
ag98
ag99
ag159
ag160
ag161
ag162
ag163
ag164
ag165
ag166
ag167
ag168
ag220
ag221
ag222
ag223
ag224
ag225
ag226
ag227
ag228
ag229
ag262
ag263
ag264
asg38
I239
sS'n'
I230
sa(dp379
g12
(g13
(g15
S'\x02\x00\x00\x00\x00\x00\x00\x00'
tRp380
g17
(g18
(I0
tS'b'
tRp381
(I1
(I4
tg20
I00
S'Nr\xa2\xa3\xed:6@\xe9\x96\x91\x18W<7@\xb6\x13\x98\x16\xcb\xf95@\xa8LZ\xa5;\xa76@'
tbtp382
sg22
(lp383
g24
ag25
ag44
ag45
ag46
ag47
ag48
ag49
ag50
ag51
ag105
ag106
ag107
ag108
ag109
ag110
ag111
ag112
ag113
ag114
ag174
ag175
ag176
ag177
ag178
ag179
ag26
ag27
ag52
ag53
ag54
ag55
ag56
ag57
ag58
ag59
ag115
ag116
ag117
ag118
ag119
ag120
ag121
ag122
ag123
ag124
ag180
ag181
ag182
ag183
ag184
ag185
ag186
ag187
ag188
ag189
ag28
ag29
ag60
ag61
ag62
ag63
ag64
ag65
ag66
ag67
ag125
ag126
ag127
ag128
ag129
ag130
ag131
ag132
ag133
ag134
ag190
ag191
ag192
ag193
ag194
ag195
ag196
ag197
ag198
ag199
ag235
ag236
ag237
ag238
ag239
ag240
ag241
ag242
ag243
ag244
ag270
ag271
ag272
ag273
ag274
ag275
ag276
ag277
ag278
ag279
ag291
ag292
ag293
ag30
ag31
ag68
ag69
ag70
ag71
ag72
ag73
ag74
ag75
ag135
ag136
ag137
ag138
ag139
ag140
ag141
ag142
ag143
ag144
ag200
ag201
ag202
ag203
ag204
ag205
ag206
ag207
ag208
ag209
ag245
ag246
ag247
ag248
ag249
ag250
ag251
ag252
ag253
ag254
ag280
ag281
ag282
ag283
ag284
ag285
ag32
ag33
ag76
ag77
ag78
ag79
ag80
ag81
ag82
ag83
ag145
ag146
ag147
ag148
ag34
ag35
ag84
ag85
ag86
ag87
ag88
ag89
ag90
ag91
ag149
ag150
ag151
ag152
ag153
ag154
ag155
ag156
ag157
ag158
ag210
ag211
ag212
ag213
ag214
ag215
ag216
ag217
ag218
ag219
ag255
ag256
ag257
ag258
ag259
ag260
ag261
ag36
ag37
ag92
ag93
ag94
ag95
ag96
ag97
ag98
ag99
ag159
ag160
ag161
ag162
ag163
ag164
ag165
ag166
ag167
ag168
ag220
ag221
ag222
ag223
ag224
ag225
ag226
ag227
ag228
ag229
ag262
ag263
ag264
asg38
I239
sS'n'
I240
sa(dp384
g12
(g13
(g15
S'\x02\x00\x00\x00\x00\x00\x00\x00'
tRp385
g17
(g18
(I0
tS'b'
tRp386
(I1
(I4
tg20
I00
S'Nr\xa2\xa3\xed:6@\xe9\x96\x91\x18W<7@\xb6\x13\x98\x16\xcb\xf95@\xa8LZ\xa5;\xa76@'
tbtp387
sg22
(lp388
g24
ag25
ag44
ag45
ag46
ag47
ag48
ag49
ag50
ag51
ag105
ag106
ag107
ag108
ag109
ag110
ag111
ag112
ag113
ag114
ag174
ag175
ag176
ag177
ag178
ag179
ag26
ag27
ag52
ag53
ag54
ag55
ag56
ag57
ag58
ag59
ag115
ag116
ag117
ag118
ag119
ag120
ag121
ag122
ag123
ag124
ag180
ag181
ag182
ag183
ag184
ag185
ag186
ag187
ag188
ag189
ag28
ag29
ag60
ag61
ag62
ag63
ag64
ag65
ag66
ag67
ag125
ag126
ag127
ag128
ag129
ag130
ag131
ag132
ag133
ag134
ag190
ag191
ag192
ag193
ag194
ag195
ag196
ag197
ag198
ag199
ag235
ag236
ag237
ag238
ag239
ag240
ag241
ag242
ag243
ag244
ag270
ag271
ag272
ag273
ag274
ag275
ag276
ag277
ag278
ag279
ag291
ag292
ag293
ag30
ag31
ag68
ag69
ag70
ag71
ag72
ag73
ag74
ag75
ag135
ag136
ag137
ag138
ag139
ag140
ag141
ag142
ag143
ag144
ag200
ag201
ag202
ag203
ag204
ag205
ag206
ag207
ag208
ag209
ag245
ag246
ag247
ag248
ag249
ag250
ag251
ag252
ag253
ag254
ag280
ag281
ag282
ag283
ag284
ag285
ag32
ag33
ag76
ag77
ag78
ag79
ag80
ag81
ag82
ag83
ag145
ag146
ag147
ag148
ag34
ag35
ag84
ag85
ag86
ag87
ag88
ag89
ag90
ag91
ag149
ag150
ag151
ag152
ag153
ag154
ag155
ag156
ag157
ag158
ag210
ag211
ag212
ag213
ag214
ag215
ag216
ag217
ag218
ag219
ag255
ag256
ag257
ag258
ag259
ag260
ag261
ag36
ag37
ag92
ag93
ag94
ag95
ag96
ag97
ag98
ag99
ag159
ag160
ag161
ag162
ag163
ag164
ag165
ag166
ag167
ag168
ag220
ag221
ag222
ag223
ag224
ag225
ag226
ag227
ag228
ag229
ag262
ag263
ag264
asg38
I239
sS'n'
I250
sa(dp389
g12
(g13
(g15
S'\x02\x00\x00\x00\x00\x00\x00\x00'
tRp390
g17
(g18
(I0
tS'b'
tRp391
(I1
(I4
tg20
I00
S'Nr\xa2\xa3\xed:6@\xe9\x96\x91\x18W<7@\xb6\x13\x98\x16\xcb\xf95@\xa8LZ\xa5;\xa76@'
tbtp392
sg22
(lp393
g24
ag25
ag44
ag45
ag46
ag47
ag48
ag49
ag50
ag51
ag105
ag106
ag107
ag108
ag109
ag110
ag111
ag112
ag113
ag114
ag174
ag175
ag176
ag177
ag178
ag179
ag26
ag27
ag52
ag53
ag54
ag55
ag56
ag57
ag58
ag59
ag115
ag116
ag117
ag118
ag119
ag120
ag121
ag122
ag123
ag124
ag180
ag181
ag182
ag183
ag184
ag185
ag186
ag187
ag188
ag189
ag28
ag29
ag60
ag61
ag62
ag63
ag64
ag65
ag66
ag67
ag125
ag126
ag127
ag128
ag129
ag130
ag131
ag132
ag133
ag134
ag190
ag191
ag192
ag193
ag194
ag195
ag196
ag197
ag198
ag199
ag235
ag236
ag237
ag238
ag239
ag240
ag241
ag242
ag243
ag244
ag270
ag271
ag272
ag273
ag274
ag275
ag276
ag277
ag278
ag279
ag291
ag292
ag293
ag30
ag31
ag68
ag69
ag70
ag71
ag72
ag73
ag74
ag75
ag135
ag136
ag137
ag138
ag139
ag140
ag141
ag142
ag143
ag144
ag200
ag201
ag202
ag203
ag204
ag205
ag206
ag207
ag208
ag209
ag245
ag246
ag247
ag248
ag249
ag250
ag251
ag252
ag253
ag254
ag280
ag281
ag282
ag283
ag284
ag285
ag32
ag33
ag76
ag77
ag78
ag79
ag80
ag81
ag82
ag83
ag145
ag146
ag147
ag148
ag34
ag35
ag84
ag85
ag86
ag87
ag88
ag89
ag90
ag91
ag149
ag150
ag151
ag152
ag153
ag154
ag155
ag156
ag157
ag158
ag210
ag211
ag212
ag213
ag214
ag215
ag216
ag217
ag218
ag219
ag255
ag256
ag257
ag258
ag259
ag260
ag261
ag36
ag37
ag92
ag93
ag94
ag95
ag96
ag97
ag98
ag99
ag159
ag160
ag161
ag162
ag163
ag164
ag165
ag166
ag167
ag168
ag220
ag221
ag222
ag223
ag224
ag225
ag226
ag227
ag228
ag229
ag262
ag263
ag264
asg38
I239
sS'n'
I260
sa(dp394
g12
(g13
(g15
S'\x02\x00\x00\x00\x00\x00\x00\x00'
tRp395
g17
(g18
(I0
tS'b'
tRp396
(I1
(I4
tg20
I00
S'Nr\xa2\xa3\xed:6@\xe9\x96\x91\x18W<7@\xb6\x13\x98\x16\xcb\xf95@\xa8LZ\xa5;\xa76@'
tbtp397
sg22
(lp398
g24
ag25
ag44
ag45
ag46
ag47
ag48
ag49
ag50
ag51
ag105
ag106
ag107
ag108
ag109
ag110
ag111
ag112
ag113
ag114
ag174
ag175
ag176
ag177
ag178
ag179
ag26
ag27
ag52
ag53
ag54
ag55
ag56
ag57
ag58
ag59
ag115
ag116
ag117
ag118
ag119
ag120
ag121
ag122
ag123
ag124
ag180
ag181
ag182
ag183
ag184
ag185
ag186
ag187
ag188
ag189
ag28
ag29
ag60
ag61
ag62
ag63
ag64
ag65
ag66
ag67
ag125
ag126
ag127
ag128
ag129
ag130
ag131
ag132
ag133
ag134
ag190
ag191
ag192
ag193
ag194
ag195
ag196
ag197
ag198
ag199
ag235
ag236
ag237
ag238
ag239
ag240
ag241
ag242
ag243
ag244
ag270
ag271
ag272
ag273
ag274
ag275
ag276
ag277
ag278
ag279
ag291
ag292
ag293
ag30
ag31
ag68
ag69
ag70
ag71
ag72
ag73
ag74
ag75
ag135
ag136
ag137
ag138
ag139
ag140
ag141
ag142
ag143
ag144
ag200
ag201
ag202
ag203
ag204
ag205
ag206
ag207
ag208
ag209
ag245
ag246
ag247
ag248
ag249
ag250
ag251
ag252
ag253
ag254
ag280
ag281
ag282
ag283
ag284
ag285
ag32
ag33
ag76
ag77
ag78
ag79
ag80
ag81
ag82
ag83
ag145
ag146
ag147
ag148
ag34
ag35
ag84
ag85
ag86
ag87
ag88
ag89
ag90
ag91
ag149
ag150
ag151
ag152
ag153
ag154
ag155
ag156
ag157
ag158
ag210
ag211
ag212
ag213
ag214
ag215
ag216
ag217
ag218
ag219
ag255
ag256
ag257
ag258
ag259
ag260
ag261
ag36
ag37
ag92
ag93
ag94
ag95
ag96
ag97
ag98
ag99
ag159
ag160
ag161
ag162
ag163
ag164
ag165
ag166
ag167
ag168
ag220
ag221
ag222
ag223
ag224
ag225
ag226
ag227
ag228
ag229
ag262
ag263
ag264
asg38
I239
sS'n'
I270
sa(dp399
g12
(g13
(g15
S'\x02\x00\x00\x00\x00\x00\x00\x00'
tRp400
g17
(g18
(I0
tS'b'
tRp401
(I1
(I4
tg20
I00
S'Nr\xa2\xa3\xed:6@\xe9\x96\x91\x18W<7@\xb6\x13\x98\x16\xcb\xf95@\xa8LZ\xa5;\xa76@'
tbtp402
sg22
(lp403
g24
ag25
ag44
ag45
ag46
ag47
ag48
ag49
ag50
ag51
ag105
ag106
ag107
ag108
ag109
ag110
ag111
ag112
ag113
ag114
ag174
ag175
ag176
ag177
ag178
ag179
ag26
ag27
ag52
ag53
ag54
ag55
ag56
ag57
ag58
ag59
ag115
ag116
ag117
ag118
ag119
ag120
ag121
ag122
ag123
ag124
ag180
ag181
ag182
ag183
ag184
ag185
ag186
ag187
ag188
ag189
ag28
ag29
ag60
ag61
ag62
ag63
ag64
ag65
ag66
ag67
ag125
ag126
ag127
ag128
ag129
ag130
ag131
ag132
ag133
ag134
ag190
ag191
ag192
ag193
ag194
ag195
ag196
ag197
ag198
ag199
ag235
ag236
ag237
ag238
ag239
ag240
ag241
ag242
ag243
ag244
ag270
ag271
ag272
ag273
ag274
ag275
ag276
ag277
ag278
ag279
ag291
ag292
ag293
ag30
ag31
ag68
ag69
ag70
ag71
ag72
ag73
ag74
ag75
ag135
ag136
ag137
ag138
ag139
ag140
ag141
ag142
ag143
ag144
ag200
ag201
ag202
ag203
ag204
ag205
ag206
ag207
ag208
ag209
ag245
ag246
ag247
ag248
ag249
ag250
ag251
ag252
ag253
ag254
ag280
ag281
ag282
ag283
ag284
ag285
ag32
ag33
ag76
ag77
ag78
ag79
ag80
ag81
ag82
ag83
ag145
ag146
ag147
ag148
ag34
ag35
ag84
ag85
ag86
ag87
ag88
ag89
ag90
ag91
ag149
ag150
ag151
ag152
ag153
ag154
ag155
ag156
ag157
ag158
ag210
ag211
ag212
ag213
ag214
ag215
ag216
ag217
ag218
ag219
ag255
ag256
ag257
ag258
ag259
ag260
ag261
ag36
ag37
ag92
ag93
ag94
ag95
ag96
ag97
ag98
ag99
ag159
ag160
ag161
ag162
ag163
ag164
ag165
ag166
ag167
ag168
ag220
ag221
ag222
ag223
ag224
ag225
ag226
ag227
ag228
ag229
ag262
ag263
ag264
asg38
I239
sS'n'
I280
sa(dp404
g12
(g13
(g15
S'\x02\x00\x00\x00\x00\x00\x00\x00'
tRp405
g17
(g18
(I0
tS'b'
tRp406
(I1
(I4
tg20
I00
S'Nr\xa2\xa3\xed:6@\xe9\x96\x91\x18W<7@\xb6\x13\x98\x16\xcb\xf95@\xa8LZ\xa5;\xa76@'
tbtp407
sg22
(lp408
g24
ag25
ag44
ag45
ag46
ag47
ag48
ag49
ag50
ag51
ag105
ag106
ag107
ag108
ag109
ag110
ag111
ag112
ag113
ag114
ag174
ag175
ag176
ag177
ag178
ag179
ag26
ag27
ag52
ag53
ag54
ag55
ag56
ag57
ag58
ag59
ag115
ag116
ag117
ag118
ag119
ag120
ag121
ag122
ag123
ag124
ag180
ag181
ag182
ag183
ag184
ag185
ag186
ag187
ag188
ag189
ag28
ag29
ag60
ag61
ag62
ag63
ag64
ag65
ag66
ag67
ag125
ag126
ag127
ag128
ag129
ag130
ag131
ag132
ag133
ag134
ag190
ag191
ag192
ag193
ag194
ag195
ag196
ag197
ag198
ag199
ag235
ag236
ag237
ag238
ag239
ag240
ag241
ag242
ag243
ag244
ag270
ag271
ag272
ag273
ag274
ag275
ag276
ag277
ag278
ag279
ag291
ag292
ag293
ag30
ag31
ag68
ag69
ag70
ag71
ag72
ag73
ag74
ag75
ag135
ag136
ag137
ag138
ag139
ag140
ag141
ag142
ag143
ag144
ag200
ag201
ag202
ag203
ag204
ag205
ag206
ag207
ag208
ag209
ag245
ag246
ag247
ag248
ag249
ag250
ag251
ag252
ag253
ag254
ag280
ag281
ag282
ag283
ag284
ag285
ag32
ag33
ag76
ag77
ag78
ag79
ag80
ag81
ag82
ag83
ag145
ag146
ag147
ag148
ag34
ag35
ag84
ag85
ag86
ag87
ag88
ag89
ag90
ag91
ag149
ag150
ag151
ag152
ag153
ag154
ag155
ag156
ag157
ag158
ag210
ag211
ag212
ag213
ag214
ag215
ag216
ag217
ag218
ag219
ag255
ag256
ag257
ag258
ag259
ag260
ag261
ag36
ag37
ag92
ag93
ag94
ag95
ag96
ag97
ag98
ag99
ag159
ag160
ag161
ag162
ag163
ag164
ag165
ag166
ag167
ag168
ag220
ag221
ag222
ag223
ag224
ag225
ag226
ag227
ag228
ag229
ag262
ag263
ag264
asg38
I239
sS'n'
I290
sa(dp409
g12
(g13
(g15
S'\x02\x00\x00\x00\x00\x00\x00\x00'
tRp410
g17
(g18
(I0
tS'b'
tRp411
(I1
(I4
tg20
I00
S'Nr\xa2\xa3\xed:6@\xe9\x96\x91\x18W<7@\xb6\x13\x98\x16\xcb\xf95@\xa8LZ\xa5;\xa76@'
tbtp412
sg22
(lp413
g24
ag25
ag44
ag45
ag46
ag47
ag48
ag49
ag50
ag51
ag105
ag106
ag107
ag108
ag109
ag110
ag111
ag112
ag113
ag114
ag174
ag175
ag176
ag177
ag178
ag179
ag26
ag27
ag52
ag53
ag54
ag55
ag56
ag57
ag58
ag59
ag115
ag116
ag117
ag118
ag119
ag120
ag121
ag122
ag123
ag124
ag180
ag181
ag182
ag183
ag184
ag185
ag186
ag187
ag188
ag189
ag28
ag29
ag60
ag61
ag62
ag63
ag64
ag65
ag66
ag67
ag125
ag126
ag127
ag128
ag129
ag130
ag131
ag132
ag133
ag134
ag190
ag191
ag192
ag193
ag194
ag195
ag196
ag197
ag198
ag199
ag235
ag236
ag237
ag238
ag239
ag240
ag241
ag242
ag243
ag244
ag270
ag271
ag272
ag273
ag274
ag275
ag276
ag277
ag278
ag279
ag291
ag292
ag293
ag30
ag31
ag68
ag69
ag70
ag71
ag72
ag73
ag74
ag75
ag135
ag136
ag137
ag138
ag139
ag140
ag141
ag142
ag143
ag144
ag200
ag201
ag202
ag203
ag204
ag205
ag206
ag207
ag208
ag209
ag245
ag246
ag247
ag248
ag249
ag250
ag251
ag252
ag253
ag254
ag280
ag281
ag282
ag283
ag284
ag285
ag32
ag33
ag76
ag77
ag78
ag79
ag80
ag81
ag82
ag83
ag145
ag146
ag147
ag148
ag34
ag35
ag84
ag85
ag86
ag87
ag88
ag89
ag90
ag91
ag149
ag150
ag151
ag152
ag153
ag154
ag155
ag156
ag157
ag158
ag210
ag211
ag212
ag213
ag214
ag215
ag216
ag217
ag218
ag219
ag255
ag256
ag257
ag258
ag259
ag260
ag261
ag36
ag37
ag92
ag93
ag94
ag95
ag96
ag97
ag98
ag99
ag159
ag160
ag161
ag162
ag163
ag164
ag165
ag166
ag167
ag168
ag220
ag221
ag222
ag223
ag224
ag225
ag226
ag227
ag228
ag229
ag262
ag263
ag264
asg38
I239
sS'n'
I300
sa(dp414
g12
(g13
(g15
S'\x02\x00\x00\x00\x00\x00\x00\x00'
tRp415
g17
(g18
(I0
tS'b'
tRp416
(I1
(I4
tg20
I00
S'Nr\xa2\xa3\xed:6@\xe9\x96\x91\x18W<7@\xb6\x13\x98\x16\xcb\xf95@\xa8LZ\xa5;\xa76@'
tbtp417
sg22
(lp418
g24
ag25
ag44
ag45
ag46
ag47
ag48
ag49
ag50
ag51
ag105
ag106
ag107
ag108
ag109
ag110
ag111
ag112
ag113
ag114
ag174
ag175
ag176
ag177
ag178
ag179
ag26
ag27
ag52
ag53
ag54
ag55
ag56
ag57
ag58
ag59
ag115
ag116
ag117
ag118
ag119
ag120
ag121
ag122
ag123
ag124
ag180
ag181
ag182
ag183
ag184
ag185
ag186
ag187
ag188
ag189
ag28
ag29
ag60
ag61
ag62
ag63
ag64
ag65
ag66
ag67
ag125
ag126
ag127
ag128
ag129
ag130
ag131
ag132
ag133
ag134
ag190
ag191
ag192
ag193
ag194
ag195
ag196
ag197
ag198
ag199
ag235
ag236
ag237
ag238
ag239
ag240
ag241
ag242
ag243
ag244
ag270
ag271
ag272
ag273
ag274
ag275
ag276
ag277
ag278
ag279
ag291
ag292
ag293
ag30
ag31
ag68
ag69
ag70
ag71
ag72
ag73
ag74
ag75
ag135
ag136
ag137
ag138
ag139
ag140
ag141
ag142
ag143
ag144
ag200
ag201
ag202
ag203
ag204
ag205
ag206
ag207
ag208
ag209
ag245
ag246
ag247
ag248
ag249
ag250
ag251
ag252
ag253
ag254
ag280
ag281
ag282
ag283
ag284
ag285
ag32
ag33
ag76
ag77
ag78
ag79
ag80
ag81
ag82
ag83
ag145
ag146
ag147
ag148
ag34
ag35
ag84
ag85
ag86
ag87
ag88
ag89
ag90
ag91
ag149
ag150
ag151
ag152
ag153
ag154
ag155
ag156
ag157
ag158
ag210
ag211
ag212
ag213
ag214
ag215
ag216
ag217
ag218
ag219
ag255
ag256
ag257
ag258
ag259
ag260
ag261
ag36
ag37
ag92
ag93
ag94
ag95
ag96
ag97
ag98
ag99
ag159
ag160
ag161
ag162
ag163
ag164
ag165
ag166
ag167
ag168
ag220
ag221
ag222
ag223
ag224
ag225
ag226
ag227
ag228
ag229
ag262
ag263
ag264
asg38
I239
sS'n'
I310
sa(dp419
g12
(g13
(g15
S'\x02\x00\x00\x00\x00\x00\x00\x00'
tRp420
g17
(g18
(I0
tS'b'
tRp421
(I1
(I4
tg20
I00
S'Nr\xa2\xa3\xed:6@\xe9\x96\x91\x18W<7@\xb6\x13\x98\x16\xcb\xf95@\xa8LZ\xa5;\xa76@'
tbtp422
sg22
(lp423
g24
ag25
ag44
ag45
ag46
ag47
ag48
ag49
ag50
ag51
ag105
ag106
ag107
ag108
ag109
ag110
ag111
ag112
ag113
ag114
ag174
ag175
ag176
ag177
ag178
ag179
ag26
ag27
ag52
ag53
ag54
ag55
ag56
ag57
ag58
ag59
ag115
ag116
ag117
ag118
ag119
ag120
ag121
ag122
ag123
ag124
ag180
ag181
ag182
ag183
ag184
ag185
ag186
ag187
ag188
ag189
ag28
ag29
ag60
ag61
ag62
ag63
ag64
ag65
ag66
ag67
ag125
ag126
ag127
ag128
ag129
ag130
ag131
ag132
ag133
ag134
ag190
ag191
ag192
ag193
ag194
ag195
ag196
ag197
ag198
ag199
ag235
ag236
ag237
ag238
ag239
ag240
ag241
ag242
ag243
ag244
ag270
ag271
ag272
ag273
ag274
ag275
ag276
ag277
ag278
ag279
ag291
ag292
ag293
ag30
ag31
ag68
ag69
ag70
ag71
ag72
ag73
ag74
ag75
ag135
ag136
ag137
ag138
ag139
ag140
ag141
ag142
ag143
ag144
ag200
ag201
ag202
ag203
ag204
ag205
ag206
ag207
ag208
ag209
ag245
ag246
ag247
ag248
ag249
ag250
ag251
ag252
ag253
ag254
ag280
ag281
ag282
ag283
ag284
ag285
ag32
ag33
ag76
ag77
ag78
ag79
ag80
ag81
ag82
ag83
ag145
ag146
ag147
ag148
ag34
ag35
ag84
ag85
ag86
ag87
ag88
ag89
ag90
ag91
ag149
ag150
ag151
ag152
ag153
ag154
ag155
ag156
ag157
ag158
ag210
ag211
ag212
ag213
ag214
ag215
ag216
ag217
ag218
ag219
ag255
ag256
ag257
ag258
ag259
ag260
ag261
ag36
ag37
ag92
ag93
ag94
ag95
ag96
ag97
ag98
ag99
ag159
ag160
ag161
ag162
ag163
ag164
ag165
ag166
ag167
ag168
ag220
ag221
ag222
ag223
ag224
ag225
ag226
ag227
ag228
ag229
ag262
ag263
ag264
asg38
I239
sS'n'
I320
sa(dp424
g12
(g13
(g15
S'\x02\x00\x00\x00\x00\x00\x00\x00'
tRp425
g17
(g18
(I0
tS'b'
tRp426
(I1
(I4
tg20
I00
S'Nr\xa2\xa3\xed:6@\xe9\x96\x91\x18W<7@\xb6\x13\x98\x16\xcb\xf95@\xa8LZ\xa5;\xa76@'
tbtp427
sg22
(lp428
g24
ag25
ag44
ag45
ag46
ag47
ag48
ag49
ag50
ag51
ag105
ag106
ag107
ag108
ag109
ag110
ag111
ag112
ag113
ag114
ag174
ag175
ag176
ag177
ag178
ag179
ag26
ag27
ag52
ag53
ag54
ag55
ag56
ag57
ag58
ag59
ag115
ag116
ag117
ag118
ag119
ag120
ag121
ag122
ag123
ag124
ag180
ag181
ag182
ag183
ag184
ag185
ag186
ag187
ag188
ag189
ag28
ag29
ag60
ag61
ag62
ag63
ag64
ag65
ag66
ag67
ag125
ag126
ag127
ag128
ag129
ag130
ag131
ag132
ag133
ag134
ag190
ag191
ag192
ag193
ag194
ag195
ag196
ag197
ag198
ag199
ag235
ag236
ag237
ag238
ag239
ag240
ag241
ag242
ag243
ag244
ag270
ag271
ag272
ag273
ag274
ag275
ag276
ag277
ag278
ag279
ag291
ag292
ag293
ag30
ag31
ag68
ag69
ag70
ag71
ag72
ag73
ag74
ag75
ag135
ag136
ag137
ag138
ag139
ag140
ag141
ag142
ag143
ag144
ag200
ag201
ag202
ag203
ag204
ag205
ag206
ag207
ag208
ag209
ag245
ag246
ag247
ag248
ag249
ag250
ag251
ag252
ag253
ag254
ag280
ag281
ag282
ag283
ag284
ag285
ag32
ag33
ag76
ag77
ag78
ag79
ag80
ag81
ag82
ag83
ag145
ag146
ag147
ag148
ag34
ag35
ag84
ag85
ag86
ag87
ag88
ag89
ag90
ag91
ag149
ag150
ag151
ag152
ag153
ag154
ag155
ag156
ag157
ag158
ag210
ag211
ag212
ag213
ag214
ag215
ag216
ag217
ag218
ag219
ag255
ag256
ag257
ag258
ag259
ag260
ag261
ag36
ag37
ag92
ag93
ag94
ag95
ag96
ag97
ag98
ag99
ag159
ag160
ag161
ag162
ag163
ag164
ag165
ag166
ag167
ag168
ag220
ag221
ag222
ag223
ag224
ag225
ag226
ag227
ag228
ag229
ag262
ag263
ag264
asg38
I239
sS'n'
I330
sa(dp429
g12
(g13
(g15
S'\x02\x00\x00\x00\x00\x00\x00\x00'
tRp430
g17
(g18
(I0
tS'b'
tRp431
(I1
(I4
tg20
I00
S'Nr\xa2\xa3\xed:6@\xe9\x96\x91\x18W<7@\xb6\x13\x98\x16\xcb\xf95@\xa8LZ\xa5;\xa76@'
tbtp432
sg22
(lp433
g24
ag25
ag44
ag45
ag46
ag47
ag48
ag49
ag50
ag51
ag105
ag106
ag107
ag108
ag109
ag110
ag111
ag112
ag113
ag114
ag174
ag175
ag176
ag177
ag178
ag179
ag26
ag27
ag52
ag53
ag54
ag55
ag56
ag57
ag58
ag59
ag115
ag116
ag117
ag118
ag119
ag120
ag121
ag122
ag123
ag124
ag180
ag181
ag182
ag183
ag184
ag185
ag186
ag187
ag188
ag189
ag28
ag29
ag60
ag61
ag62
ag63
ag64
ag65
ag66
ag67
ag125
ag126
ag127
ag128
ag129
ag130
ag131
ag132
ag133
ag134
ag190
ag191
ag192
ag193
ag194
ag195
ag196
ag197
ag198
ag199
ag235
ag236
ag237
ag238
ag239
ag240
ag241
ag242
ag243
ag244
ag270
ag271
ag272
ag273
ag274
ag275
ag276
ag277
ag278
ag279
ag291
ag292
ag293
ag30
ag31
ag68
ag69
ag70
ag71
ag72
ag73
ag74
ag75
ag135
ag136
ag137
ag138
ag139
ag140
ag141
ag142
ag143
ag144
ag200
ag201
ag202
ag203
ag204
ag205
ag206
ag207
ag208
ag209
ag245
ag246
ag247
ag248
ag249
ag250
ag251
ag252
ag253
ag254
ag280
ag281
ag282
ag283
ag284
ag285
ag32
ag33
ag76
ag77
ag78
ag79
ag80
ag81
ag82
ag83
ag145
ag146
ag147
ag148
ag34
ag35
ag84
ag85
ag86
ag87
ag88
ag89
ag90
ag91
ag149
ag150
ag151
ag152
ag153
ag154
ag155
ag156
ag157
ag158
ag210
ag211
ag212
ag213
ag214
ag215
ag216
ag217
ag218
ag219
ag255
ag256
ag257
ag258
ag259
ag260
ag261
ag36
ag37
ag92
ag93
ag94
ag95
ag96
ag97
ag98
ag99
ag159
ag160
ag161
ag162
ag163
ag164
ag165
ag166
ag167
ag168
ag220
ag221
ag222
ag223
ag224
ag225
ag226
ag227
ag228
ag229
ag262
ag263
ag264
asg38
I239
sS'n'
I340
sa(dp434
g12
(g13
(g15
S'\x02\x00\x00\x00\x00\x00\x00\x00'
tRp435
g17
(g18
(I0
tS'b'
tRp436
(I1
(I4
tg20
I00
S'Nr\xa2\xa3\xed:6@\xe9\x96\x91\x18W<7@\xb6\x13\x98\x16\xcb\xf95@\xa8LZ\xa5;\xa76@'
tbtp437
sg22
(lp438
g24
ag25
ag44
ag45
ag46
ag47
ag48
ag49
ag50
ag51
ag105
ag106
ag107
ag108
ag109
ag110
ag111
ag112
ag113
ag114
ag174
ag175
ag176
ag177
ag178
ag179
ag26
ag27
ag52
ag53
ag54
ag55
ag56
ag57
ag58
ag59
ag115
ag116
ag117
ag118
ag119
ag120
ag121
ag122
ag123
ag124
ag180
ag181
ag182
ag183
ag184
ag185
ag186
ag187
ag188
ag189
ag28
ag29
ag60
ag61
ag62
ag63
ag64
ag65
ag66
ag67
ag125
ag126
ag127
ag128
ag129
ag130
ag131
ag132
ag133
ag134
ag190
ag191
ag192
ag193
ag194
ag195
ag196
ag197
ag198
ag199
ag235
ag236
ag237
ag238
ag239
ag240
ag241
ag242
ag243
ag244
ag270
ag271
ag272
ag273
ag274
ag275
ag276
ag277
ag278
ag279
ag291
ag292
ag293
ag30
ag31
ag68
ag69
ag70
ag71
ag72
ag73
ag74
ag75
ag135
ag136
ag137
ag138
ag139
ag140
ag141
ag142
ag143
ag144
ag200
ag201
ag202
ag203
ag204
ag205
ag206
ag207
ag208
ag209
ag245
ag246
ag247
ag248
ag249
ag250
ag251
ag252
ag253
ag254
ag280
ag281
ag282
ag283
ag284
ag285
ag32
ag33
ag76
ag77
ag78
ag79
ag80
ag81
ag82
ag83
ag145
ag146
ag147
ag148
ag34
ag35
ag84
ag85
ag86
ag87
ag88
ag89
ag90
ag91
ag149
ag150
ag151
ag152
ag153
ag154
ag155
ag156
ag157
ag158
ag210
ag211
ag212
ag213
ag214
ag215
ag216
ag217
ag218
ag219
ag255
ag256
ag257
ag258
ag259
ag260
ag261
ag36
ag37
ag92
ag93
ag94
ag95
ag96
ag97
ag98
ag99
ag159
ag160
ag161
ag162
ag163
ag164
ag165
ag166
ag167
ag168
ag220
ag221
ag222
ag223
ag224
ag225
ag226
ag227
ag228
ag229
ag262
ag263
ag264
asg38
I239
sS'n'
I350
sa(dp439
g12
(g13
(g15
S'\x02\x00\x00\x00\x00\x00\x00\x00'
tRp440
g17
(g18
(I0
tS'b'
tRp441
(I1
(I4
tg20
I00
S'Nr\xa2\xa3\xed:6@\xe9\x96\x91\x18W<7@\xb6\x13\x98\x16\xcb\xf95@\xa8LZ\xa5;\xa76@'
tbtp442
sg22
(lp443
g24
ag25
ag44
ag45
ag46
ag47
ag48
ag49
ag50
ag51
ag105
ag106
ag107
ag108
ag109
ag110
ag111
ag112
ag113
ag114
ag174
ag175
ag176
ag177
ag178
ag179
ag26
ag27
ag52
ag53
ag54
ag55
ag56
ag57
ag58
ag59
ag115
ag116
ag117
ag118
ag119
ag120
ag121
ag122
ag123
ag124
ag180
ag181
ag182
ag183
ag184
ag185
ag186
ag187
ag188
ag189
ag28
ag29
ag60
ag61
ag62
ag63
ag64
ag65
ag66
ag67
ag125
ag126
ag127
ag128
ag129
ag130
ag131
ag132
ag133
ag134
ag190
ag191
ag192
ag193
ag194
ag195
ag196
ag197
ag198
ag199
ag235
ag236
ag237
ag238
ag239
ag240
ag241
ag242
ag243
ag244
ag270
ag271
ag272
ag273
ag274
ag275
ag276
ag277
ag278
ag279
ag291
ag292
ag293
ag30
ag31
ag68
ag69
ag70
ag71
ag72
ag73
ag74
ag75
ag135
ag136
ag137
ag138
ag139
ag140
ag141
ag142
ag143
ag144
ag200
ag201
ag202
ag203
ag204
ag205
ag206
ag207
ag208
ag209
ag245
ag246
ag247
ag248
ag249
ag250
ag251
ag252
ag253
ag254
ag280
ag281
ag282
ag283
ag284
ag285
ag32
ag33
ag76
ag77
ag78
ag79
ag80
ag81
ag82
ag83
ag145
ag146
ag147
ag148
ag34
ag35
ag84
ag85
ag86
ag87
ag88
ag89
ag90
ag91
ag149
ag150
ag151
ag152
ag153
ag154
ag155
ag156
ag157
ag158
ag210
ag211
ag212
ag213
ag214
ag215
ag216
ag217
ag218
ag219
ag255
ag256
ag257
ag258
ag259
ag260
ag261
ag36
ag37
ag92
ag93
ag94
ag95
ag96
ag97
ag98
ag99
ag159
ag160
ag161
ag162
ag163
ag164
ag165
ag166
ag167
ag168
ag220
ag221
ag222
ag223
ag224
ag225
ag226
ag227
ag228
ag229
ag262
ag263
ag264
asg38
I239
sS'n'
I360
sa(dp444
g12
(g13
(g15
S'\x02\x00\x00\x00\x00\x00\x00\x00'
tRp445
g17
(g18
(I0
tS'b'
tRp446
(I1
(I4
tg20
I00
S'Nr\xa2\xa3\xed:6@\xe9\x96\x91\x18W<7@\xb6\x13\x98\x16\xcb\xf95@\xa8LZ\xa5;\xa76@'
tbtp447
sg22
(lp448
g24
ag25
ag44
ag45
ag46
ag47
ag48
ag49
ag50
ag51
ag105
ag106
ag107
ag108
ag109
ag110
ag111
ag112
ag113
ag114
ag174
ag175
ag176
ag177
ag178
ag179
ag26
ag27
ag52
ag53
ag54
ag55
ag56
ag57
ag58
ag59
ag115
ag116
ag117
ag118
ag119
ag120
ag121
ag122
ag123
ag124
ag180
ag181
ag182
ag183
ag184
ag185
ag186
ag187
ag188
ag189
ag28
ag29
ag60
ag61
ag62
ag63
ag64
ag65
ag66
ag67
ag125
ag126
ag127
ag128
ag129
ag130
ag131
ag132
ag133
ag134
ag190
ag191
ag192
ag193
ag194
ag195
ag196
ag197
ag198
ag199
ag235
ag236
ag237
ag238
ag239
ag240
ag241
ag242
ag243
ag244
ag270
ag271
ag272
ag273
ag274
ag275
ag276
ag277
ag278
ag279
ag291
ag292
ag293
ag30
ag31
ag68
ag69
ag70
ag71
ag72
ag73
ag74
ag75
ag135
ag136
ag137
ag138
ag139
ag140
ag141
ag142
ag143
ag144
ag200
ag201
ag202
ag203
ag204
ag205
ag206
ag207
ag208
ag209
ag245
ag246
ag247
ag248
ag249
ag250
ag251
ag252
ag253
ag254
ag280
ag281
ag282
ag283
ag284
ag285
ag32
ag33
ag76
ag77
ag78
ag79
ag80
ag81
ag82
ag83
ag145
ag146
ag147
ag148
ag34
ag35
ag84
ag85
ag86
ag87
ag88
ag89
ag90
ag91
ag149
ag150
ag151
ag152
ag153
ag154
ag155
ag156
ag157
ag158
ag210
ag211
ag212
ag213
ag214
ag215
ag216
ag217
ag218
ag219
ag255
ag256
ag257
ag258
ag259
ag260
ag261
ag36
ag37
ag92
ag93
ag94
ag95
ag96
ag97
ag98
ag99
ag159
ag160
ag161
ag162
ag163
ag164
ag165
ag166
ag167
ag168
ag220
ag221
ag222
ag223
ag224
ag225
ag226
ag227
ag228
ag229
ag262
ag263
ag264
asg38
I239
sS'n'
I370
sa(dp449
g12
(g13
(g15
S'\x02\x00\x00\x00\x00\x00\x00\x00'
tRp450
g17
(g18
(I0
tS'b'
tRp451
(I1
(I4
tg20
I00
S'Nr\xa2\xa3\xed:6@\xe9\x96\x91\x18W<7@\xb6\x13\x98\x16\xcb\xf95@\xa8LZ\xa5;\xa76@'
tbtp452
sg22
(lp453
g24
ag25
ag44
ag45
ag46
ag47
ag48
ag49
ag50
ag51
ag105
ag106
ag107
ag108
ag109
ag110
ag111
ag112
ag113
ag114
ag174
ag175
ag176
ag177
ag178
ag179
ag26
ag27
ag52
ag53
ag54
ag55
ag56
ag57
ag58
ag59
ag115
ag116
ag117
ag118
ag119
ag120
ag121
ag122
ag123
ag124
ag180
ag181
ag182
ag183
ag184
ag185
ag186
ag187
ag188
ag189
ag28
ag29
ag60
ag61
ag62
ag63
ag64
ag65
ag66
ag67
ag125
ag126
ag127
ag128
ag129
ag130
ag131
ag132
ag133
ag134
ag190
ag191
ag192
ag193
ag194
ag195
ag196
ag197
ag198
ag199
ag235
ag236
ag237
ag238
ag239
ag240
ag241
ag242
ag243
ag244
ag270
ag271
ag272
ag273
ag274
ag275
ag276
ag277
ag278
ag279
ag291
ag292
ag293
ag30
ag31
ag68
ag69
ag70
ag71
ag72
ag73
ag74
ag75
ag135
ag136
ag137
ag138
ag139
ag140
ag141
ag142
ag143
ag144
ag200
ag201
ag202
ag203
ag204
ag205
ag206
ag207
ag208
ag209
ag245
ag246
ag247
ag248
ag249
ag250
ag251
ag252
ag253
ag254
ag280
ag281
ag282
ag283
ag284
ag285
ag32
ag33
ag76
ag77
ag78
ag79
ag80
ag81
ag82
ag83
ag145
ag146
ag147
ag148
ag34
ag35
ag84
ag85
ag86
ag87
ag88
ag89
ag90
ag91
ag149
ag150
ag151
ag152
ag153
ag154
ag155
ag156
ag157
ag158
ag210
ag211
ag212
ag213
ag214
ag215
ag216
ag217
ag218
ag219
ag255
ag256
ag257
ag258
ag259
ag260
ag261
ag36
ag37
ag92
ag93
ag94
ag95
ag96
ag97
ag98
ag99
ag159
ag160
ag161
ag162
ag163
ag164
ag165
ag166
ag167
ag168
ag220
ag221
ag222
ag223
ag224
ag225
ag226
ag227
ag228
ag229
ag262
ag263
ag264
asg38
I239
sS'n'
I380
sa(dp454
g12
(g13
(g15
S'\x02\x00\x00\x00\x00\x00\x00\x00'
tRp455
g17
(g18
(I0
tS'b'
tRp456
(I1
(I4
tg20
I00
S'Nr\xa2\xa3\xed:6@\xe9\x96\x91\x18W<7@\xb6\x13\x98\x16\xcb\xf95@\xa8LZ\xa5;\xa76@'
tbtp457
sg22
(lp458
g24
ag25
ag44
ag45
ag46
ag47
ag48
ag49
ag50
ag51
ag105
ag106
ag107
ag108
ag109
ag110
ag111
ag112
ag113
ag114
ag174
ag175
ag176
ag177
ag178
ag179
ag26
ag27
ag52
ag53
ag54
ag55
ag56
ag57
ag58
ag59
ag115
ag116
ag117
ag118
ag119
ag120
ag121
ag122
ag123
ag124
ag180
ag181
ag182
ag183
ag184
ag185
ag186
ag187
ag188
ag189
ag28
ag29
ag60
ag61
ag62
ag63
ag64
ag65
ag66
ag67
ag125
ag126
ag127
ag128
ag129
ag130
ag131
ag132
ag133
ag134
ag190
ag191
ag192
ag193
ag194
ag195
ag196
ag197
ag198
ag199
ag235
ag236
ag237
ag238
ag239
ag240
ag241
ag242
ag243
ag244
ag270
ag271
ag272
ag273
ag274
ag275
ag276
ag277
ag278
ag279
ag291
ag292
ag293
ag30
ag31
ag68
ag69
ag70
ag71
ag72
ag73
ag74
ag75
ag135
ag136
ag137
ag138
ag139
ag140
ag141
ag142
ag143
ag144
ag200
ag201
ag202
ag203
ag204
ag205
ag206
ag207
ag208
ag209
ag245
ag246
ag247
ag248
ag249
ag250
ag251
ag252
ag253
ag254
ag280
ag281
ag282
ag283
ag284
ag285
ag32
ag33
ag76
ag77
ag78
ag79
ag80
ag81
ag82
ag83
ag145
ag146
ag147
ag148
ag34
ag35
ag84
ag85
ag86
ag87
ag88
ag89
ag90
ag91
ag149
ag150
ag151
ag152
ag153
ag154
ag155
ag156
ag157
ag158
ag210
ag211
ag212
ag213
ag214
ag215
ag216
ag217
ag218
ag219
ag255
ag256
ag257
ag258
ag259
ag260
ag261
ag36
ag37
ag92
ag93
ag94
ag95
ag96
ag97
ag98
ag99
ag159
ag160
ag161
ag162
ag163
ag164
ag165
ag166
ag167
ag168
ag220
ag221
ag222
ag223
ag224
ag225
ag226
ag227
ag228
ag229
ag262
ag263
ag264
asg38
I239
sS'n'
I390
sa(dp459
g12
(g13
(g15
S'\x02\x00\x00\x00\x00\x00\x00\x00'
tRp460
g17
(g18
(I0
tS'b'
tRp461
(I1
(I4
tg20
I00
S'Nr\xa2\xa3\xed:6@\xe9\x96\x91\x18W<7@\xb6\x13\x98\x16\xcb\xf95@\xa8LZ\xa5;\xa76@'
tbtp462
sg22
(lp463
g24
ag25
ag44
ag45
ag46
ag47
ag48
ag49
ag50
ag51
ag105
ag106
ag107
ag108
ag109
ag110
ag111
ag112
ag113
ag114
ag174
ag175
ag176
ag177
ag178
ag179
ag26
ag27
ag52
ag53
ag54
ag55
ag56
ag57
ag58
ag59
ag115
ag116
ag117
ag118
ag119
ag120
ag121
ag122
ag123
ag124
ag180
ag181
ag182
ag183
ag184
ag185
ag186
ag187
ag188
ag189
ag28
ag29
ag60
ag61
ag62
ag63
ag64
ag65
ag66
ag67
ag125
ag126
ag127
ag128
ag129
ag130
ag131
ag132
ag133
ag134
ag190
ag191
ag192
ag193
ag194
ag195
ag196
ag197
ag198
ag199
ag235
ag236
ag237
ag238
ag239
ag240
ag241
ag242
ag243
ag244
ag270
ag271
ag272
ag273
ag274
ag275
ag276
ag277
ag278
ag279
ag291
ag292
ag293
ag30
ag31
ag68
ag69
ag70
ag71
ag72
ag73
ag74
ag75
ag135
ag136
ag137
ag138
ag139
ag140
ag141
ag142
ag143
ag144
ag200
ag201
ag202
ag203
ag204
ag205
ag206
ag207
ag208
ag209
ag245
ag246
ag247
ag248
ag249
ag250
ag251
ag252
ag253
ag254
ag280
ag281
ag282
ag283
ag284
ag285
ag32
ag33
ag76
ag77
ag78
ag79
ag80
ag81
ag82
ag83
ag145
ag146
ag147
ag148
ag34
ag35
ag84
ag85
ag86
ag87
ag88
ag89
ag90
ag91
ag149
ag150
ag151
ag152
ag153
ag154
ag155
ag156
ag157
ag158
ag210
ag211
ag212
ag213
ag214
ag215
ag216
ag217
ag218
ag219
ag255
ag256
ag257
ag258
ag259
ag260
ag261
ag36
ag37
ag92
ag93
ag94
ag95
ag96
ag97
ag98
ag99
ag159
ag160
ag161
ag162
ag163
ag164
ag165
ag166
ag167
ag168
ag220
ag221
ag222
ag223
ag224
ag225
ag226
ag227
ag228
ag229
ag262
ag263
ag264
asg38
I239
sS'n'
I400
sa(dp464
g12
(g13
(g15
S'\x02\x00\x00\x00\x00\x00\x00\x00'
tRp465
g17
(g18
(I0
tS'b'
tRp466
(I1
(I4
tg20
I00
S'Nr\xa2\xa3\xed:6@\xe9\x96\x91\x18W<7@\xb6\x13\x98\x16\xcb\xf95@\xa8LZ\xa5;\xa76@'
tbtp467
sg22
(lp468
g24
ag25
ag44
ag45
ag46
ag47
ag48
ag49
ag50
ag51
ag105
ag106
ag107
ag108
ag109
ag110
ag111
ag112
ag113
ag114
ag174
ag175
ag176
ag177
ag178
ag179
ag26
ag27
ag52
ag53
ag54
ag55
ag56
ag57
ag58
ag59
ag115
ag116
ag117
ag118
ag119
ag120
ag121
ag122
ag123
ag124
ag180
ag181
ag182
ag183
ag184
ag185
ag186
ag187
ag188
ag189
ag28
ag29
ag60
ag61
ag62
ag63
ag64
ag65
ag66
ag67
ag125
ag126
ag127
ag128
ag129
ag130
ag131
ag132
ag133
ag134
ag190
ag191
ag192
ag193
ag194
ag195
ag196
ag197
ag198
ag199
ag235
ag236
ag237
ag238
ag239
ag240
ag241
ag242
ag243
ag244
ag270
ag271
ag272
ag273
ag274
ag275
ag276
ag277
ag278
ag279
ag291
ag292
ag293
ag30
ag31
ag68
ag69
ag70
ag71
ag72
ag73
ag74
ag75
ag135
ag136
ag137
ag138
ag139
ag140
ag141
ag142
ag143
ag144
ag200
ag201
ag202
ag203
ag204
ag205
ag206
ag207
ag208
ag209
ag245
ag246
ag247
ag248
ag249
ag250
ag251
ag252
ag253
ag254
ag280
ag281
ag282
ag283
ag284
ag285
ag32
ag33
ag76
ag77
ag78
ag79
ag80
ag81
ag82
ag83
ag145
ag146
ag147
ag148
ag34
ag35
ag84
ag85
ag86
ag87
ag88
ag89
ag90
ag91
ag149
ag150
ag151
ag152
ag153
ag154
ag155
ag156
ag157
ag158
ag210
ag211
ag212
ag213
ag214
ag215
ag216
ag217
ag218
ag219
ag255
ag256
ag257
ag258
ag259
ag260
ag261
ag36
ag37
ag92
ag93
ag94
ag95
ag96
ag97
ag98
ag99
ag159
ag160
ag161
ag162
ag163
ag164
ag165
ag166
ag167
ag168
ag220
ag221
ag222
ag223
ag224
ag225
ag226
ag227
ag228
ag229
ag262
ag263
ag264
asg38
I239
sS'n'
I410
sa(dp469
g12
(g13
(g15
S'\x02\x00\x00\x00\x00\x00\x00\x00'
tRp470
g17
(g18
(I0
tS'b'
tRp471
(I1
(I4
tg20
I00
S'Nr\xa2\xa3\xed:6@\xe9\x96\x91\x18W<7@\xb6\x13\x98\x16\xcb\xf95@\xa8LZ\xa5;\xa76@'
tbtp472
sg22
(lp473
g24
ag25
ag44
ag45
ag46
ag47
ag48
ag49
ag50
ag51
ag105
ag106
ag107
ag108
ag109
ag110
ag111
ag112
ag113
ag114
ag174
ag175
ag176
ag177
ag178
ag179
ag26
ag27
ag52
ag53
ag54
ag55
ag56
ag57
ag58
ag59
ag115
ag116
ag117
ag118
ag119
ag120
ag121
ag122
ag123
ag124
ag180
ag181
ag182
ag183
ag184
ag185
ag186
ag187
ag188
ag189
ag28
ag29
ag60
ag61
ag62
ag63
ag64
ag65
ag66
ag67
ag125
ag126
ag127
ag128
ag129
ag130
ag131
ag132
ag133
ag134
ag190
ag191
ag192
ag193
ag194
ag195
ag196
ag197
ag198
ag199
ag235
ag236
ag237
ag238
ag239
ag240
ag241
ag242
ag243
ag244
ag270
ag271
ag272
ag273
ag274
ag275
ag276
ag277
ag278
ag279
ag291
ag292
ag293
ag30
ag31
ag68
ag69
ag70
ag71
ag72
ag73
ag74
ag75
ag135
ag136
ag137
ag138
ag139
ag140
ag141
ag142
ag143
ag144
ag200
ag201
ag202
ag203
ag204
ag205
ag206
ag207
ag208
ag209
ag245
ag246
ag247
ag248
ag249
ag250
ag251
ag252
ag253
ag254
ag280
ag281
ag282
ag283
ag284
ag285
ag32
ag33
ag76
ag77
ag78
ag79
ag80
ag81
ag82
ag83
ag145
ag146
ag147
ag148
ag34
ag35
ag84
ag85
ag86
ag87
ag88
ag89
ag90
ag91
ag149
ag150
ag151
ag152
ag153
ag154
ag155
ag156
ag157
ag158
ag210
ag211
ag212
ag213
ag214
ag215
ag216
ag217
ag218
ag219
ag255
ag256
ag257
ag258
ag259
ag260
ag261
ag36
ag37
ag92
ag93
ag94
ag95
ag96
ag97
ag98
ag99
ag159
ag160
ag161
ag162
ag163
ag164
ag165
ag166
ag167
ag168
ag220
ag221
ag222
ag223
ag224
ag225
ag226
ag227
ag228
ag229
ag262
ag263
ag264
asg38
I239
sS'n'
I420
sa(dp474
g12
(g13
(g15
S'\x02\x00\x00\x00\x00\x00\x00\x00'
tRp475
g17
(g18
(I0
tS'b'
tRp476
(I1
(I4
tg20
I00
S'Nr\xa2\xa3\xed:6@\xe9\x96\x91\x18W<7@\xb6\x13\x98\x16\xcb\xf95@\xa8LZ\xa5;\xa76@'
tbtp477
sg22
(lp478
g24
ag25
ag44
ag45
ag46
ag47
ag48
ag49
ag50
ag51
ag105
ag106
ag107
ag108
ag109
ag110
ag111
ag112
ag113
ag114
ag174
ag175
ag176
ag177
ag178
ag179
ag26
ag27
ag52
ag53
ag54
ag55
ag56
ag57
ag58
ag59
ag115
ag116
ag117
ag118
ag119
ag120
ag121
ag122
ag123
ag124
ag180
ag181
ag182
ag183
ag184
ag185
ag186
ag187
ag188
ag189
ag28
ag29
ag60
ag61
ag62
ag63
ag64
ag65
ag66
ag67
ag125
ag126
ag127
ag128
ag129
ag130
ag131
ag132
ag133
ag134
ag190
ag191
ag192
ag193
ag194
ag195
ag196
ag197
ag198
ag199
ag235
ag236
ag237
ag238
ag239
ag240
ag241
ag242
ag243
ag244
ag270
ag271
ag272
ag273
ag274
ag275
ag276
ag277
ag278
ag279
ag291
ag292
ag293
ag30
ag31
ag68
ag69
ag70
ag71
ag72
ag73
ag74
ag75
ag135
ag136
ag137
ag138
ag139
ag140
ag141
ag142
ag143
ag144
ag200
ag201
ag202
ag203
ag204
ag205
ag206
ag207
ag208
ag209
ag245
ag246
ag247
ag248
ag249
ag250
ag251
ag252
ag253
ag254
ag280
ag281
ag282
ag283
ag284
ag285
ag32
ag33
ag76
ag77
ag78
ag79
ag80
ag81
ag82
ag83
ag145
ag146
ag147
ag148
ag34
ag35
ag84
ag85
ag86
ag87
ag88
ag89
ag90
ag91
ag149
ag150
ag151
ag152
ag153
ag154
ag155
ag156
ag157
ag158
ag210
ag211
ag212
ag213
ag214
ag215
ag216
ag217
ag218
ag219
ag255
ag256
ag257
ag258
ag259
ag260
ag261
ag36
ag37
ag92
ag93
ag94
ag95
ag96
ag97
ag98
ag99
ag159
ag160
ag161
ag162
ag163
ag164
ag165
ag166
ag167
ag168
ag220
ag221
ag222
ag223
ag224
ag225
ag226
ag227
ag228
ag229
ag262
ag263
ag264
asg38
I239
sS'n'
I430
sa(dp479
g12
(g13
(g15
S'\x02\x00\x00\x00\x00\x00\x00\x00'
tRp480
g17
(g18
(I0
tS'b'
tRp481
(I1
(I4
tg20
I00
S'Nr\xa2\xa3\xed:6@\xe9\x96\x91\x18W<7@\xb6\x13\x98\x16\xcb\xf95@\xa8LZ\xa5;\xa76@'
tbtp482
sg22
(lp483
g24
ag25
ag44
ag45
ag46
ag47
ag48
ag49
ag50
ag51
ag105
ag106
ag107
ag108
ag109
ag110
ag111
ag112
ag113
ag114
ag174
ag175
ag176
ag177
ag178
ag179
ag26
ag27
ag52
ag53
ag54
ag55
ag56
ag57
ag58
ag59
ag115
ag116
ag117
ag118
ag119
ag120
ag121
ag122
ag123
ag124
ag180
ag181
ag182
ag183
ag184
ag185
ag186
ag187
ag188
ag189
ag28
ag29
ag60
ag61
ag62
ag63
ag64
ag65
ag66
ag67
ag125
ag126
ag127
ag128
ag129
ag130
ag131
ag132
ag133
ag134
ag190
ag191
ag192
ag193
ag194
ag195
ag196
ag197
ag198
ag199
ag235
ag236
ag237
ag238
ag239
ag240
ag241
ag242
ag243
ag244
ag270
ag271
ag272
ag273
ag274
ag275
ag276
ag277
ag278
ag279
ag291
ag292
ag293
ag30
ag31
ag68
ag69
ag70
ag71
ag72
ag73
ag74
ag75
ag135
ag136
ag137
ag138
ag139
ag140
ag141
ag142
ag143
ag144
ag200
ag201
ag202
ag203
ag204
ag205
ag206
ag207
ag208
ag209
ag245
ag246
ag247
ag248
ag249
ag250
ag251
ag252
ag253
ag254
ag280
ag281
ag282
ag283
ag284
ag285
ag32
ag33
ag76
ag77
ag78
ag79
ag80
ag81
ag82
ag83
ag145
ag146
ag147
ag148
ag34
ag35
ag84
ag85
ag86
ag87
ag88
ag89
ag90
ag91
ag149
ag150
ag151
ag152
ag153
ag154
ag155
ag156
ag157
ag158
ag210
ag211
ag212
ag213
ag214
ag215
ag216
ag217
ag218
ag219
ag255
ag256
ag257
ag258
ag259
ag260
ag261
ag36
ag37
ag92
ag93
ag94
ag95
ag96
ag97
ag98
ag99
ag159
ag160
ag161
ag162
ag163
ag164
ag165
ag166
ag167
ag168
ag220
ag221
ag222
ag223
ag224
ag225
ag226
ag227
ag228
ag229
ag262
ag263
ag264
asg38
I239
sS'n'
I440
sa(dp484
g12
(g13
(g15
S'\x02\x00\x00\x00\x00\x00\x00\x00'
tRp485
g17
(g18
(I0
tS'b'
tRp486
(I1
(I4
tg20
I00
S'Nr\xa2\xa3\xed:6@\xe9\x96\x91\x18W<7@\xb6\x13\x98\x16\xcb\xf95@\xa8LZ\xa5;\xa76@'
tbtp487
sg22
(lp488
g24
ag25
ag44
ag45
ag46
ag47
ag48
ag49
ag50
ag51
ag105
ag106
ag107
ag108
ag109
ag110
ag111
ag112
ag113
ag114
ag174
ag175
ag176
ag177
ag178
ag179
ag26
ag27
ag52
ag53
ag54
ag55
ag56
ag57
ag58
ag59
ag115
ag116
ag117
ag118
ag119
ag120
ag121
ag122
ag123
ag124
ag180
ag181
ag182
ag183
ag184
ag185
ag186
ag187
ag188
ag189
ag28
ag29
ag60
ag61
ag62
ag63
ag64
ag65
ag66
ag67
ag125
ag126
ag127
ag128
ag129
ag130
ag131
ag132
ag133
ag134
ag190
ag191
ag192
ag193
ag194
ag195
ag196
ag197
ag198
ag199
ag235
ag236
ag237
ag238
ag239
ag240
ag241
ag242
ag243
ag244
ag270
ag271
ag272
ag273
ag274
ag275
ag276
ag277
ag278
ag279
ag291
ag292
ag293
ag30
ag31
ag68
ag69
ag70
ag71
ag72
ag73
ag74
ag75
ag135
ag136
ag137
ag138
ag139
ag140
ag141
ag142
ag143
ag144
ag200
ag201
ag202
ag203
ag204
ag205
ag206
ag207
ag208
ag209
ag245
ag246
ag247
ag248
ag249
ag250
ag251
ag252
ag253
ag254
ag280
ag281
ag282
ag283
ag284
ag285
ag32
ag33
ag76
ag77
ag78
ag79
ag80
ag81
ag82
ag83
ag145
ag146
ag147
ag148
ag34
ag35
ag84
ag85
ag86
ag87
ag88
ag89
ag90
ag91
ag149
ag150
ag151
ag152
ag153
ag154
ag155
ag156
ag157
ag158
ag210
ag211
ag212
ag213
ag214
ag215
ag216
ag217
ag218
ag219
ag255
ag256
ag257
ag258
ag259
ag260
ag261
ag36
ag37
ag92
ag93
ag94
ag95
ag96
ag97
ag98
ag99
ag159
ag160
ag161
ag162
ag163
ag164
ag165
ag166
ag167
ag168
ag220
ag221
ag222
ag223
ag224
ag225
ag226
ag227
ag228
ag229
ag262
ag263
ag264
asg38
I239
sS'n'
I450
sa(dp489
g12
(g13
(g15
S'\x02\x00\x00\x00\x00\x00\x00\x00'
tRp490
g17
(g18
(I0
tS'b'
tRp491
(I1
(I4
tg20
I00
S'Nr\xa2\xa3\xed:6@\xe9\x96\x91\x18W<7@\xb6\x13\x98\x16\xcb\xf95@\xa8LZ\xa5;\xa76@'
tbtp492
sg22
(lp493
g24
ag25
ag44
ag45
ag46
ag47
ag48
ag49
ag50
ag51
ag105
ag106
ag107
ag108
ag109
ag110
ag111
ag112
ag113
ag114
ag174
ag175
ag176
ag177
ag178
ag179
ag26
ag27
ag52
ag53
ag54
ag55
ag56
ag57
ag58
ag59
ag115
ag116
ag117
ag118
ag119
ag120
ag121
ag122
ag123
ag124
ag180
ag181
ag182
ag183
ag184
ag185
ag186
ag187
ag188
ag189
ag28
ag29
ag60
ag61
ag62
ag63
ag64
ag65
ag66
ag67
ag125
ag126
ag127
ag128
ag129
ag130
ag131
ag132
ag133
ag134
ag190
ag191
ag192
ag193
ag194
ag195
ag196
ag197
ag198
ag199
ag235
ag236
ag237
ag238
ag239
ag240
ag241
ag242
ag243
ag244
ag270
ag271
ag272
ag273
ag274
ag275
ag276
ag277
ag278
ag279
ag291
ag292
ag293
ag30
ag31
ag68
ag69
ag70
ag71
ag72
ag73
ag74
ag75
ag135
ag136
ag137
ag138
ag139
ag140
ag141
ag142
ag143
ag144
ag200
ag201
ag202
ag203
ag204
ag205
ag206
ag207
ag208
ag209
ag245
ag246
ag247
ag248
ag249
ag250
ag251
ag252
ag253
ag254
ag280
ag281
ag282
ag283
ag284
ag285
ag32
ag33
ag76
ag77
ag78
ag79
ag80
ag81
ag82
ag83
ag145
ag146
ag147
ag148
ag34
ag35
ag84
ag85
ag86
ag87
ag88
ag89
ag90
ag91
ag149
ag150
ag151
ag152
ag153
ag154
ag155
ag156
ag157
ag158
ag210
ag211
ag212
ag213
ag214
ag215
ag216
ag217
ag218
ag219
ag255
ag256
ag257
ag258
ag259
ag260
ag261
ag36
ag37
ag92
ag93
ag94
ag95
ag96
ag97
ag98
ag99
ag159
ag160
ag161
ag162
ag163
ag164
ag165
ag166
ag167
ag168
ag220
ag221
ag222
ag223
ag224
ag225
ag226
ag227
ag228
ag229
ag262
ag263
ag264
asg38
I239
sS'n'
I460
sa(dp494
g12
(g13
(g15
S'\x02\x00\x00\x00\x00\x00\x00\x00'
tRp495
g17
(g18
(I0
tS'b'
tRp496
(I1
(I4
tg20
I00
S'Nr\xa2\xa3\xed:6@\xe9\x96\x91\x18W<7@\xb6\x13\x98\x16\xcb\xf95@\xa8LZ\xa5;\xa76@'
tbtp497
sg22
(lp498
g24
ag25
ag44
ag45
ag46
ag47
ag48
ag49
ag50
ag51
ag105
ag106
ag107
ag108
ag109
ag110
ag111
ag112
ag113
ag114
ag174
ag175
ag176
ag177
ag178
ag179
ag26
ag27
ag52
ag53
ag54
ag55
ag56
ag57
ag58
ag59
ag115
ag116
ag117
ag118
ag119
ag120
ag121
ag122
ag123
ag124
ag180
ag181
ag182
ag183
ag184
ag185
ag186
ag187
ag188
ag189
ag28
ag29
ag60
ag61
ag62
ag63
ag64
ag65
ag66
ag67
ag125
ag126
ag127
ag128
ag129
ag130
ag131
ag132
ag133
ag134
ag190
ag191
ag192
ag193
ag194
ag195
ag196
ag197
ag198
ag199
ag235
ag236
ag237
ag238
ag239
ag240
ag241
ag242
ag243
ag244
ag270
ag271
ag272
ag273
ag274
ag275
ag276
ag277
ag278
ag279
ag291
ag292
ag293
ag30
ag31
ag68
ag69
ag70
ag71
ag72
ag73
ag74
ag75
ag135
ag136
ag137
ag138
ag139
ag140
ag141
ag142
ag143
ag144
ag200
ag201
ag202
ag203
ag204
ag205
ag206
ag207
ag208
ag209
ag245
ag246
ag247
ag248
ag249
ag250
ag251
ag252
ag253
ag254
ag280
ag281
ag282
ag283
ag284
ag285
ag32
ag33
ag76
ag77
ag78
ag79
ag80
ag81
ag82
ag83
ag145
ag146
ag147
ag148
ag34
ag35
ag84
ag85
ag86
ag87
ag88
ag89
ag90
ag91
ag149
ag150
ag151
ag152
ag153
ag154
ag155
ag156
ag157
ag158
ag210
ag211
ag212
ag213
ag214
ag215
ag216
ag217
ag218
ag219
ag255
ag256
ag257
ag258
ag259
ag260
ag261
ag36
ag37
ag92
ag93
ag94
ag95
ag96
ag97
ag98
ag99
ag159
ag160
ag161
ag162
ag163
ag164
ag165
ag166
ag167
ag168
ag220
ag221
ag222
ag223
ag224
ag225
ag226
ag227
ag228
ag229
ag262
ag263
ag264
asg38
I239
sS'n'
I470
sa(dp499
g12
(g13
(g15
S'\x02\x00\x00\x00\x00\x00\x00\x00'
tRp500
g17
(g18
(I0
tS'b'
tRp501
(I1
(I4
tg20
I00
S'Nr\xa2\xa3\xed:6@\xe9\x96\x91\x18W<7@\xb6\x13\x98\x16\xcb\xf95@\xa8LZ\xa5;\xa76@'
tbtp502
sg22
(lp503
g24
ag25
ag44
ag45
ag46
ag47
ag48
ag49
ag50
ag51
ag105
ag106
ag107
ag108
ag109
ag110
ag111
ag112
ag113
ag114
ag174
ag175
ag176
ag177
ag178
ag179
ag26
ag27
ag52
ag53
ag54
ag55
ag56
ag57
ag58
ag59
ag115
ag116
ag117
ag118
ag119
ag120
ag121
ag122
ag123
ag124
ag180
ag181
ag182
ag183
ag184
ag185
ag186
ag187
ag188
ag189
ag28
ag29
ag60
ag61
ag62
ag63
ag64
ag65
ag66
ag67
ag125
ag126
ag127
ag128
ag129
ag130
ag131
ag132
ag133
ag134
ag190
ag191
ag192
ag193
ag194
ag195
ag196
ag197
ag198
ag199
ag235
ag236
ag237
ag238
ag239
ag240
ag241
ag242
ag243
ag244
ag270
ag271
ag272
ag273
ag274
ag275
ag276
ag277
ag278
ag279
ag291
ag292
ag293
ag30
ag31
ag68
ag69
ag70
ag71
ag72
ag73
ag74
ag75
ag135
ag136
ag137
ag138
ag139
ag140
ag141
ag142
ag143
ag144
ag200
ag201
ag202
ag203
ag204
ag205
ag206
ag207
ag208
ag209
ag245
ag246
ag247
ag248
ag249
ag250
ag251
ag252
ag253
ag254
ag280
ag281
ag282
ag283
ag284
ag285
ag32
ag33
ag76
ag77
ag78
ag79
ag80
ag81
ag82
ag83
ag145
ag146
ag147
ag148
ag34
ag35
ag84
ag85
ag86
ag87
ag88
ag89
ag90
ag91
ag149
ag150
ag151
ag152
ag153
ag154
ag155
ag156
ag157
ag158
ag210
ag211
ag212
ag213
ag214
ag215
ag216
ag217
ag218
ag219
ag255
ag256
ag257
ag258
ag259
ag260
ag261
ag36
ag37
ag92
ag93
ag94
ag95
ag96
ag97
ag98
ag99
ag159
ag160
ag161
ag162
ag163
ag164
ag165
ag166
ag167
ag168
ag220
ag221
ag222
ag223
ag224
ag225
ag226
ag227
ag228
ag229
ag262
ag263
ag264
asg38
I239
sS'n'
I480
sa(dp504
g12
(g13
(g15
S'\x02\x00\x00\x00\x00\x00\x00\x00'
tRp505
g17
(g18
(I0
tS'b'
tRp506
(I1
(I4
tg20
I00
S'Nr\xa2\xa3\xed:6@\xe9\x96\x91\x18W<7@\xb6\x13\x98\x16\xcb\xf95@\xa8LZ\xa5;\xa76@'
tbtp507
sg22
(lp508
g24
ag25
ag44
ag45
ag46
ag47
ag48
ag49
ag50
ag51
ag105
ag106
ag107
ag108
ag109
ag110
ag111
ag112
ag113
ag114
ag174
ag175
ag176
ag177
ag178
ag179
ag26
ag27
ag52
ag53
ag54
ag55
ag56
ag57
ag58
ag59
ag115
ag116
ag117
ag118
ag119
ag120
ag121
ag122
ag123
ag124
ag180
ag181
ag182
ag183
ag184
ag185
ag186
ag187
ag188
ag189
ag28
ag29
ag60
ag61
ag62
ag63
ag64
ag65
ag66
ag67
ag125
ag126
ag127
ag128
ag129
ag130
ag131
ag132
ag133
ag134
ag190
ag191
ag192
ag193
ag194
ag195
ag196
ag197
ag198
ag199
ag235
ag236
ag237
ag238
ag239
ag240
ag241
ag242
ag243
ag244
ag270
ag271
ag272
ag273
ag274
ag275
ag276
ag277
ag278
ag279
ag291
ag292
ag293
ag30
ag31
ag68
ag69
ag70
ag71
ag72
ag73
ag74
ag75
ag135
ag136
ag137
ag138
ag139
ag140
ag141
ag142
ag143
ag144
ag200
ag201
ag202
ag203
ag204
ag205
ag206
ag207
ag208
ag209
ag245
ag246
ag247
ag248
ag249
ag250
ag251
ag252
ag253
ag254
ag280
ag281
ag282
ag283
ag284
ag285
ag32
ag33
ag76
ag77
ag78
ag79
ag80
ag81
ag82
ag83
ag145
ag146
ag147
ag148
ag34
ag35
ag84
ag85
ag86
ag87
ag88
ag89
ag90
ag91
ag149
ag150
ag151
ag152
ag153
ag154
ag155
ag156
ag157
ag158
ag210
ag211
ag212
ag213
ag214
ag215
ag216
ag217
ag218
ag219
ag255
ag256
ag257
ag258
ag259
ag260
ag261
ag36
ag37
ag92
ag93
ag94
ag95
ag96
ag97
ag98
ag99
ag159
ag160
ag161
ag162
ag163
ag164
ag165
ag166
ag167
ag168
ag220
ag221
ag222
ag223
ag224
ag225
ag226
ag227
ag228
ag229
ag262
ag263
ag264
asg38
I239
sS'n'
I490
sasS'comments'
p509
S'Using average-median qa distance (default)'
p510
sS'q_text_entities'
p511
(lp512
S'deoxyadenosine'
p513
aS'active triphosphate'
p514
aS'viral replication'
p515
aS'HIV reverse transcriptase'
p516
aS'chain termination'
p517
aS'zidovudine'
p518
aS'monotherapy'
p519
aS'dose-dependent pancreatitis'
p520
asS'weights'
p521
S'deg_weight'
p522
sS'graph'
p523
S'drugbank-ext-v3.graphml'
p524
sS'qid'
p525
S'Q119#2'
p526
sS'date'
p527
S'2014/08/16 12:30'
p528
sS'pickle'
p529
S'qa-experimente5-v0.p'
p530
sS'correct'
p531
I2
sS'ans_text_entities'
p532
(lp533
(lp534
S'zalcitabine'
p535
aa(lp536
S'trifluridine'
p537
aa(lp538
S'didanosine'
p539
aa(lp540
S'foscarnet'
p541
aas.