(lp1
(dp2
S'avg_mc_entity_count'
p3
F2.25
sS'QID'
p4
S'Q0#7'
p5
sS'q_entity_count'
p6
I3
sS'mc_representation'
p7
F1
sa(dp8
g3
F1.6000000000000001
sg4
S'Q0#11'
p9
sg6
I5
sg7
F1
sa(dp10
g3
I0
sg4
S'Q0#13'
p11
sg6
I5
sg7
F0
sa(dp12
g3
F2
sg4
S'Q0#15'
p13
sg6
I3
sg7
F1
sa(dp14
g3
I0
sg4
S'Q1#0'
p15
sg6
I4
sg7
F0
sa(dp16
g3
F1.25
sg4
S'Q1#3'
p17
sg6
I3
sg7
F1
sa(dp18
g3
F1
sg4
S'Q1#6'
p19
sg6
I9
sg7
F1
sa(dp20
g3
F1.3333333333333333
sg4
S'Q3#0'
p21
sg6
I2
sg7
F0.59999999999999998
sa(dp22
g3
F1.3999999999999999
sg4
S'Q3#2'
p23
sg6
I2
sg7
F1
sa(dp24
g3
F2
sg4
S'Q3#3'
p25
sg6
I3
sg7
F0.80000000000000004
sa(dp26
g3
F1.25
sg4
S'Q3#5'
p27
sg6
I2
sg7
F0.80000000000000004
sa(dp28
g3
F1
sg4
S'Q3#8'
p29
sg6
I1
sg7
F1
sa(dp30
g3
F1.3333333333333333
sg4
S'Q3#9'
p31
sg6
I1
sg7
F0.59999999999999998
sa(dp32
g3
F1
sg4
S'Q4#0'
p33
sg6
I3
sg7
F1
sa(dp34
g3
F1.2
sg4
S'Q4#1'
p35
sg6
I5
sg7
F1
sa(dp36
g3
F1
sg4
S'Q4#4'
p37
sg6
I3
sg7
F0.40000000000000002
sa(dp38
g3
F2.3333333333333335
sg4
S'Q8#0'
p39
sg6
I2
sg7
F0.75
sa(dp40
g3
F2.2000000000000002
sg4
S'Q8#3'
p41
sg6
I3
sg7
F1
sa(dp42
g3
F3
sg4
S'Q8#7'
p43
sg6
I1
sg7
F0.33333333333333331
sa(dp44
g3
F2.6000000000000001
sg4
S'Q8#8'
p45
sg6
I2
sg7
F1
sa(dp46
g3
F1.6666666666666667
sg4
S'Q8#12'
p47
sg6
I3
sg7
F0.75
sa(dp48
g3
F2
sg4
S'Q8#16'
p49
sg6
I2
sg7
F0.66666666666666663
sa(dp50
g3
F1
sg4
S'Q8#18'
p51
sg6
I2
sg7
F0.66666666666666663
sa(dp52
g3
F2
sg4
S'Q8#23'
p53
sg6
I1
sg7
F0.33333333333333331
sa(dp54
g3
F2
sg4
S'Q8#24'
p55
sg6
I7
sg7
F0.33333333333333331
sa(dp56
g3
F2
sg4
S'Q8#25'
p57
sg6
I4
sg7
F0.25
sa(dp58
g3
F1
sg4
S'Q9#5'
p59
sg6
I1
sg7
F0.33333333333333331
sa(dp60
g3
F1
sg4
S'Q9#6'
p61
sg6
I1
sg7
F0.80000000000000004
sa(dp62
g3
F2
sg4
S'Q9#10'
p63
sg6
I4
sg7
F0.5
sa(dp64
g3
F1
sg4
S'Q10#0'
p65
sg6
I4
sg7
F0.59999999999999998
sa(dp66
g3
F1
sg4
S'Q10#8'
p67
sg6
I4
sg7
F0.25
sa(dp68
g3
F3.3333333333333335
sg4
S'Q11#1'
p69
sg6
I3
sg7
F0.75
sa(dp70
g3
F1
sg4
S'Q11#2'
p71
sg6
I3
sg7
F0.75
sa(dp72
g3
F2
sg4
S'Q11#4'
p73
sg6
I5
sg7
F1
sa(dp74
g3
F1
sg4
S'Q11#5'
p75
sg6
I3
sg7
F0.75
sa(dp76
g3
F1.5
sg4
S'Q11#6'
p77
sg6
I5
sg7
F1
sa(dp78
g3
F1
sg4
S'Q11#7'
p79
sg6
I2
sg7
F0.75
sa(dp80
g3
F2
sg4
S'Q11#8'
p81
sg6
I3
sg7
F0.25
sa(dp82
g3
F1.5
sg4
S'Q11#9'
p83
sg6
I1
sg7
F0.5
sa(dp84
g3
F1
sg4
S'Q11#11'
p85
sg6
I5
sg7
F0.5
sa(dp86
g3
I0
sg4
S'Q11#13'
p87
sg6
I1
sg7
F0
sa(dp88
g3
F1
sg4
S'Q11#14'
p89
sg6
I2
sg7
F0.25
sa(dp90
g3
F1
sg4
S'Q11#15'
p91
sg6
I3
sg7
F0.75
sa(dp92
g3
F1
sg4
S'Q11#17'
p93
sg6
I5
sg7
F0.25
sa(dp94
g3
F1
sg4
S'Q11#18'
p95
sg6
I3
sg7
F0.5
sa(dp96
g3
I0
sg4
S'Q11#19'
p97
sg6
I4
sg7
F0
sa(dp98
g3
F1.6666666666666667
sg4
S'Q12#0'
p99
sg6
I3
sg7
F0.75
sa(dp100
g3
F1.5
sg4
S'Q12#1'
p101
sg6
I1
sg7
F0.5
sa(dp102
g3
F1
sg4
S'Q12#2'
p103
sg6
I1
sg7
F0.25
sa(dp104
g3
F1.6666666666666667
sg4
S'Q12#3'
p105
sg6
I3
sg7
F0.75
sa(dp106
g3
F1.25
sg4
S'Q12#4'
p107
sg6
I5
sg7
F1
sa(dp108
g3
F1
sg4
S'Q12#5'
p109
sg6
I1
sg7
F1
sa(dp110
g3
F1.75
sg4
S'Q12#6'
p111
sg6
I3
sg7
F1
sa(dp112
g3
F1.5
sg4
S'Q12#8'
p113
sg6
I1
sg7
F1
sa(dp114
g3
F2.75
sg4
S'Q12#9'
p115
sg6
I2
sg7
F1
sa(dp116
g3
F1
sg4
S'Q12#10'
p117
sg6
I3
sg7
F0.75
sa(dp118
g3
F2
sg4
S'Q12#11'
p119
sg6
I1
sg7
F1
sa(dp120
g3
F1.5
sg4
S'Q12#12'
p121
sg6
I3
sg7
F0.5
sa(dp122
g3
F1
sg4
S'Q12#13'
p123
sg6
I2
sg7
F0.5
sa(dp124
g3
F1
sg4
S'Q12#14'
p125
sg6
I2
sg7
F0.25
sa(dp126
g3
F1.5
sg4
S'Q12#15'
p127
sg6
I1
sg7
F0.5
sa(dp128
g3
F1
sg4
S'Q12#16'
p129
sg6
I1
sg7
F0.25
sa(dp130
g3
F1
sg4
S'Q13#1'
p131
sg6
I3
sg7
F0.5
sa(dp132
g3
F1
sg4
S'Q13#2'
p133
sg6
I1
sg7
F0.5
sa(dp134
g3
F2
sg4
S'Q13#3'
p135
sg6
I1
sg7
F0.33333333333333331
sa(dp136
g3
F2
sg4
S'Q13#4'
p137
sg6
I1
sg7
F1
sa(dp138
g3
F1.6666666666666667
sg4
S'Q13#5'
p139
sg6
I3
sg7
F0.75
sa(dp140
g3
I0
sg4
S'Q13#6'
p141
sg6
I2
sg7
F0
sa(dp142
g3
I0
sg4
S'Q13#8'
p143
sg6
I4
sg7
F0
sa(dp144
g3
F1.6666666666666667
sg4
S'Q13#9'
p145
sg6
I3
sg7
F0.75
sa(dp146
g3
I0
sg4
S'Q13#10'
p147
sg6
I1
sg7
F0
sa(dp148
g3
F1
sg4
S'Q13#12'
p149
sg6
I1
sg7
F0.25
sa(dp150
g3
F1
sg4
S'Q13#14'
p151
sg6
I2
sg7
F0.75
sa(dp152
g3
F1.5
sg4
S'Q14#0'
p153
sg6
I3
sg7
F1
sa(dp154
g3
F1.5
sg4
S'Q14#2'
p155
sg6
I3
sg7
F0.5
sa(dp156
g3
F2
sg4
S'Q14#4'
p157
sg6
I2
sg7
F0.5
sa(dp158
g3
F1
sg4
S'Q14#5'
p159
sg6
I2
sg7
F0.25
sa(dp160
g3
I0
sg4
S'Q14#6'
p161
sg6
I4
sg7
F0
sa(dp162
g3
F1
sg4
S'Q14#7'
p163
sg6
I2
sg7
F0.5
sa(dp164
g3
F2
sg4
S'Q14#8'
p165
sg6
I2
sg7
F0.25
sa(dp166
g3
F2
sg4
S'Q14#9'
p167
sg6
I1
sg7
F1
sa(dp168
g3
F1.5
sg4
S'Q14#10'
p169
sg6
I2
sg7
F0.5
sa(dp170
g3
F1
sg4
S'Q14#14'
p171
sg6
I2
sg7
F0.75
sa(dp172
g3
F2.25
sg4
S'Q14#15'
p173
sg6
I1
sg7
F1
sa(dp174
g3
F2
sg4
S'Q14#16'
p175
sg6
I4
sg7
F0.5
sa(dp176
g3
F2
sg4
S'Q14#18'
p177
sg6
I2
sg7
F0.25
sa(dp178
g3
F1.5
sg4
S'Q14#19'
p179
sg6
I1
sg7
F0.5
sa(dp180
g3
F2.25
sg4
S'Q16#4'
p181
sg6
I3
sg7
F1
sa(dp182
g3
F3.3333333333333335
sg4
S'Q16#5'
p183
sg6
I5
sg7
F1
sa(dp184
g3
F1
sg4
S'Q16#6'
p185
sg6
I3
sg7
F1
sa(dp186
g3
F1
sg4
S'Q16#8'
p187
sg6
I2
sg7
F0.75
sa(dp188
g3
F3
sg4
S'Q16#9'
p189
sg6
I2
sg7
F0.80000000000000004
sa(dp190
g3
F1.5
sg4
S'Q16#11'
p191
sg6
I3
sg7
F0.40000000000000002
sa(dp192
g3
I0
sg4
S'Q16#12'
p193
sg6
I2
sg7
F0
sa(dp194
g3
F1.3333333333333333
sg4
S'Q17#8'
p195
sg6
I3
sg7
F1
sa(dp196
g3
F1.6666666666666667
sg4
S'Q17#9'
p197
sg6
I2
sg7
F1
sa(dp198
g3
F1
sg4
S'Q18#0'
p199
sg6
I4
sg7
F0.80000000000000004
sa(dp200
g3
F2
sg4
S'Q18#2'
p201
sg6
I3
sg7
F1
sa(dp202
g3
F1
sg4
S'Q18#3'
p203
sg6
I3
sg7
F0.59999999999999998
sa(dp204
g3
F1.3333333333333333
sg4
S'Q18#5'
p205
sg6
I2
sg7
F0.59999999999999998
sa(dp206
g3
F1.5
sg4
S'Q18#7'
p207
sg6
I2
sg7
F1
sa(dp208
g3
F2
sg4
S'Q18#8'
p209
sg6
I2
sg7
F0.40000000000000002
sa(dp210
g3
F2
sg4
S'Q18#9'
p211
sg6
I1
sg7
F1
sa(dp212
g3
F2
sg4
S'Q19#0'
p213
sg6
I6
sg7
F1
sa(dp214
g3
F1.75
sg4
S'Q19#1'
p215
sg6
I6
sg7
F0.80000000000000004
sa(dp216
g3
F1.8
sg4
S'Q19#2'
p217
sg6
I3
sg7
F1
sa(dp218
g3
F3
sg4
S'Q19#4'
p219
sg6
I1
sg7
F1
sa(dp220
g3
F3
sg4
S'Q20#0'
p221
sg6
I1
sg7
F0.75
sa(dp222
g3
F1
sg4
S'Q20#1'
p223
sg6
I4
sg7
F0.25
sa(dp224
g3
F1
sg4
S'Q20#3'
p225
sg6
I4
sg7
F0.5
sa(dp226
g3
F1
sg4
S'Q20#4'
p227
sg6
I3
sg7
F0.75
sa(dp228
g3
F2
sg4
S'Q20#5'
p229
sg6
I1
sg7
F0.5
sa(dp230
g3
F1
sg4
S'Q20#7'
p231
sg6
I3
sg7
F0.5
sa(dp232
g3
F1.5
sg4
S'Q20#8'
p233
sg6
I4
sg7
F0.5
sa(dp234
g3
F1
sg4
S'Q20#9'
p235
sg6
I3
sg7
F0.25
sa(dp236
g3
F1
sg4
S'Q20#10'
p237
sg6
I2
sg7
F0.25
sa(dp238
g3
I0
sg4
S'Q21#5'
p239
sg6
I2
sg7
F0
sa(dp240
g3
F1
sg4
S'Q21#12'
p241
sg6
I2
sg7
F0.59999999999999998
sa(dp242
g3
F1
sg4
S'Q22#0'
p243
sg6
I6
sg7
F1
sa(dp244
g3
F1
sg4
S'Q22#1'
p245
sg6
I4
sg7
F1
sa(dp246
g3
F1
sg4
S'Q23#1'
p247
sg6
I2
sg7
F0.40000000000000002
sa(dp248
g3
F1
sg4
S'Q23#7'
p249
sg6
I3
sg7
F0.66666666666666663
sa(dp250
g3
F3.2000000000000002
sg4
S'Q23#9'
p251
sg6
I2
sg7
F1
sa(dp252
g3
F2.25
sg4
S'Q24#2'
p253
sg6
I6
sg7
F1
sa(dp254
g3
F7
sg4
S'Q24#3'
p255
sg6
I1
sg7
F0.33333333333333331
sa(dp256
g3
F2.3333333333333335
sg4
S'Q24#4'
p257
sg6
I4
sg7
F1
sa(dp258
g3
F2
sg4
S'Q24#5'
p259
sg6
I3
sg7
F1
sa(dp260
g3
F2
sg4
S'Q24#6'
p261
sg6
I7
sg7
F0.33333333333333331
sa(dp262
g3
F1
sg4
S'Q24#7'
p263
sg6
I4
sg7
F0.33333333333333331
sa(dp264
g3
F1
sg4
S'Q25#2'
p265
sg6
I7
sg7
F0.66666666666666663
sa(dp266
g3
F1
sg4
S'Q25#3'
p267
sg6
I3
sg7
F0.66666666666666663
sa(dp268
g3
F1
sg4
S'Q25#4'
p269
sg6
I4
sg7
F1
sa(dp270
g3
F2
sg4
S'Q25#6'
p271
sg6
I5
sg7
F0.66666666666666663
sa(dp272
g3
F2
sg4
S'Q26#0'
p273
sg6
I4
sg7
F0.25
sa(dp274
g3
F2
sg4
S'Q26#4'
p275
sg6
I1
sg7
F0.25
sa(dp276
g3
F2
sg4
S'Q26#5'
p277
sg6
I2
sg7
F0.25
sa(dp278
g3
F1.5
sg4
S'Q26#6'
p279
sg6
I1
sg7
F0.5
sa(dp280
g3
F2
sg4
S'Q26#7'
p281
sg6
I5
sg7
F0.25
sa(dp282
g3
F1.6666666666666667
sg4
S'Q26#8'
p283
sg6
I1
sg7
F0.75
sa(dp284
g3
F1.6666666666666667
sg4
S'Q26#9'
p285
sg6
I1
sg7
F0.75
sa(dp286
g3
F2
sg4
S'Q26#10'
p287
sg6
I2
sg7
F0.25
sa(dp288
g3
F2
sg4
S'Q26#11'
p289
sg6
I10
sg7
F0.25
sa(dp290
g3
F1.5
sg4
S'Q26#12'
p291
sg6
I3
sg7
F0.66666666666666663
sa(dp292
g3
F6.25
sg4
S'Q26#13'
p293
sg6
I13
sg7
F1
sa(dp294
g3
F1.6666666666666667
sg4
S'Q26#14'
p295
sg6
I9
sg7
F0.75
sa(dp296
g3
F2
sg4
S'Q26#16'
p297
sg6
I3
sg7
F0.25
sa(dp298
g3
F2
sg4
S'Q26#18'
p299
sg6
I4
sg7
F0.25
sa(dp300
g3
F1.5
sg4
S'Q27#2'
p301
sg6
I2
sg7
F0.5
sa(dp302
g3
F1
sg4
S'Q27#5'
p303
sg6
I4
sg7
F0.40000000000000002
sa(dp304
g3
F2.6666666666666665
sg4
S'Q28#6'
p305
sg6
I1
sg7
F0.75
sa(dp306
g3
F2
sg4
S'Q28#7'
p307
sg6
I1
sg7
F0.20000000000000001
sa(dp308
g3
F1
sg4
S'Q28#8'
p309
sg6
I1
sg7
F0.20000000000000001
sa(dp310
g3
F1.8
sg4
S'Q28#10'
p311
sg6
I4
sg7
F1
sa(dp312
g3
F2
sg4
S'Q28#16'
p313
sg6
I4
sg7
F0.5
sa(dp314
g3
F2.2000000000000002
sg4
S'Q28#18'
p315
sg6
I3
sg7
F1
sa(dp316
g3
I0
sg4
S'Q28#19'
p317
sg6
I2
sg7
F0
sa(dp318
g3
I0
sg4
S'Q28#20'
p319
sg6
I3
sg7
F0
sa(dp320
g3
F1.5
sg4
S'Q29#0'
p321
sg6
I8
sg7
F1
sa(dp322
g3
F1
sg4
S'Q29#4'
p323
sg6
I3
sg7
F0.20000000000000001
sa(dp324
g3
I0
sg4
S'Q29#5'
p325
sg6
I1
sg7
F0
sa(dp326
g3
F2
sg4
S'Q29#8'
p327
sg6
I7
sg7
F0.40000000000000002
sa(dp328
g3
F1
sg4
S'Q29#10'
p329
sg6
I5
sg7
F0.25
sa(dp330
g3
I0
sg4
S'Q30#4'
p331
sg6
I1
sg7
F0
sa(dp332
g3
F1
sg4
S'Q30#5'
p333
sg6
I4
sg7
F0.20000000000000001
sa(dp334
g3
F1
sg4
S'Q30#9'
p335
sg6
I8
sg7
F1
sa(dp336
g3
F1.6666666666666667
sg4
S'Q31#0'
p337
sg6
I3
sg7
F0.59999999999999998
sa(dp338
g3
F2
sg4
S'Q31#2'
p339
sg6
I2
sg7
F0.20000000000000001
sa(dp340
g3
F2
sg4
S'Q31#8'
p341
sg6
I2
sg7
F0.40000000000000002
sa(dp342
g3
F1
sg4
S'Q31#9'
p343
sg6
I1
sg7
F0.20000000000000001
sa(dp344
g3
F2.75
sg4
S'Q31#11'
p345
sg6
I3
sg7
F0.80000000000000004
sa(dp346
g3
F1
sg4
S'Q32#0'
p347
sg6
I3
sg7
F0.75
sa(dp348
g3
F1
sg4
S'Q32#1'
p349
sg6
I1
sg7
F0.5
sa(dp350
g3
F1.6666666666666667
sg4
S'Q32#2'
p351
sg6
I2
sg7
F0.75
sa(dp352
g3
F1.3333333333333333
sg4
S'Q32#4'
p353
sg6
I1
sg7
F0.75
sa(dp354
g3
F2.3333333333333335
sg4
S'Q32#5'
p355
sg6
I5
sg7
F0.75
sa(dp356
g3
I0
sg4
S'Q32#6'
p357
sg6
I1
sg7
F0
sa(dp358
g3
F2.75
sg4
S'Q32#7'
p359
sg6
I4
sg7
F1
sa(dp360
g3
F4.25
sg4
S'Q32#8'
p361
sg6
I1
sg7
F1
sa(dp362
g3
F3.3333333333333335
sg4
S'Q32#10'
p363
sg6
I2
sg7
F0.75
sa(dp364
g3
F2.3333333333333335
sg4
S'Q34#0'
p365
sg6
I1
sg7
F0.75
sa(dp366
g3
F2.3333333333333335
sg4
S'Q34#1'
p367
sg6
I2
sg7
F0.75
sa(dp368
g3
F2
sg4
S'Q34#3'
p369
sg6
I2
sg7
F0.5
sa(dp370
g3
F3
sg4
S'Q34#4'
p371
sg6
I3
sg7
F0.25
sa(dp372
g3
F5
sg4
S'Q34#5'
p373
sg6
I15
sg7
F1
sa(dp374
g3
F2.25
sg4
S'Q34#9'
p375
sg6
I1
sg7
F1
sa(dp376
g3
F1.25
sg4
S'Q34#10'
p377
sg6
I5
sg7
F1
sa(dp378
g3
F2
sg4
S'Q34#11'
p379
sg6
I4
sg7
F0.75
sa(dp380
g3
F1
sg4
S'Q34#12'
p381
sg6
I3
sg7
F0.75
sa(dp382
g3
F1.3333333333333333
sg4
S'Q34#13'
p383
sg6
I4
sg7
F0.75
sa(dp384
g3
F2.5
sg4
S'Q34#15'
p385
sg6
I26
sg7
F0.5
sa(dp386
g3
F2
sg4
S'Q34#18'
p387
sg6
I22
sg7
F1
sa(dp388
g3
F1
sg4
S'Q34#19'
p389
sg6
I7
sg7
F0.75
sa(dp390
g3
F2
sg4
S'Q35#1'
p391
sg6
I3
sg7
F0.5
sa(dp392
g3
F3.7999999999999998
sg4
S'Q35#6'
p393
sg6
I4
sg7
F1
sa(dp394
g3
F2
sg4
S'Q35#13'
p395
sg6
I6
sg7
F1
sa(dp396
g3
F1
sg4
S'Q35#14'
p397
sg6
I4
sg7
F0.80000000000000004
sa(dp398
g3
F3
sg4
S'Q35#16'
p399
sg6
I4
sg7
F1
sa(dp400
g3
F1
sg4
S'Q35#17'
p401
sg6
I4
sg7
F1
sa(dp402
g3
F1
sg4
S'Q36#2'
p403
sg6
I3
sg7
F1
sa(dp404
g3
F1
sg4
S'Q36#8'
p405
sg6
I4
sg7
F0.5
sa(dp406
g3
F1
sg4
S'Q36#11'
p407
sg6
I3
sg7
F0.33333333333333331
sa(dp408
g3
F2.5
sg4
S'Q37#2'
p409
sg6
I2
sg7
F0.40000000000000002
sa(dp410
g3
F2.75
sg4
S'Q37#8'
p411
sg6
I7
sg7
F1
sa(dp412
g3
F2.5
sg4
S'Q37#14'
p413
sg6
I3
sg7
F0.5
sa(dp414
g3
F3
sg4
S'Q37#15'
p415
sg6
I2
sg7
F0.33333333333333331
sa(dp416
g3
F1.6666666666666667
sg4
S'Q37#17'
p417
sg6
I2
sg7
F0.59999999999999998
sa(dp418
g3
F2.5
sg4
S'Q37#18'
p419
sg6
I1
sg7
F0.40000000000000002
sa(dp420
g3
F1
sg4
S'Q39#0'
p421
sg6
I2
sg7
F0.66666666666666663
sa(dp422
g3
F4.666666666666667
sg4
S'Q39#1'
p423
sg6
I15
sg7
F1
sa(dp424
g3
F2
sg4
S'Q39#4'
p425
sg6
I3
sg7
F0.33333333333333331
sa(dp426
g3
F6.666666666666667
sg4
S'Q39#5'
p427
sg6
I11
sg7
F1
sa(dp428
g3
F3
sg4
S'Q39#6'
p429
sg6
I12
sg7
F1
sa(dp430
g3
F2
sg4
S'Q39#7'
p431
sg6
I3
sg7
F0.25
sa(dp432
g3
F1
sg4
S'Q40#2'
p433
sg6
I3
sg7
F1
sa(dp434
g3
F1
sg4
S'Q40#3'
p435
sg6
I2
sg7
F1
sa(dp436
g3
F1.25
sg4
S'Q40#4'
p437
sg6
I1
sg7
F0.80000000000000004
sa(dp438
g3
F1
sg4
S'Q40#6'
p439
sg6
I2
sg7
F1
sa(dp440
g3
F1.6666666666666667
sg4
S'Q40#7'
p441
sg6
I4
sg7
F1
sa(dp442
g3
F3
sg4
S'Q40#8'
p443
sg6
I3
sg7
F0.66666666666666663
sa(dp444
g3
F1
sg4
S'Q40#9'
p445
sg6
I3
sg7
F0.75
sa(dp446
g3
F1.3333333333333333
sg4
S'Q41#8'
p447
sg6
I1
sg7
F0.59999999999999998
sa(dp448
g3
F1
sg4
S'Q41#9'
p449
sg6
I7
sg7
F0.40000000000000002
sa(dp450
g3
F1
sg4
S'Q41#12'
p451
sg6
I3
sg7
F0.80000000000000004
sa(dp452
g3
F1
sg4
S'Q42#6'
p453
sg6
I3
sg7
F1
sa(dp454
g3
F1
sg4
S'Q42#7'
p455
sg6
I4
sg7
F1
sa(dp456
g3
F1
sg4
S'Q42#8'
p457
sg6
I3
sg7
F1
sa(dp458
g3
F1
sg4
S'Q42#9'
p459
sg6
I5
sg7
F1
sa(dp460
g3
F2
sg4
S'Q42#11'
p461
sg6
I2
sg7
F0.20000000000000001
sa(dp462
g3
F2
sg4
S'Q42#17'
p463
sg6
I4
sg7
F0.40000000000000002
sa(dp464
g3
F1
sg4
S'Q42#19'
p465
sg6
I3
sg7
F0.66666666666666663
sa(dp466
g3
F1.6000000000000001
sg4
S'Q44#6'
p467
sg6
I5
sg7
F1
sa(dp468
g3
F2
sg4
S'Q44#8'
p469
sg6
I4
sg7
F0.80000000000000004
sa(dp470
g3
F1.5
sg4
S'Q44#9'
p471
sg6
I6
sg7
F0.40000000000000002
sa(dp472
g3
F2
sg4
S'Q45#0'
p473
sg6
I6
sg7
F1
sa(dp474
g3
F1
sg4
S'Q45#6'
p475
sg6
I1
sg7
F0.59999999999999998
sa(dp476
g3
F2
sg4
S'Q45#8'
p477
sg6
I4
sg7
F0.33333333333333331
sa(dp478
g3
F3
sg4
S'Q45#9'
p479
sg6
I5
sg7
F1
sa(dp480
g3
F2.3333333333333335
sg4
S'Q45#10'
p481
sg6
I2
sg7
F1
sa(dp482
g3
F1
sg4
S'Q45#11'
p483
sg6
I3
sg7
F0.5
sa(dp484
g3
F1
sg4
S'Q45#14'
p485
sg6
I4
sg7
F1
sa(dp486
g3
F2
sg4
S'Q46#3'
p487
sg6
I2
sg7
F0.25
sa(dp488
g3
F1
sg4
S'Q46#6'
p489
sg6
I3
sg7
F0.66666666666666663
sa(dp490
g3
F1.6666666666666667
sg4
S'Q46#8'
p491
sg6
I3
sg7
F0.59999999999999998
sa(dp492
g3
F1.3333333333333333
sg4
S'Q46#9'
p493
sg6
I3
sg7
F1
sa(dp494
g3
F1.5
sg4
S'Q46#13'
p495
sg6
I1
sg7
F0.5
sa(dp496
g3
F1
sg4
S'Q47#0'
p497
sg6
I2
sg7
F0.75
sa(dp498
g3
F2
sg4
S'Q47#2'
p499
sg6
I4
sg7
F0.33333333333333331
sa(dp500
g3
F2
sg4
S'Q47#5'
p501
sg6
I3
sg7
F0.5
sa(dp502
g3
F2
sg4
S'Q47#7'
p503
sg6
I1
sg7
F0.80000000000000004
sa(dp504
g3
F4.25
sg4
S'Q47#14'
p505
sg6
I2
sg7
F1
sa(dp506
g3
F1
sg4
S'Q47#16'
p507
sg6
I1
sg7
F0.25
sa(dp508
g3
F1
sg4
S'Q47#17'
p509
sg6
I3
sg7
F0.59999999999999998
sa(dp510
g3
F1
sg4
S'Q48#0'
p511
sg6
I4
sg7
F0.75
sa(dp512
g3
F1.3333333333333333
sg4
S'Q48#1'
p513
sg6
I2
sg7
F0.59999999999999998
sa(dp514
g3
F2
sg4
S'Q48#6'
p515
sg6
I3
sg7
F0.66666666666666663
sa(dp516
g3
F2
sg4
S'Q48#7'
p517
sg6
I6
sg7
F0.20000000000000001
sa(dp518
g3
F2
sg4
S'Q49#0'
p519
sg6
I4
sg7
F0.25
sa(dp520
g3
F1.5
sg4
S'Q49#1'
p521
sg6
I2
sg7
F0.5
sa(dp522
g3
F2
sg4
S'Q49#2'
p523
sg6
I3
sg7
F0.66666666666666663
sa(dp524
g3
F2
sg4
S'Q49#3'
p525
sg6
I2
sg7
F0.25
sa(dp526
g3
I0
sg4
S'Q49#4'
p527
sg6
I6
sg7
F0
sa(dp528
g3
F1.3333333333333333
sg4
S'Q50#0'
p529
sg6
I2
sg7
F0.75
sa(dp530
g3
F1.6666666666666667
sg4
S'Q50#1'
p531
sg6
I4
sg7
F0.75
sa(dp532
g3
F2.6666666666666665
sg4
S'Q50#3'
p533
sg6
I8
sg7
F0.75
sa(dp534
g3
F2
sg4
S'Q50#4'
p535
sg6
I2
sg7
F0.5
sa(dp536
g3
F3.3333333333333335
sg4
S'Q50#5'
p537
sg6
I5
sg7
F1
sa(dp538
g3
F1
sg4
S'Q50#8'
p539
sg6
I2
sg7
F1
sa(dp540
g3
F2.3333333333333335
sg4
S'Q50#9'
p541
sg6
I2
sg7
F0.75
sa(dp542
g3
F2
sg4
S'Q50#12'
p543
sg6
I1
sg7
F0.5
sa(dp544
g3
F1.5
sg4
S'Q50#14'
p545
sg6
I2
sg7
F0.5
sa(dp546
g3
F2
sg4
S'Q50#16'
p547
sg6
I3
sg7
F0.75
sa(dp548
g3
F2
sg4
S'Q50#17'
p549
sg6
I2
sg7
F0.5
sa(dp550
g3
F1.5
sg4
S'Q54#0'
p551
sg6
I3
sg7
F1
sa(dp552
g3
F1
sg4
S'Q54#4'
p553
sg6
I3
sg7
F0.5
sa(dp554
g3
F1.6000000000000001
sg4
S'Q55#1'
p555
sg6
I4
sg7
F1
sa(dp556
g3
F1.5
sg4
S'Q55#2'
p557
sg6
I8
sg7
F0.80000000000000004
sa(dp558
g3
I0
sg4
S'Q55#3'
p559
sg6
I8
sg7
F0
sa(dp560
g3
F1
sg4
S'Q55#4'
p561
sg6
I4
sg7
F0.80000000000000004
sa(dp562
g3
F1
sg4
S'Q55#9'
p563
sg6
I4
sg7
F0.33333333333333331
sa(dp564
g3
F1.6000000000000001
sg4
S'Q55#12'
p565
sg6
I2
sg7
F1
sa(dp566
g3
F2.25
sg4
S'Q55#13'
p567
sg6
I2
sg7
F0.80000000000000004
sa(dp568
g3
F1
sg4
S'Q55#14'
p569
sg6
I4
sg7
F0.80000000000000004
sa(dp570
g3
F1.6000000000000001
sg4
S'Q56#0'
p571
sg6
I2
sg7
F1
sa(dp572
g3
F2
sg4
S'Q56#1'
p573
sg6
I2
sg7
F0.59999999999999998
sa(dp574
g3
F2.25
sg4
S'Q56#6'
p575
sg6
I2
sg7
F0.80000000000000004
sa(dp576
g3
F3.75
sg4
S'Q57#0'
p577
sg6
I1
sg7
F1
sa(dp578
g3
F1.5
sg4
S'Q57#1'
p579
sg6
I3
sg7
F0.5
sa(dp580
g3
F1
sg4
S'Q57#2'
p581
sg6
I2
sg7
F0.25
sa(dp582
g3
F1
sg4
S'Q57#3'
p583
sg6
I2
sg7
F1
sa(dp584
g3
F1
sg4
S'Q57#4'
p585
sg6
I2
sg7
F0.75
sa(dp586
g3
F3.3999999999999999
sg4
S'Q58#1'
p587
sg6
I2
sg7
F1
sa(dp588
g3
F1.3333333333333333
sg4
S'Q58#2'
p589
sg6
I5
sg7
F0.59999999999999998
sa(dp590
g3
F3
sg4
S'Q58#3'
p591
sg6
I6
sg7
F1
sa(dp592
g3
F4.666666666666667
sg4
S'Q58#6'
p593
sg6
I3
sg7
F1
sa(dp594
g3
I0
sg4
S'Q59#0'
p595
sg6
I2
sg7
F0
sa(dp596
g3
F5
sg4
S'Q59#2'
p597
sg6
I1
sg7
F1
sa(dp598
g3
F7
sg4
S'Q59#3'
p599
sg6
I2
sg7
F1
sa(dp600
g3
F1.5
sg4
S'Q59#5'
p601
sg6
I6
sg7
F1
sa(dp602
g3
F1.5
sg4
S'Q59#6'
p603
sg6
I7
sg7
F1
sa(dp604
g3
F1.3333333333333333
sg4
S'Q59#7'
p605
sg6
I2
sg7
F0.75
sa(dp606
g3
F3.6666666666666665
sg4
S'Q59#8'
p607
sg6
I2
sg7
F0.75
sa(dp608
g3
F2
sg4
S'Q59#9'
p609
sg6
I3
sg7
F0.33333333333333331
sa(dp610
g3
F2.6666666666666665
sg4
S'Q59#10'
p611
sg6
I2
sg7
F0.75
sa(dp612
g3
F2.25
sg4
S'Q60#3'
p613
sg6
I2
sg7
F0.80000000000000004
sa(dp614
g3
F2.25
sg4
S'Q60#6'
p615
sg6
I4
sg7
F1
sa(dp616
g3
F2.5
sg4
S'Q60#16'
p617
sg6
I3
sg7
F0.80000000000000004
sa(dp618
g3
F2
sg4
S'Q61#1'
p619
sg6
I2
sg7
F0.5
sa(dp620
g3
F3.25
sg4
S'Q61#3'
p621
sg6
I3
sg7
F1
sa(dp622
g3
F2
sg4
S'Q61#16'
p623
sg6
I5
sg7
F0.66666666666666663
sa(dp624
g3
F2.5
sg4
S'Q61#18'
p625
sg6
I3
sg7
F0.66666666666666663
sa(dp626
g3
F2.3333333333333335
sg4
S'Q61#19'
p627
sg6
I3
sg7
F0.75
sa(dp628
g3
F1.5
sg4
S'Q62#1'
p629
sg6
I3
sg7
F0.66666666666666663
sa(dp630
g3
F1
sg4
S'Q62#3'
p631
sg6
I5
sg7
F0.66666666666666663
sa(dp632
g3
F2
sg4
S'Q63#0'
p633
sg6
I3
sg7
F0.33333333333333331
sa(dp634
g3
F4.75
sg4
S'Q63#1'
p635
sg6
I1
sg7
F1
sa(dp636
g3
F2
sg4
S'Q63#2'
p637
sg6
I1
sg7
F0.5
sa(dp638
g3
I0
sg4
S'Q63#5'
p639
sg6
I2
sg7
F0
sa(dp640
g3
I0
sg4
S'Q63#11'
p641
sg6
I2
sg7
F0
sa(dp642
g3
F1.75
sg4
S'Q63#12'
p643
sg6
I1
sg7
F0.80000000000000004
sa(dp644
g3
F2.2000000000000002
sg4
S'Q63#13'
p645
sg6
I6
sg7
F1
sa(dp646
g3
F2
sg4
S'Q64#10'
p647
sg6
I3
sg7
F0.59999999999999998
sa(dp648
g3
F1.5
sg4
S'Q64#11'
p649
sg6
I2
sg7
F0.5
sa(dp650
g3
F3
sg4
S'Q65#1'
p651
sg6
I5
sg7
F1
sa(dp652
g3
F2.3333333333333335
sg4
S'Q65#2'
p653
sg6
I4
sg7
F1
sa(dp654
g3
I0
sg4
S'Q65#3'
p655
sg6
I2
sg7
F0
sa(dp656
g3
F2.5
sg4
S'Q65#4'
p657
sg6
I3
sg7
F0.66666666666666663
sa(dp658
g3
F1.6666666666666667
sg4
S'Q65#5'
p659
sg6
I3
sg7
F1
sa(dp660
g3
F2.3333333333333335
sg4
S'Q65#6'
p661
sg6
I3
sg7
F1
sa(dp662
g3
F1.5
sg4
S'Q65#8'
p663
sg6
I1
sg7
F0.66666666666666663
sa(dp664
g3
F2
sg4
S'Q65#12'
p665
sg6
I4
sg7
F0.5
sa(dp666
g3
F3.3333333333333335
sg4
S'Q65#15'
p667
sg6
I4
sg7
F1
sa(dp668
g3
F1
sg4
S'Q65#17'
p669
sg6
I5
sg7
F0.66666666666666663
sa(dp670
g3
F1.6666666666666667
sg4
S'Q65#18'
p671
sg6
I3
sg7
F1
sa(dp672
g3
F1
sg4
S'Q65#19'
p673
sg6
I4
sg7
F0.80000000000000004
sa(dp674
g3
F1
sg4
S'Q66#3'
p675
sg6
I4
sg7
F0.66666666666666663
sa(dp676
g3
F2
sg4
S'Q66#4'
p677
sg6
I3
sg7
F0.66666666666666663
sa(dp678
g3
F2
sg4
S'Q66#6'
p679
sg6
I4
sg7
F0.25
sa(dp680
g3
F2
sg4
S'Q66#8'
p681
sg6
I3
sg7
F0.33333333333333331
sa(dp682
g3
F3
sg4
S'Q66#9'
p683
sg6
I5
sg7
F1
sa(dp684
g3
F1.6666666666666667
sg4
S'Q66#11'
p685
sg6
I8
sg7
F1
sa(dp686
g3
F2
sg4
S'Q66#14'
p687
sg6
I4
sg7
F0.40000000000000002
sa(dp688
g3
F2
sg4
S'Q66#15'
p689
sg6
I3
sg7
F0.25
sa(dp690
g3
F1.6666666666666667
sg4
S'Q67#2'
p691
sg6
I2
sg7
F1
sa(dp692
g3
F3.5
sg4
S'Q67#7'
p693
sg6
I5
sg7
F0.66666666666666663
sa(dp694
g3
F2
sg4
S'Q67#9'
p695
sg6
I1
sg7
F0.5
sa(dp696
g3
F3.75
sg4
S'Q67#11'
p697
sg6
I3
sg7
F1
sa(dp698
g3
F1
sg4
S'Q67#14'
p699
sg6
I7
sg7
F0.66666666666666663
sa(dp700
g3
F1
sg4
S'Q67#15'
p701
sg6
I8
sg7
F0.66666666666666663
sa(dp702
g3
F1
sg4
S'Q68#4'
p703
sg6
I1
sg7
F0.33333333333333331
sa(dp704
g3
F1.2
sg4
S'Q68#5'
p705
sg6
I1
sg7
F1
sa(dp706
g3
F1.5
sg4
S'Q68#16'
p707
sg6
I5
sg7
F0.40000000000000002
sa(dp708
g3
F2
sg4
S'Q68#17'
p709
sg6
I5
sg7
F0.33333333333333331
sa(dp710
g3
F1.5
sg4
S'Q68#19'
p711
sg6
I5
sg7
F0.66666666666666663
sa(dp712
g3
F3
sg4
S'Q68#20'
p713
sg6
I6
sg7
F1
sa(dp714
g3
F2
sg4
S'Q68#21'
p715
sg6
I3
sg7
F0.25
sa(dp716
g3
F2
sg4
S'Q68#22'
p717
sg6
I1
sg7
F0.33333333333333331
sa(dp718
g3
I0
sg4
S'Q68#31'
p719
sg6
I2
sg7
F0
sa(dp720
g3
F1.6666666666666667
sg4
S'Q69#0'
p721
sg6
I2
sg7
F0.75
sa(dp722
g3
F1.25
sg4
S'Q69#1'
p723
sg6
I1
sg7
F1
sa(dp724
g3
F2
sg4
S'Q69#2'
p725
sg6
I5
sg7
F0.75
sa(dp726
g3
F2
sg4
S'Q69#3'
p727
sg6
I2
sg7
F0.33333333333333331
sa(dp728
g3
F2
sg4
S'Q69#4'
p729
sg6
I6
sg7
F0.25
sa(dp730
g3
F1.75
sg4
S'Q69#5'
p731
sg6
I5
sg7
F1
sa(dp732
g3
F1.25
sg4
S'Q69#6'
p733
sg6
I3
sg7
F1
sa(dp734
g3
F2
sg4
S'Q69#9'
p735
sg6
I4
sg7
F0.5
sa(dp736
g3
F2
sg4
S'Q70#0'
p737
sg6
I1
sg7
F0.40000000000000002
sa(dp738
g3
F2
sg4
S'Q70#3'
p739
sg6
I4
sg7
F0.75
sa(dp740
g3
F2
sg4
S'Q70#4'
p741
sg6
I3
sg7
F0.59999999999999998
sa(dp742
g3
F1.75
sg4
S'Q70#5'
p743
sg6
I3
sg7
F0.80000000000000004
sa(dp744
g3
F2
sg4
S'Q70#8'
p745
sg6
I1
sg7
F0.59999999999999998
sa(dp746
g3
F1.3333333333333333
sg4
S'Q70#10'
p747
sg6
I4
sg7
F0.59999999999999998
sa(dp748
g3
F1.25
sg4
S'Q70#11'
p749
sg6
I3
sg7
F0.80000000000000004
sa(dp750
g3
F1.6666666666666667
sg4
S'Q70#12'
p751
sg6
I3
sg7
F0.75
sa(dp752
g3
F3
sg4
S'Q70#14'
p753
sg6
I3
sg7
F1
sa(dp754
g3
F1
sg4
S'Q71#1'
p755
sg6
I2
sg7
F0.80000000000000004
sa(dp756
g3
F1
sg4
S'Q72#2'
p757
sg6
I2
sg7
F0.75
sa(dp758
g3
F1
sg4
S'Q72#4'
p759
sg6
I4
sg7
F0.5
sa(dp760
g3
F1
sg4
S'Q72#6'
p761
sg6
I6
sg7
F0.75
sa(dp762
g3
F2.75
sg4
S'Q72#7'
p763
sg6
I8
sg7
F1
sa(dp764
g3
F1
sg4
S'Q72#9'
p765
sg6
I4
sg7
F0.5
sa(dp766
g3
F1.5
sg4
S'Q72#11'
p767
sg6
I2
sg7
F1
sa(dp768
g3
F1
sg4
S'Q73#0'
p769
sg6
I6
sg7
F1
sa(dp770
g3
F1.3999999999999999
sg4
S'Q73#1'
p771
sg6
I4
sg7
F1
sa(dp772
g3
F1
sg4
S'Q73#3'
p773
sg6
I2
sg7
F1
sa(dp774
g3
F1
sg4
S'Q73#4'
p775
sg6
I4
sg7
F0.80000000000000004
sa(dp776
g3
F1
sg4
S'Q73#8'
p777
sg6
I3
sg7
F0.40000000000000002
sa(dp778
g3
F1
sg4
S'Q73#9'
p779
sg6
I2
sg7
F0.40000000000000002
sa(dp780
g3
F1
sg4
S'Q74#1'
p781
sg6
I3
sg7
F0.25
sa(dp782
g3
F1
sg4
S'Q74#2'
p783
sg6
I3
sg7
F0.25
sa(dp784
g3
F1
sg4
S'Q74#4'
p785
sg6
I4
sg7
F0.25
sa(dp786
g3
F2
sg4
S'Q74#6'
p787
sg6
I2
sg7
F1
sa(dp788
g3
I0
sg4
S'Q74#7'
p789
sg6
I5
sg7
F0
sa(dp790
g3
F1
sg4
S'Q76#0'
p791
sg6
I1
sg7
F0.5
sa(dp792
g3
F2
sg4
S'Q76#3'
p793
sg6
I3
sg7
F1
sa(dp794
g3
F1
sg4
S'Q76#4'
p795
sg6
I6
sg7
F0.5
sa(dp796
g3
I0
sg4
S'Q77#0'
p797
sg6
I1
sg7
F0
sa(dp798
g3
F2
sg4
S'Q77#7'
p799
sg6
I2
sg7
F1
sa(dp800
g3
F2
sg4
S'Q77#8'
p801
sg6
I1
sg7
F1
sa(dp802
g3
F2
sg4
S'Q77#9'
p803
sg6
I3
sg7
F0.33333333333333331
sa(dp804
g3
I0
sg4
S'Q78#1'
p805
sg6
I1
sg7
F0
sa(dp806
g3
I0
sg4
S'Q78#5'
p807
sg6
I2
sg7
F0
sa(dp808
g3
I0
sg4
S'Q78#10'
p809
sg6
I1
sg7
F0
sa(dp810
g3
F2.3333333333333335
sg4
S'Q78#11'
p811
sg6
I2
sg7
F1
sa(dp812
g3
I0
sg4
S'Q78#12'
p813
sg6
I2
sg7
F0
sa(dp814
g3
F4.5
sg4
S'Q78#16'
p815
sg6
I7
sg7
F1
sa(dp816
g3
F3.5
sg4
S'Q79#3'
p817
sg6
I1
sg7
F1
sa(dp818
g3
F3.25
sg4
S'Q79#10'
p819
sg6
I3
sg7
F1
sa(dp820
g3
F1
sg4
S'Q79#14'
p821
sg6
I1
sg7
F0.25
sa(dp822
g3
F1
sg4
S'Q79#17'
p823
sg6
I2
sg7
F0.66666666666666663
sa(dp824
g3
I0
sg4
S'Q80#0'
p825
sg6
I5
sg7
F0
sa(dp826
g3
F2
sg4
S'Q80#7'
p827
sg6
I4
sg7
F0.40000000000000002
sa(dp828
g3
I0
sg4
S'Q80#9'
p829
sg6
I1
sg7
F0
sa(dp830
g3
I0
sg4
S'Q80#10'
p831
sg6
I1
sg7
F0
sa(dp832
g3
F1.5
sg4
S'Q80#11'
p833
sg6
I2
sg7
F0.40000000000000002
sa(dp834
g3
F2
sg4
S'Q80#16'
p835
sg6
I2
sg7
F1
sa(dp836
g3
F1
sg4
S'Q81#0'
p837
sg6
I3
sg7
F0.5
sa(dp838
g3
F1
sg4
S'Q81#1'
p839
sg6
I10
sg7
F0.75
sa(dp840
g3
F1.75
sg4
S'Q81#2'
p841
sg6
I7
sg7
F1
sa(dp842
g3
I0
sg4
S'Q81#3'
p843
sg6
I7
sg7
F0
sa(dp844
g3
F2.6666666666666665
sg4
S'Q81#5'
p845
sg6
I4
sg7
F0.75
sa(dp846
g3
F3
sg4
S'Q81#6'
p847
sg6
I1
sg7
F1
sa(dp848
g3
F2.75
sg4
S'Q81#7'
p849
sg6
I2
sg7
F1
sa(dp850
g3
F1
sg4
S'Q81#8'
p851
sg6
I2
sg7
F0.25
sa(dp852
g3
F1
sg4
S'Q81#9'
p853
sg6
I2
sg7
F0.25
sa(dp854
g3
F6
sg4
S'Q83#2'
p855
sg6
I1
sg7
F1
sa(dp856
g3
F2
sg4
S'Q83#3'
p857
sg6
I3
sg7
F0.33333333333333331
sa(dp858
g3
F2
sg4
S'Q83#4'
p859
sg6
I14
sg7
F0.25
sa(dp860
g3
F1.5
sg4
S'Q83#5'
p861
sg6
I2
sg7
F0.5
sa(dp862
g3
I0
sg4
S'Q83#6'
p863
sg6
I2
sg7
F0
sa(dp864
g3
F2
sg4
S'Q83#7'
p865
sg6
I4
sg7
F0.25
sa(dp866
g3
F3.2000000000000002
sg4
S'Q84#0'
p867
sg6
I2
sg7
F1
sa(dp868
g3
F1
sg4
S'Q84#2'
p869
sg6
I3
sg7
F0.59999999999999998
sa(dp870
g3
F2
sg4
S'Q84#3'
p871
sg6
I2
sg7
F0.40000000000000002
sa(dp872
g3
F1.3333333333333333
sg4
S'Q85#0'
p873
sg6
I3
sg7
F0.59999999999999998
sa(dp874
g3
F1.5
sg4
S'Q85#2'
p875
sg6
I1
sg7
F0.80000000000000004
sa(dp876
g3
F1.5
sg4
S'Q85#5'
p877
sg6
I4
sg7
F0.40000000000000002
sa(dp878
g3
I0
sg4
S'Q85#7'
p879
sg6
I3
sg7
F0
sa(dp880
g3
F1.6666666666666667
sg4
S'Q86#0'
p881
sg6
I1
sg7
F0.59999999999999998
sa(dp882
g3
F1.6666666666666667
sg4
S'Q86#5'
p883
sg6
I3
sg7
F0.75
sa(dp884
g3
I0
sg4
S'Q86#6'
p885
sg6
I2
sg7
F0
sa(dp886
g3
F1
sg4
S'Q86#12'
p887
sg6
I3
sg7
F0.20000000000000001
sa(dp888
g3
F1.5
sg4
S'Q86#13'
p889
sg6
I7
sg7
F0.5
sa(dp890
g3
F2
sg4
S'Q86#16'
p891
sg6
I1
sg7
F0.25
sa(dp892
g3
F1
sg4
S'Q86#17'
p893
sg6
I6
sg7
F0.40000000000000002
sa(dp894
g3
F1
sg4
S'Q86#20'
p895
sg6
I1
sg7
F0.5
sa(dp896
g3
F1
sg4
S'Q86#22'
p897
sg6
I3
sg7
F0.80000000000000004
sa(dp898
g3
F1.6666666666666667
sg4
S'Q87#2'
p899
sg6
I5
sg7
F0.75
sa(dp900
g3
F2.25
sg4
S'Q87#3'
p901
sg6
I4
sg7
F1
sa(dp902
g3
F1.6666666666666667
sg4
S'Q87#4'
p903
sg6
I3
sg7
F0.75
sa(dp904
g3
F1.5
sg4
S'Q87#6'
p905
sg6
I7
sg7
F0.5
sa(dp906
g3
F1.5
sg4
S'Q87#7'
p907
sg6
I2
sg7
F0.5
sa(dp908
g3
F2
sg4
S'Q87#8'
p909
sg6
I2
sg7
F0.5
sa(dp910
g3
F2
sg4
S'Q87#9'
p911
sg6
I3
sg7
F0.25
sa(dp912
g3
F2
sg4
S'Q87#11'
p913
sg6
I4
sg7
F0.25
sa(dp914
g3
F1.5
sg4
S'Q87#12'
p915
sg6
I2
sg7
F0.5
sa(dp916
g3
F2
sg4
S'Q87#14'
p917
sg6
I1
sg7
F0.5
sa(dp918
g3
F2
sg4
S'Q88#1'
p919
sg6
I3
sg7
F1
sa(dp920
g3
F1.2
sg4
S'Q88#2'
p921
sg6
I3
sg7
F1
sa(dp922
g3
F2
sg4
S'Q88#9'
p923
sg6
I2
sg7
F1
sa(dp924
g3
F1.5
sg4
S'Q88#14'
p925
sg6
I3
sg7
F0.40000000000000002
sa(dp926
g3
F1
sg4
S'Q88#15'
p927
sg6
I3
sg7
F0.20000000000000001
sa(dp928
g3
F1.3333333333333333
sg4
S'Q89#2'
p929
sg6
I3
sg7
F0.59999999999999998
sa(dp930
g3
F2
sg4
S'Q89#5'
p931
sg6
I2
sg7
F1
sa(dp932
g3
F1
sg4
S'Q89#7'
p933
sg6
I2
sg7
F0.59999999999999998
sa(dp934
g3
F1
sg4
S'Q89#15'
p935
sg6
I4
sg7
F0.40000000000000002
sa(dp936
g3
F1
sg4
S'Q89#17'
p937
sg6
I1
sg7
F0.66666666666666663
sa(dp938
g3
F1.5
sg4
S'Q91#2'
p939
sg6
I1
sg7
F0.80000000000000004
sa(dp940
g3
F2.25
sg4
S'Q91#6'
p941
sg6
I2
sg7
F0.80000000000000004
sa(dp942
g3
F1
sg4
S'Q91#7'
p943
sg6
I3
sg7
F0.5
sa(dp944
g3
F1
sg4
S'Q91#10'
p945
sg6
I3
sg7
F1
sa(dp946
g3
F1.6000000000000001
sg4
S'Q91#11'
p947
sg6
I3
sg7
F1
sa(dp948
g3
F1
sg4
S'Q91#12'
p949
sg6
I3
sg7
F0.80000000000000004
sa(dp950
g3
F1
sg4
S'Q91#13'
p951
sg6
I3
sg7
F0.80000000000000004
sa(dp952
g3
I0
sg4
S'Q91#14'
p953
sg6
I1
sg7
F0
sa(dp954
g3
I0
sg4
S'Q91#15'
p955
sg6
I1
sg7
F0
sa(dp956
g3
F1
sg4
S'Q93#0'
p957
sg6
I1
sg7
F0.80000000000000004
sa(dp958
g3
F1.2
sg4
S'Q93#8'
p959
sg6
I4
sg7
F1
sa(dp960
g3
I0
sg4
S'Q93#10'
p961
sg6
I1
sg7
F0
sa(dp962
g3
F2
sg4
S'Q93#11'
p963
sg6
I2
sg7
F0.20000000000000001
sa(dp964
g3
F2
sg4
S'Q93#12'
p965
sg6
I4
sg7
F0.20000000000000001
sa(dp966
g3
F2
sg4
S'Q93#13'
p967
sg6
I2
sg7
F0.20000000000000001
sa(dp968
g3
F1.5
sg4
S'Q94#4'
p969
sg6
I1
sg7
F1
sa(dp970
g3
F1.5
sg4
S'Q94#13'
p971
sg6
I1
sg7
F1
sa(dp972
g3
F1.25
sg4
S'Q94#16'
p973
sg6
I1
sg7
F0.80000000000000004
sa(dp974
g3
F1.6666666666666667
sg4
S'Q94#19'
p975
sg6
I2
sg7
F1
sa(dp976
g3
F1
sg4
S'Q95#0'
p977
sg6
I1
sg7
F0.75
sa(dp978
g3
F1
sg4
S'Q95#1'
p979
sg6
I5
sg7
F0.33333333333333331
sa(dp980
g3
F1
sg4
S'Q95#5'
p981
sg6
I1
sg7
F0.40000000000000002
sa(dp982
g3
F1
sg4
S'Q95#6'
p983
sg6
I1
sg7
F0.59999999999999998
sa(dp984
g3
F2
sg4
S'Q95#14'
p985
sg6
I2
sg7
F0.33333333333333331
sa(dp986
g3
F1
sg4
S'Q95#16'
p987
sg6
I2
sg7
F0.40000000000000002
sa(dp988
g3
F1
sg4
S'Q95#17'
p989
sg6
I7
sg7
F0.40000000000000002
sa(dp990
g3
F1
sg4
S'Q95#18'
p991
sg6
I2
sg7
F0.33333333333333331
sa(dp992
g3
F2.3333333333333335
sg4
S'Q96#0'
p993
sg6
I5
sg7
F1
sa(dp994
g3
F1.6666666666666667
sg4
S'Q96#2'
p995
sg6
I4
sg7
F0.59999999999999998
sa(dp996
g3
F1
sg4
S'Q96#3'
p997
sg6
I1
sg7
F0.20000000000000001
sa(dp998
g3
F1.5
sg4
S'Q96#6'
p999
sg6
I4
sg7
F0.66666666666666663
sa(dp1000
g3
F1.3333333333333333
sg4
S'Q96#11'
p1001
sg6
I2
sg7
F1
sa(dp1002
g3
F1
sg4
S'Q96#13'
p1003
sg6
I3
sg7
F0.59999999999999998
sa(dp1004
g3
F1
sg4
S'Q96#14'
p1005
sg6
I4
sg7
F0.59999999999999998
sa(dp1006
g3
F1
sg4
S'Q97#0'
p1007
sg6
I3
sg7
F0.59999999999999998
sa(dp1008
g3
F1.5
sg4
S'Q97#2'
p1009
sg6
I2
sg7
F0.80000000000000004
sa(dp1010
g3
F1
sg4
S'Q97#5'
p1011
sg6
I5
sg7
F0.40000000000000002
sa(dp1012
g3
F1.6666666666666667
sg4
S'Q97#10'
p1013
sg6
I1
sg7
F0.59999999999999998
sa(dp1014
g3
F1
sg4
S'Q97#13'
p1015
sg6
I1
sg7
F0.20000000000000001
sa(dp1016
g3
F2
sg4
S'Q98#0'
p1017
sg6
I2
sg7
F0.20000000000000001
sa(dp1018
g3
I0
sg4
S'Q98#1'
p1019
sg6
I2
sg7
F0
sa(dp1020
g3
F1
sg4
S'Q100#1'
p1021
sg6
I6
sg7
F0.5
sa(dp1022
g3
F1
sg4
S'Q100#2'
p1023
sg6
I1
sg7
F0.80000000000000004
sa(dp1024
g3
I0
sg4
S'Q100#5'
p1025
sg6
I1
sg7
F0
sa(dp1026
g3
F1.75
sg4
S'Q100#7'
p1027
sg6
I1
sg7
F0.80000000000000004
sa(dp1028
g3
F1
sg4
S'Q100#8'
p1029
sg6
I2
sg7
F0.75
sa(dp1030
g3
F1
sg4
S'Q101#1'
p1031
sg6
I4
sg7
F1
sa(dp1032
g3
F1
sg4
S'Q101#2'
p1033
sg6
I3
sg7
F0.80000000000000004
sa(dp1034
g3
F1.5
sg4
S'Q101#3'
p1035
sg6
I5
sg7
F0.80000000000000004
sa(dp1036
g3
F2.6666666666666665
sg4
S'Q101#8'
p1037
sg6
I3
sg7
F1
sa(dp1038
g3
F2.3999999999999999
sg4
S'Q102#6'
p1039
sg6
I5
sg7
F1
sa(dp1040
g3
F1
sg4
S'Q102#7'
p1041
sg6
I4
sg7
F1
sa(dp1042
g3
F1
sg4
S'Q102#8'
p1043
sg6
I6
sg7
F0.75
sa(dp1044
g3
F2.25
sg4
S'Q102#9'
p1045
sg6
I3
sg7
F1
sa(dp1046
g3
F2
sg4
S'Q104#2'
p1047
sg6
I2
sg7
F0.25
sa(dp1048
g3
F1.3333333333333333
sg4
S'Q104#3'
p1049
sg6
I4
sg7
F0.75
sa(dp1050
g3
I0
sg4
S'Q104#4'
p1051
sg6
I2
sg7
F0
sa(dp1052
g3
I0
sg4
S'Q104#7'
p1053
sg6
I2
sg7
F0
sa(dp1054
g3
F1.5
sg4
S'Q104#8'
p1055
sg6
I3
sg7
F0.5
sa(dp1056
g3
F1
sg4
S'Q104#10'
p1057
sg6
I3
sg7
F0.25
sa(dp1058
g3
I0
sg4
S'Q104#11'
p1059
sg6
I3
sg7
F0
sa(dp1060
g3
I0
sg4
S'Q104#12'
p1061
sg6
I1
sg7
F0
sa(dp1062
g3
F1.5
sg4
S'Q105#0'
p1063
sg6
I3
sg7
F0.5
sa(dp1064
g3
F1.25
sg4
S'Q105#2'
p1065
sg6
I3
sg7
F1
sa(dp1066
g3
I0
sg4
S'Q105#3'
p1067
sg6
I5
sg7
F0
sa(dp1068
g3
F1
sg4
S'Q105#4'
p1069
sg6
I1
sg7
F0.25
sa(dp1070
g3
I0
sg4
S'Q105#5'
p1071
sg6
I2
sg7
F0
sa(dp1072
g3
F1
sg4
S'Q106#0'
p1073
sg6
I2
sg7
F0.25
sa(dp1074
g3
F1.5
sg4
S'Q106#1'
p1075
sg6
I5
sg7
F0.5
sa(dp1076
g3
F2.3333333333333335
sg4
S'Q106#2'
p1077
sg6
I5
sg7
F0.75
sa(dp1078
g3
F2
sg4
S'Q106#3'
p1079
sg6
I6
sg7
F0.5
sa(dp1080
g3
F2
sg4
S'Q106#4'
p1081
sg6
I5
sg7
F0.75
sa(dp1082
g3
F2
sg4
S'Q106#5'
p1083
sg6
I7
sg7
F0.5
sa(dp1084
g3
F2
sg4
S'Q107#1'
p1085
sg6
I3
sg7
F0.5
sa(dp1086
g3
F2
sg4
S'Q107#2'
p1087
sg6
I1
sg7
F0.5
sa(dp1088
g3
F2
sg4
S'Q107#3'
p1089
sg6
I5
sg7
F0.5
sa(dp1090
g3
F2
sg4
S'Q107#4'
p1091
sg6
I5
sg7
F0.5
sa(dp1092
g3
F2
sg4
S'Q107#5'
p1093
sg6
I4
sg7
F0.5
sa(dp1094
g3
I0
sg4
S'Q108#2'
p1095
sg6
I2
sg7
F0
sa(dp1096
g3
F1
sg4
S'Q108#3'
p1097
sg6
I2
sg7
F0.40000000000000002
sa(dp1098
g3
F1
sg4
S'Q108#4'
p1099
sg6
I2
sg7
F1
sa(dp1100
g3
F2.75
sg4
S'Q108#8'
p1101
sg6
I1
sg7
F1
sa(dp1102
g3
F2
sg4
S'Q108#10'
p1103
sg6
I2
sg7
F0.20000000000000001
sa(dp1104
g3
F2
sg4
S'Q108#12'
p1105
sg6
I1
sg7
F0.20000000000000001
sa(dp1106
g3
F1.5
sg4
S'Q108#15'
p1107
sg6
I3
sg7
F0.40000000000000002
sa(dp1108
g3
F2
sg4
S'Q108#18'
p1109
sg6
I1
sg7
F0.20000000000000001
sa(dp1110
g3
F1
sg4
S'Q108#21'
p1111
sg6
I2
sg7
F1
sa(dp1112
g3
F2
sg4
S'Q108#23'
p1113
sg6
I4
sg7
F0.20000000000000001
sa(dp1114
g3
F2
sg4
S'Q108#24'
p1115
sg6
I4
sg7
F0.25
sa(dp1116
g3
F2
sg4
S'Q109#2'
p1117
sg6
I4
sg7
F0.75
sa(dp1118
g3
F1.25
sg4
S'Q109#3'
p1119
sg6
I2
sg7
F0.80000000000000004
sa(dp1120
g3
F2.5
sg4
S'Q109#5'
p1121
sg6
I2
sg7
F0.66666666666666663
sa(dp1122
g3
F1.3333333333333333
sg4
S'Q109#12'
p1123
sg6
I4
sg7
F0.59999999999999998
sa(dp1124
g3
F1
sg4
S'Q109#16'
p1125
sg6
I1
sg7
F0.25
sa(dp1126
g3
F1.5
sg4
S'Q109#18'
p1127
sg6
I4
sg7
F0.66666666666666663
sa(dp1128
g3
F1
sg4
S'Q109#21'
p1129
sg6
I2
sg7
F0.75
sa(dp1130
g3
F1
sg4
S'Q110#0'
p1131
sg6
I1
sg7
F0.75
sa(dp1132
g3
F1
sg4
S'Q110#2'
p1133
sg6
I1
sg7
F0.5
sa(dp1134
g3
F2
sg4
S'Q110#4'
p1135
sg6
I1
sg7
F1
sa(dp1136
g3
I0
sg4
S'Q110#5'
p1137
sg6
I3
sg7
F0
sa(dp1138
g3
F2
sg4
S'Q110#7'
p1139
sg6
I1
sg7
F0.25
sa(dp1140
g3
F2.75
sg4
S'Q110#9'
p1141
sg6
I2
sg7
F1
sa(dp1142
g3
F1.6666666666666667
sg4
S'Q110#10'
p1143
sg6
I5
sg7
F0.75
sa(dp1144
g3
F1.3333333333333333
sg4
S'Q110#11'
p1145
sg6
I2
sg7
F0.75
sa(dp1146
g3
F3.5
sg4
S'Q111#6'
p1147
sg6
I1
sg7
F0.66666666666666663
sa(dp1148
g3
F3
sg4
S'Q111#8'
p1149
sg6
I2
sg7
F0.20000000000000001
sa(dp1150
g3
F1
sg4
S'Q111#9'
p1151
sg6
I2
sg7
F0.80000000000000004
sa(dp1152
g3
F1
sg4
S'Q119#0'
p1153
sg6
I4
sg7
F0.5
sa(dp1154
g3
F4
sg4
S'Q119#1'
p1155
sg6
I5
sg7
F0.25
sa(dp1156
g3
I0
sg4
S'Q119#2'
p1157
sg6
I9
sg7
F0
sa(dp1158
g3
F1
sg4
S'Q119#4'
p1159
sg6
I1
sg7
F0.25
sa(dp1160
g3
F4
sg4
S'Q119#6'
p1161
sg6
I1
sg7
F0.25
sa(dp1162
g3
I0
sg4
S'Q119#7'
p1163
sg6
I5
sg7
F0
sa(dp1164
g3
F2
sg4
S'Q119#8'
p1165
sg6
I1
sg7
F0.75
sa(dp1166
g3
I0
sg4
S'Q119#9'
p1167
sg6
I1
sg7
F0
sa(dp1168
g3
I0
sg4
S'Q120#0'
p1169
sg6
I1
sg7
F0
sa(dp1170
g3
F2.6666666666666665
sg4
S'Q120#3'
p1171
sg6
I1
sg7
F0.75
sa(dp1172
g3
F2.6666666666666665
sg4
S'Q120#6'
p1173
sg6
I4
sg7
F0.75
sa(dp1174
g3
I0
sg4
S'Q121#2'
p1175
sg6
I3
sg7
F0
sa(dp1176
g3
I0
sg4
S'Q121#3'
p1177
sg6
I8
sg7
F0
sa(dp1178
g3
I0
sg4
S'Q121#4'
p1179
sg6
I4
sg7
F0
sa(dp1180
g3
F4
sg4
S'Q121#5'
p1181
sg6
I7
sg7
F0.25
sa(dp1182
g3
F1
sg4
S'Q121#6'
p1183
sg6
I2
sg7
F0.25
sa(dp1184
g3
F2.5
sg4
S'Q121#9'
p1185
sg6
I1
sg7
F0.5
sa(dp1186
g3
F1
sg4
S'Q122#0'
p1187
sg6
I5
sg7
F0.40000000000000002
sa(dp1188
g3
F1
sg4
S'Q122#2'
p1189
sg6
I9
sg7
F0.40000000000000002
sa(dp1190
g3
F1
sg4
S'Q122#3'
p1191
sg6
I3
sg7
F1
sa(dp1192
g3
F1
sg4
S'Q122#6'
p1193
sg6
I1
sg7
F1
sa(dp1194
g3
F1
sg4
S'Q122#7'
p1195
sg6
I2
sg7
F1
sa(dp1196
g3
F1
sg4
S'Q122#8'
p1197
sg6
I5
sg7
F0.80000000000000004
sa(dp1198
g3
F2.6000000000000001
sg4
S'Q126#0'
p1199
sg6
I4
sg7
F1
sa(dp1200
g3
F1
sg4
S'Q126#2'
p1201
sg6
I3
sg7
F0.66666666666666663
sa(dp1202
g3
F1
sg4
S'Q126#4'
p1203
sg6
I8
sg7
F0.5
sa(dp1204
g3
F3.75
sg4
S'Q126#7'
p1205
sg6
I2
sg7
F1
sa(dp1206
g3
F1
sg4
S'Q126#8'
p1207
sg6
I2
sg7
F0.5
sa(dp1208
g3
F1
sg4
S'Q126#16'
p1209
sg6
I3
sg7
F0.33333333333333331
sa(dp1210
g3
I0
sg4
S'Q126#17'
p1211
sg6
I1
sg7
F0
sa(dp1212
g3
I0
sg4
S'Q126#18'
p1213
sg6
I3
sg7
F0
sa(dp1214
g3
F1
sg4
S'Q127#5'
p1215
sg6
I8
sg7
F1
sa(dp1216
g3
F2.25
sg4
S'Q127#9'
p1217
sg6
I2
sg7
F0.80000000000000004
sa(dp1218
g3
F1
sg4
S'Q129#0'
p1219
sg6
I3
sg7
F0.80000000000000004
sa(dp1220
g3
F1.3333333333333333
sg4
S'Q129#1'
p1221
sg6
I4
sg7
F0.75
sa(dp1222
g3
F1
sg4
S'Q129#7'
p1223
sg6
I2
sg7
F0.80000000000000004
sa(dp1224
g3
F1
sg4
S'Q129#8'
p1225
sg6
I1
sg7
F0.25
sa(dp1226
g3
F1
sg4
S'Q129#9'
p1227
sg6
I4
sg7
F0.40000000000000002
sa(dp1228
g3
F2.5
sg4
S'Q130#0'
p1229
sg6
I3
sg7
F0.66666666666666663
sa(dp1230
g3
F1.3999999999999999
sg4
S'Q130#1'
p1231
sg6
I2
sg7
F1
sa(dp1232
g3
F1
sg4
S'Q130#4'
p1233
sg6
I3
sg7
F0.33333333333333331
sa(dp1234
g3
F1
sg4
S'Q130#5'
p1235
sg6
I2
sg7
F0.59999999999999998
sa(dp1236
g3
F2.3333333333333335
sg4
S'Q130#9'
p1237
sg6
I2
sg7
F1
sa(dp1238
g3
F2.5
sg4
S'Q131#0'
p1239
sg6
I3
sg7
F0.66666666666666663
sa(dp1240
g3
F1.3999999999999999
sg4
S'Q131#1'
p1241
sg6
I2
sg7
F1
sa(dp1242
g3
F1
sg4
S'Q131#4'
p1243
sg6
I3
sg7
F0.33333333333333331
sa(dp1244
g3
F1
sg4
S'Q131#5'
p1245
sg6
I2
sg7
F0.59999999999999998
sa(dp1246
g3
F2.3333333333333335
sg4
S'Q131#9'
p1247
sg6
I2
sg7
F1
sa(dp1248
g3
F1
sg4
S'Q132#0'
p1249
sg6
I5
sg7
F0.20000000000000001
sa(dp1250
g3
F1
sg4
S'Q132#1'
p1251
sg6
I2
sg7
F0.20000000000000001
sa(dp1252
g3
F1
sg4
S'Q132#6'
p1253
sg6
I2
sg7
F0.40000000000000002
sa(dp1254
g3
F1
sg4
S'Q132#9'
p1255
sg6
I3
sg7
F0.40000000000000002
sa(dp1256
g3
F1.3333333333333333
sg4
S'Q133#5'
p1257
sg6
I3
sg7
F0.59999999999999998
sa(dp1258
g3
F1
sg4
S'Q133#9'
p1259
sg6
I7
sg7
F0.33333333333333331
sa(dp1260
g3
I0
sg4
S'Q133#10'
p1261
sg6
I1
sg7
F0
sa(dp1262
g3
I0
sg4
S'Q133#11'
p1263
sg6
I8
sg7
F0
sa(dp1264
g3
F1.3333333333333333
sg4
S'Q133#12'
p1265
sg6
I4
sg7
F1
sa(dp1266
g3
F1
sg4
S'Q133#13'
p1267
sg6
I6
sg7
F0.75
sa(dp1268
g3
F1.5
sg4
S'Q134#0'
p1269
sg6
I5
sg7
F0.80000000000000004
sa(dp1270
g3
F1.5
sg4
S'Q134#2'
p1271
sg6
I2
sg7
F0.80000000000000004
sa(dp1272
g3
F1.5
sg4
S'Q134#5'
p1273
sg6
I1
sg7
F0.80000000000000004
sa(dp1274
g3
F1.2
sg4
S'Q135#0'
p1275
sg6
I5
sg7
F1
sa(dp1276
g3
F1.3999999999999999
sg4
S'Q135#4'
p1277
sg6
I7
sg7
F1
sa(dp1278
g3
F1.25
sg4
S'Q135#6'
p1279
sg6
I2
sg7
F0.80000000000000004
sa(dp1280
g3
F1
sg4
S'Q135#10'
p1281
sg6
I7
sg7
F0.20000000000000001
sa(dp1282
g3
F6.333333333333333
sg4
S'Q135#13'
p1283
sg6
I2
sg7
F0.75
sa(dp1284
g3
F1
sg4
S'Q135#14'
p1285
sg6
I6
sg7
F1
sa(dp1286
g3
F1
sg4
S'Q137#6'
p1287
sg6
I3
sg7
F0.80000000000000004
sa(dp1288
g3
F1
sg4
S'Q137#8'
p1289
sg6
I4
sg7
F0.59999999999999998
sa(dp1290
g3
F1.5
sg4
S'Q139#3'
p1291
sg6
I6
sg7
F0.40000000000000002
sa(dp1292
g3
F2
sg4
S'Q139#4'
p1293
sg6
I5
sg7
F0.20000000000000001
sa(dp1294
g3
F3
sg4
S'Q139#5'
p1295
sg6
I3
sg7
F1
sa(dp1296
g3
F1
sg4
S'Q139#8'
p1297
sg6
I3
sg7
F0.20000000000000001
sa.