(lp1
(dp2
S'mc_entities'
p3
(lp4
(lp5
Vhttp://dbpedia.org/resource/The_Needles
p6
aVhttp://dbpedia.org/resource/Diameter
p7
aa(lp8
Vhttp://dbpedia.org/resource/Rates_%28tax%29
p9
aVhttp://dbpedia.org/resource/Administration_%28law%29
p10
aa(lp11
Vhttp://dbpedia.org/resource/Injection_%28medicine%29
p12
aVhttp://dbpedia.org/resource/Ribosome
p13
aVhttp://dbpedia.org/resource/Blood_flow
p14
aa(lp15
Vhttp://dbpedia.org/resource/Injection_%28medicine%29
p16
aVhttp://dbpedia.org/resource/Volume
p17
aasS'mc'
p18
(lp19
Vneedle diameter
p20
aVrate of administration
p21
aVinjection site blood flow
p22
aVinjection volume
p23
asS'q_entities'
p24
(lp25
Vhttp://dbpedia.org/resource/Factors_of_production
p26
aVhttp://dbpedia.org/resource/Rates_%28tax%29
p27
aVhttp://dbpedia.org/resource/Intramuscular_injection
p28
asS'url'
p29
S'http://www.pharmacology2000.com/General/Introduction/questions2/intro2.htm'
p30
sS'qtext'
p31
S'Most important factor influencing drug absorption rate following intramuscular injection:'
p32
sS'mcwordcount'
p33
I11
sS'QID'
p34
S'Q0#7'
p35
sS'qwordcount'
p36
I10
sS'qno'
p37
S'7'
sS'correct'
p38
I2
sS'qset'
p39
S'0'
sa(dp40
g3
(lp41
(lp42
Vhttp://dbpedia.org/resource/Weak_acid
p43
aVhttp://dbpedia.org/resource/Acid_dissociation_constant
p44
aa(lp45
Vhttp://dbpedia.org/resource/Acid_dissociation_constant
p46
aa(lp47
Vhttp://dbpedia.org/resource/Weak_acid
p48
aVhttp://dbpedia.org/resource/Acid_dissociation_constant
p49
aa(lp50
Vhttp://dbpedia.org/resource/Acid_dissociation_constant
p51
aa(lp52
Vhttp://dbpedia.org/resource/Weak_acid
p53
aVhttp://dbpedia.org/resource/Acid_dissociation_constant
p54
aasg18
(lp55
Vweak acid (pKa 7.4)
p56
aVweak base (pKa 8.4)
p57
aVweak acid (pKa 8.4)
p58
aVweak base (pKa 6.4)
p59
aVweak acid (pKa 6.4)
p60
asg24
(lp61
Vhttp://dbpedia.org/resource/Drug
p62
aVhttp://dbpedia.org/resource/Ionization
p63
aVhttp://dbpedia.org/resource/Property
p64
aVhttp://dbpedia.org/resource/Intestine
p65
aVhttp://dbpedia.org/resource/Blood_plasma
p66
asg29
S'http://www.pharmacology2000.com/General/Introduction/questions2/intro2.htm'
p67
sg31
S'Drug with this ionization property most likely to diffuse from intestine (pH 8.4) to blood (pH 7.4)'
p68
sg33
I30
sg34
S'Q0#11'
p69
sg36
I21
sg37
S'11'
p70
sg38
I3
sg39
S'0'
sa.